
build/Application:     file format elf64-x86-64


Disassembly of section .init:

0000000000002000 <_init>:
    2000:	48 83 ec 08          	sub    $0x8,%rsp
    2004:	48 8b 05 ad 9f 00 00 	mov    0x9fad(%rip),%rax        # bfb8 <__gmon_start__@Base>
    200b:	48 85 c0             	test   %rax,%rax
    200e:	74 02                	je     2012 <_init+0x12>
    2010:	ff d0                	call   *%rax
    2012:	48 83 c4 08          	add    $0x8,%rsp
    2016:	c3                   	ret

Disassembly of section .plt:

0000000000002020 <_ZNSaIcED2Ev@plt-0x10>:
    2020:	ff 35 ca 9f 00 00    	push   0x9fca(%rip)        # bff0 <_GLOBAL_OFFSET_TABLE_+0x8>
    2026:	ff 25 cc 9f 00 00    	jmp    *0x9fcc(%rip)        # bff8 <_GLOBAL_OFFSET_TABLE_+0x10>
    202c:	0f 1f 40 00          	nopl   0x0(%rax)

0000000000002030 <_ZNSaIcED2Ev@plt>:
    2030:	ff 25 ca 9f 00 00    	jmp    *0x9fca(%rip)        # c000 <_ZNSaIcED2Ev@GLIBCXX_3.4>
    2036:	68 00 00 00 00       	push   $0x0
    203b:	e9 e0 ff ff ff       	jmp    2020 <_init+0x20>

0000000000002040 <_ZNKSt7__cxx1112basic_stringIcSt11char_traitsIcESaIcEE7compareEPKc@plt>:
    2040:	ff 25 c2 9f 00 00    	jmp    *0x9fc2(%rip)        # c008 <_ZNKSt7__cxx1112basic_stringIcSt11char_traitsIcESaIcEE7compareEPKc@GLIBCXX_3.4.21>
    2046:	68 01 00 00 00       	push   $0x1
    204b:	e9 d0 ff ff ff       	jmp    2020 <_init+0x20>

0000000000002050 <glfwDestroyWindow@plt>:
    2050:	ff 25 ba 9f 00 00    	jmp    *0x9fba(%rip)        # c010 <glfwDestroyWindow@Base>
    2056:	68 02 00 00 00       	push   $0x2
    205b:	e9 c0 ff ff ff       	jmp    2020 <_init+0x20>

0000000000002060 <_ZSt17__throw_bad_allocv@plt>:
    2060:	ff 25 b2 9f 00 00    	jmp    *0x9fb2(%rip)        # c018 <_ZSt17__throw_bad_allocv@GLIBCXX_3.4>
    2066:	68 03 00 00 00       	push   $0x3
    206b:	e9 b0 ff ff ff       	jmp    2020 <_init+0x20>

0000000000002070 <_ZNSt13runtime_errorC1EPKc@plt>:
    2070:	ff 25 aa 9f 00 00    	jmp    *0x9faa(%rip)        # c020 <_ZNSt13runtime_errorC1EPKc@GLIBCXX_3.4.21>
    2076:	68 04 00 00 00       	push   $0x4
    207b:	e9 a0 ff ff ff       	jmp    2020 <_init+0x20>

0000000000002080 <vkGetPhysicalDeviceProperties@plt>:
    2080:	ff 25 a2 9f 00 00    	jmp    *0x9fa2(%rip)        # c028 <vkGetPhysicalDeviceProperties@Base>
    2086:	68 05 00 00 00       	push   $0x5
    208b:	e9 90 ff ff ff       	jmp    2020 <_init+0x20>

0000000000002090 <__cxa_begin_catch@plt>:
    2090:	ff 25 9a 9f 00 00    	jmp    *0x9f9a(%rip)        # c030 <__cxa_begin_catch@CXXABI_1.3>
    2096:	68 06 00 00 00       	push   $0x6
    209b:	e9 80 ff ff ff       	jmp    2020 <_init+0x20>

00000000000020a0 <_ZNSt7__cxx1112basic_stringIcSt11char_traitsIcESaIcEEC1ERKS4_@plt>:
    20a0:	ff 25 92 9f 00 00    	jmp    *0x9f92(%rip)        # c038 <_ZNSt7__cxx1112basic_stringIcSt11char_traitsIcESaIcEEC1ERKS4_@GLIBCXX_3.4.21>
    20a6:	68 07 00 00 00       	push   $0x7
    20ab:	e9 70 ff ff ff       	jmp    2020 <_init+0x20>

00000000000020b0 <strlen@plt>:
    20b0:	ff 25 8a 9f 00 00    	jmp    *0x9f8a(%rip)        # c040 <strlen@GLIBC_2.2.5>
    20b6:	68 08 00 00 00       	push   $0x8
    20bb:	e9 60 ff ff ff       	jmp    2020 <_init+0x20>

00000000000020c0 <__cxa_allocate_exception@plt>:
    20c0:	ff 25 82 9f 00 00    	jmp    *0x9f82(%rip)        # c048 <__cxa_allocate_exception@CXXABI_1.3>
    20c6:	68 09 00 00 00       	push   $0x9
    20cb:	e9 50 ff ff ff       	jmp    2020 <_init+0x20>

00000000000020d0 <_ZSt20__throw_length_errorPKc@plt>:
    20d0:	ff 25 7a 9f 00 00    	jmp    *0x9f7a(%rip)        # c050 <_ZSt20__throw_length_errorPKc@GLIBCXX_3.4>
    20d6:	68 0a 00 00 00       	push   $0xa
    20db:	e9 40 ff ff ff       	jmp    2020 <_init+0x20>

00000000000020e0 <vkEnumeratePhysicalDevices@plt>:
    20e0:	ff 25 72 9f 00 00    	jmp    *0x9f72(%rip)        # c058 <vkEnumeratePhysicalDevices@Base>
    20e6:	68 0b 00 00 00       	push   $0xb
    20eb:	e9 30 ff ff ff       	jmp    2020 <_init+0x20>

00000000000020f0 <_ZNSt7__cxx1112basic_stringIcSt11char_traitsIcESaIcEED1Ev@plt>:
    20f0:	ff 25 6a 9f 00 00    	jmp    *0x9f6a(%rip)        # c060 <_ZNSt7__cxx1112basic_stringIcSt11char_traitsIcESaIcEED1Ev@GLIBCXX_3.4.21>
    20f6:	68 0c 00 00 00       	push   $0xc
    20fb:	e9 20 ff ff ff       	jmp    2020 <_init+0x20>

0000000000002100 <_ZNSt7__cxx1112basic_stringIcSt11char_traitsIcESaIcEE13_M_set_lengthEm@plt>:
    2100:	ff 25 62 9f 00 00    	jmp    *0x9f62(%rip)        # c068 <_ZNSt7__cxx1112basic_stringIcSt11char_traitsIcESaIcEE13_M_set_lengthEm@GLIBCXX_3.4.21>
    2106:	68 0d 00 00 00       	push   $0xd
    210b:	e9 10 ff ff ff       	jmp    2020 <_init+0x20>

0000000000002110 <_ZSt19__throw_logic_errorPKc@plt>:
    2110:	ff 25 5a 9f 00 00    	jmp    *0x9f5a(%rip)        # c070 <_ZSt19__throw_logic_errorPKc@GLIBCXX_3.4>
    2116:	68 0e 00 00 00       	push   $0xe
    211b:	e9 00 ff ff ff       	jmp    2020 <_init+0x20>

0000000000002120 <__cxa_free_exception@plt>:
    2120:	ff 25 52 9f 00 00    	jmp    *0x9f52(%rip)        # c078 <__cxa_free_exception@CXXABI_1.3>
    2126:	68 0f 00 00 00       	push   $0xf
    212b:	e9 f0 fe ff ff       	jmp    2020 <_init+0x20>

0000000000002130 <glfwGetRequiredInstanceExtensions@plt>:
    2130:	ff 25 4a 9f 00 00    	jmp    *0x9f4a(%rip)        # c080 <glfwGetRequiredInstanceExtensions@Base>
    2136:	68 10 00 00 00       	push   $0x10
    213b:	e9 e0 fe ff ff       	jmp    2020 <_init+0x20>

0000000000002140 <_ZSt28__throw_bad_array_new_lengthv@plt>:
    2140:	ff 25 42 9f 00 00    	jmp    *0x9f42(%rip)        # c088 <_ZSt28__throw_bad_array_new_lengthv@GLIBCXX_3.4.29>
    2146:	68 11 00 00 00       	push   $0x11
    214b:	e9 d0 fe ff ff       	jmp    2020 <_init+0x20>

0000000000002150 <_ZNSt7__cxx1112basic_stringIcSt11char_traitsIcESaIcEE13_M_local_dataEv@plt>:
    2150:	ff 25 3a 9f 00 00    	jmp    *0x9f3a(%rip)        # c090 <_ZNSt7__cxx1112basic_stringIcSt11char_traitsIcESaIcEE13_M_local_dataEv@GLIBCXX_3.4.21>
    2156:	68 12 00 00 00       	push   $0x12
    215b:	e9 c0 fe ff ff       	jmp    2020 <_init+0x20>

0000000000002160 <vkDestroyDevice@plt>:
    2160:	ff 25 32 9f 00 00    	jmp    *0x9f32(%rip)        # c098 <vkDestroyDevice@Base>
    2166:	68 13 00 00 00       	push   $0x13
    216b:	e9 b0 fe ff ff       	jmp    2020 <_init+0x20>

0000000000002170 <vkEnumerateInstanceExtensionProperties@plt>:
    2170:	ff 25 2a 9f 00 00    	jmp    *0x9f2a(%rip)        # c0a0 <vkEnumerateInstanceExtensionProperties@Base>
    2176:	68 14 00 00 00       	push   $0x14
    217b:	e9 a0 fe ff ff       	jmp    2020 <_init+0x20>

0000000000002180 <_ZNSt7__cxx1112basic_stringIcSt11char_traitsIcESaIcEE7_M_dataEPc@plt>:
    2180:	ff 25 22 9f 00 00    	jmp    *0x9f22(%rip)        # c0a8 <_ZNSt7__cxx1112basic_stringIcSt11char_traitsIcESaIcEE7_M_dataEPc@GLIBCXX_3.4.21>
    2186:	68 15 00 00 00       	push   $0x15
    218b:	e9 90 fe ff ff       	jmp    2020 <_init+0x20>

0000000000002190 <glfwWindowHint@plt>:
    2190:	ff 25 1a 9f 00 00    	jmp    *0x9f1a(%rip)        # c0b0 <glfwWindowHint@Base>
    2196:	68 16 00 00 00       	push   $0x16
    219b:	e9 80 fe ff ff       	jmp    2020 <_init+0x20>

00000000000021a0 <__cxa_atexit@plt>:
    21a0:	ff 25 12 9f 00 00    	jmp    *0x9f12(%rip)        # c0b8 <__cxa_atexit@GLIBC_2.2.5>
    21a6:	68 17 00 00 00       	push   $0x17
    21ab:	e9 70 fe ff ff       	jmp    2020 <_init+0x20>

00000000000021b0 <vkGetPhysicalDeviceProperties2@plt>:
    21b0:	ff 25 0a 9f 00 00    	jmp    *0x9f0a(%rip)        # c0c0 <vkGetPhysicalDeviceProperties2@Base>
    21b6:	68 18 00 00 00       	push   $0x18
    21bb:	e9 60 fe ff ff       	jmp    2020 <_init+0x20>

00000000000021c0 <_ZStlsISt11char_traitsIcEERSt13basic_ostreamIcT_ES5_PKc@plt>:
    21c0:	ff 25 02 9f 00 00    	jmp    *0x9f02(%rip)        # c0c8 <_ZStlsISt11char_traitsIcEERSt13basic_ostreamIcT_ES5_PKc@GLIBCXX_3.4>
    21c6:	68 19 00 00 00       	push   $0x19
    21cb:	e9 50 fe ff ff       	jmp    2020 <_init+0x20>

00000000000021d0 <_Znwm@plt>:
    21d0:	ff 25 fa 9e 00 00    	jmp    *0x9efa(%rip)        # c0d0 <_Znwm@GLIBCXX_3.4>
    21d6:	68 1a 00 00 00       	push   $0x1a
    21db:	e9 40 fe ff ff       	jmp    2020 <_init+0x20>

00000000000021e0 <_ZdlPvm@plt>:
    21e0:	ff 25 f2 9e 00 00    	jmp    *0x9ef2(%rip)        # c0d8 <_ZdlPvm@CXXABI_1.3.9>
    21e6:	68 1b 00 00 00       	push   $0x1b
    21eb:	e9 30 fe ff ff       	jmp    2020 <_init+0x20>

00000000000021f0 <vkDestroyInstance@plt>:
    21f0:	ff 25 ea 9e 00 00    	jmp    *0x9eea(%rip)        # c0e0 <vkDestroyInstance@Base>
    21f6:	68 1c 00 00 00       	push   $0x1c
    21fb:	e9 20 fe ff ff       	jmp    2020 <_init+0x20>

0000000000002200 <glfwTerminate@plt>:
    2200:	ff 25 e2 9e 00 00    	jmp    *0x9ee2(%rip)        # c0e8 <glfwTerminate@Base>
    2206:	68 1d 00 00 00       	push   $0x1d
    220b:	e9 10 fe ff ff       	jmp    2020 <_init+0x20>

0000000000002210 <_ZNSt7__cxx1112basic_stringIcSt11char_traitsIcESaIcEE12_Alloc_hiderC1EPcRKS3_@plt>:
    2210:	ff 25 da 9e 00 00    	jmp    *0x9eda(%rip)        # c0f0 <_ZNSt7__cxx1112basic_stringIcSt11char_traitsIcESaIcEE12_Alloc_hiderC1EPcRKS3_@GLIBCXX_3.4.21>
    2216:	68 1e 00 00 00       	push   $0x1e
    221b:	e9 00 fe ff ff       	jmp    2020 <_init+0x20>

0000000000002220 <_ZNSaIcED1Ev@plt>:
    2220:	ff 25 d2 9e 00 00    	jmp    *0x9ed2(%rip)        # c0f8 <_ZNSaIcED1Ev@GLIBCXX_3.4>
    2226:	68 1f 00 00 00       	push   $0x1f
    222b:	e9 f0 fd ff ff       	jmp    2020 <_init+0x20>

0000000000002230 <_ZNKSt7__cxx1112basic_stringIcSt11char_traitsIcESaIcEE7_M_dataEv@plt>:
    2230:	ff 25 ca 9e 00 00    	jmp    *0x9eca(%rip)        # c100 <_ZNKSt7__cxx1112basic_stringIcSt11char_traitsIcESaIcEE7_M_dataEv@GLIBCXX_3.4.21>
    2236:	68 20 00 00 00       	push   $0x20
    223b:	e9 e0 fd ff ff       	jmp    2020 <_init+0x20>

0000000000002240 <_ZNSt7__cxx1112basic_stringIcSt11char_traitsIcESaIcEE13_S_copy_charsEPcPKcS7_@plt>:
    2240:	ff 25 c2 9e 00 00    	jmp    *0x9ec2(%rip)        # c108 <_ZNSt7__cxx1112basic_stringIcSt11char_traitsIcESaIcEE13_S_copy_charsEPcPKcS7_@GLIBCXX_3.4.21>
    2246:	68 21 00 00 00       	push   $0x21
    224b:	e9 d0 fd ff ff       	jmp    2020 <_init+0x20>

0000000000002250 <vkEnumerateInstanceLayerProperties@plt>:
    2250:	ff 25 ba 9e 00 00    	jmp    *0x9eba(%rip)        # c110 <vkEnumerateInstanceLayerProperties@Base>
    2256:	68 22 00 00 00       	push   $0x22
    225b:	e9 c0 fd ff ff       	jmp    2020 <_init+0x20>

0000000000002260 <glfwInit@plt>:
    2260:	ff 25 b2 9e 00 00    	jmp    *0x9eb2(%rip)        # c118 <glfwInit@Base>
    2266:	68 23 00 00 00       	push   $0x23
    226b:	e9 b0 fd ff ff       	jmp    2020 <_init+0x20>

0000000000002270 <_ZStlsISt11char_traitsIcEERSt13basic_ostreamIcT_ES5_c@plt>:
    2270:	ff 25 aa 9e 00 00    	jmp    *0x9eaa(%rip)        # c120 <_ZStlsISt11char_traitsIcEERSt13basic_ostreamIcT_ES5_c@GLIBCXX_3.4>
    2276:	68 24 00 00 00       	push   $0x24
    227b:	e9 a0 fd ff ff       	jmp    2020 <_init+0x20>

0000000000002280 <vkCreateInstance@plt>:
    2280:	ff 25 a2 9e 00 00    	jmp    *0x9ea2(%rip)        # c128 <vkCreateInstance@Base>
    2286:	68 25 00 00 00       	push   $0x25
    228b:	e9 90 fd ff ff       	jmp    2020 <_init+0x20>

0000000000002290 <_ZNSt7__cxx1112basic_stringIcSt11char_traitsIcESaIcEE10_M_disposeEv@plt>:
    2290:	ff 25 9a 9e 00 00    	jmp    *0x9e9a(%rip)        # c130 <_ZNSt7__cxx1112basic_stringIcSt11char_traitsIcESaIcEE10_M_disposeEv@GLIBCXX_3.4.21>
    2296:	68 26 00 00 00       	push   $0x26
    229b:	e9 80 fd ff ff       	jmp    2020 <_init+0x20>

00000000000022a0 <_ZNSt7__cxx1112basic_stringIcSt11char_traitsIcESaIcEEaSEPKc@plt>:
    22a0:	ff 25 92 9e 00 00    	jmp    *0x9e92(%rip)        # c138 <_ZNSt7__cxx1112basic_stringIcSt11char_traitsIcESaIcEEaSEPKc@GLIBCXX_3.4.21>
    22a6:	68 27 00 00 00       	push   $0x27
    22ab:	e9 70 fd ff ff       	jmp    2020 <_init+0x20>

00000000000022b0 <vkEnumerateDeviceExtensionProperties@plt>:
    22b0:	ff 25 8a 9e 00 00    	jmp    *0x9e8a(%rip)        # c140 <vkEnumerateDeviceExtensionProperties@Base>
    22b6:	68 28 00 00 00       	push   $0x28
    22bb:	e9 60 fd ff ff       	jmp    2020 <_init+0x20>

00000000000022c0 <_ZNSt7__cxx1112basic_stringIcSt11char_traitsIcESaIcEEC1Ev@plt>:
    22c0:	ff 25 82 9e 00 00    	jmp    *0x9e82(%rip)        # c148 <_ZNSt7__cxx1112basic_stringIcSt11char_traitsIcESaIcEEC1Ev@GLIBCXX_3.4.21>
    22c6:	68 29 00 00 00       	push   $0x29
    22cb:	e9 50 fd ff ff       	jmp    2020 <_init+0x20>

00000000000022d0 <__cxa_rethrow@plt>:
    22d0:	ff 25 7a 9e 00 00    	jmp    *0x9e7a(%rip)        # c150 <__cxa_rethrow@CXXABI_1.3>
    22d6:	68 2a 00 00 00       	push   $0x2a
    22db:	e9 40 fd ff ff       	jmp    2020 <_init+0x20>

00000000000022e0 <vkCreateDevice@plt>:
    22e0:	ff 25 72 9e 00 00    	jmp    *0x9e72(%rip)        # c158 <vkCreateDevice@Base>
    22e6:	68 2b 00 00 00       	push   $0x2b
    22eb:	e9 30 fd ff ff       	jmp    2020 <_init+0x20>

00000000000022f0 <_ZNSt8ios_base4InitC1Ev@plt>:
    22f0:	ff 25 6a 9e 00 00    	jmp    *0x9e6a(%rip)        # c160 <_ZNSt8ios_base4InitC1Ev@GLIBCXX_3.4>
    22f6:	68 2c 00 00 00       	push   $0x2c
    22fb:	e9 20 fd ff ff       	jmp    2020 <_init+0x20>

0000000000002300 <glfwCreateWindow@plt>:
    2300:	ff 25 62 9e 00 00    	jmp    *0x9e62(%rip)        # c168 <glfwCreateWindow@Base>
    2306:	68 2d 00 00 00       	push   $0x2d
    230b:	e9 10 fd ff ff       	jmp    2020 <_init+0x20>

0000000000002310 <__cxa_end_catch@plt>:
    2310:	ff 25 5a 9e 00 00    	jmp    *0x9e5a(%rip)        # c170 <__cxa_end_catch@CXXABI_1.3>
    2316:	68 2e 00 00 00       	push   $0x2e
    231b:	e9 00 fd ff ff       	jmp    2020 <_init+0x20>

0000000000002320 <__cxa_throw@plt>:
    2320:	ff 25 52 9e 00 00    	jmp    *0x9e52(%rip)        # c178 <__cxa_throw@CXXABI_1.3>
    2326:	68 2f 00 00 00       	push   $0x2f
    232b:	e9 f0 fc ff ff       	jmp    2020 <_init+0x20>

0000000000002330 <_Unwind_Resume@plt>:
    2330:	ff 25 4a 9e 00 00    	jmp    *0x9e4a(%rip)        # c180 <_Unwind_Resume@GCC_3.0>
    2336:	68 30 00 00 00       	push   $0x30
    233b:	e9 e0 fc ff ff       	jmp    2020 <_init+0x20>

0000000000002340 <_ZNSaIcEC1Ev@plt>:
    2340:	ff 25 42 9e 00 00    	jmp    *0x9e42(%rip)        # c188 <_ZNSaIcEC1Ev@GLIBCXX_3.4>
    2346:	68 31 00 00 00       	push   $0x31
    234b:	e9 d0 fc ff ff       	jmp    2020 <_init+0x20>

0000000000002350 <_ZNSt7__cxx1112basic_stringIcSt11char_traitsIcESaIcEE9_M_createERmm@plt>:
    2350:	ff 25 3a 9e 00 00    	jmp    *0x9e3a(%rip)        # c190 <_ZNSt7__cxx1112basic_stringIcSt11char_traitsIcESaIcEE9_M_createERmm@GLIBCXX_3.4.21>
    2356:	68 32 00 00 00       	push   $0x32
    235b:	e9 c0 fc ff ff       	jmp    2020 <_init+0x20>

0000000000002360 <_ZNSt7__cxx1112basic_stringIcSt11char_traitsIcESaIcEE11_M_capacityEm@plt>:
    2360:	ff 25 32 9e 00 00    	jmp    *0x9e32(%rip)        # c198 <_ZNSt7__cxx1112basic_stringIcSt11char_traitsIcESaIcEE11_M_capacityEm@GLIBCXX_3.4.21>
    2366:	68 33 00 00 00       	push   $0x33
    236b:	e9 b0 fc ff ff       	jmp    2020 <_init+0x20>

Disassembly of section .plt.got:

0000000000002370 <__cxa_finalize@plt>:
    2370:	ff 25 22 9c 00 00    	jmp    *0x9c22(%rip)        # bf98 <__cxa_finalize@GLIBC_2.2.5>
    2376:	66 90                	xchg   %ax,%ax

Disassembly of section .text:

0000000000002380 <_start>:
    2380:	31 ed                	xor    %ebp,%ebp
    2382:	49 89 d1             	mov    %rdx,%r9
    2385:	5e                   	pop    %rsi
    2386:	48 89 e2             	mov    %rsp,%rdx
    2389:	48 83 e4 f0          	and    $0xfffffffffffffff0,%rsp
    238d:	50                   	push   %rax
    238e:	54                   	push   %rsp
    238f:	45 31 c0             	xor    %r8d,%r8d
    2392:	31 c9                	xor    %ecx,%ecx
    2394:	48 8d 3d 5e 02 00 00 	lea    0x25e(%rip),%rdi        # 25f9 <main>
    239b:	ff 15 ff 9b 00 00    	call   *0x9bff(%rip)        # bfa0 <__libc_start_main@GLIBC_2.34>
    23a1:	f4                   	hlt
    23a2:	66 2e 0f 1f 84 00 00 	cs nopw 0x0(%rax,%rax,1)
    23a9:	00 00 00 
    23ac:	0f 1f 40 00          	nopl   0x0(%rax)

00000000000023b0 <deregister_tm_clones>:
    23b0:	48 8d 3d 09 9e 00 00 	lea    0x9e09(%rip),%rdi        # c1c0 <_ZSt4cout@GLIBCXX_3.4>
    23b7:	48 8d 05 02 9e 00 00 	lea    0x9e02(%rip),%rax        # c1c0 <_ZSt4cout@GLIBCXX_3.4>
    23be:	48 39 f8             	cmp    %rdi,%rax
    23c1:	74 15                	je     23d8 <deregister_tm_clones+0x28>
    23c3:	48 8b 05 e6 9b 00 00 	mov    0x9be6(%rip),%rax        # bfb0 <_ITM_deregisterTMCloneTable@Base>
    23ca:	48 85 c0             	test   %rax,%rax
    23cd:	74 09                	je     23d8 <deregister_tm_clones+0x28>
    23cf:	ff e0                	jmp    *%rax
    23d1:	0f 1f 80 00 00 00 00 	nopl   0x0(%rax)
    23d8:	c3                   	ret
    23d9:	0f 1f 80 00 00 00 00 	nopl   0x0(%rax)

00000000000023e0 <register_tm_clones>:
    23e0:	48 8d 3d d9 9d 00 00 	lea    0x9dd9(%rip),%rdi        # c1c0 <_ZSt4cout@GLIBCXX_3.4>
    23e7:	48 8d 35 d2 9d 00 00 	lea    0x9dd2(%rip),%rsi        # c1c0 <_ZSt4cout@GLIBCXX_3.4>
    23ee:	48 29 fe             	sub    %rdi,%rsi
    23f1:	48 89 f0             	mov    %rsi,%rax
    23f4:	48 c1 ee 3f          	shr    $0x3f,%rsi
    23f8:	48 c1 f8 03          	sar    $0x3,%rax
    23fc:	48 01 c6             	add    %rax,%rsi
    23ff:	48 d1 fe             	sar    %rsi
    2402:	74 14                	je     2418 <register_tm_clones+0x38>
    2404:	48 8b 05 b5 9b 00 00 	mov    0x9bb5(%rip),%rax        # bfc0 <_ITM_registerTMCloneTable@Base>
    240b:	48 85 c0             	test   %rax,%rax
    240e:	74 08                	je     2418 <register_tm_clones+0x38>
    2410:	ff e0                	jmp    *%rax
    2412:	66 0f 1f 44 00 00    	nopw   0x0(%rax,%rax,1)
    2418:	c3                   	ret
    2419:	0f 1f 80 00 00 00 00 	nopl   0x0(%rax)

0000000000002420 <__do_global_dtors_aux>:
    2420:	f3 0f 1e fa          	endbr64
    2424:	80 3d c5 9f 00 00 00 	cmpb   $0x0,0x9fc5(%rip)        # c3f0 <completed.0>
    242b:	75 2b                	jne    2458 <__do_global_dtors_aux+0x38>
    242d:	55                   	push   %rbp
    242e:	48 83 3d 62 9b 00 00 	cmpq   $0x0,0x9b62(%rip)        # bf98 <__cxa_finalize@GLIBC_2.2.5>
    2435:	00 
    2436:	48 89 e5             	mov    %rsp,%rbp
    2439:	74 0c                	je     2447 <__do_global_dtors_aux+0x27>
    243b:	48 8b 3d 66 9d 00 00 	mov    0x9d66(%rip),%rdi        # c1a8 <__dso_handle>
    2442:	e8 29 ff ff ff       	call   2370 <__cxa_finalize@plt>
    2447:	e8 64 ff ff ff       	call   23b0 <deregister_tm_clones>
    244c:	c6 05 9d 9f 00 00 01 	movb   $0x1,0x9f9d(%rip)        # c3f0 <completed.0>
    2453:	5d                   	pop    %rbp
    2454:	c3                   	ret
    2455:	0f 1f 00             	nopl   (%rax)
    2458:	c3                   	ret
    2459:	0f 1f 80 00 00 00 00 	nopl   0x0(%rax)

0000000000002460 <frame_dummy>:
    2460:	f3 0f 1e fa          	endbr64
    2464:	e9 77 ff ff ff       	jmp    23e0 <register_tm_clones>

0000000000002469 <_Z14protected_mainv>:
#include <vkh.hpp>

#include <iostream>
#include <typeinfo>

int protected_main() {
    2469:	55                   	push   %rbp
    246a:	48 89 e5             	mov    %rsp,%rbp
    246d:	53                   	push   %rbx
    246e:	48 81 ec e8 00 00 00 	sub    $0xe8,%rsp
  glfwInit();
    2475:	e8 e6 fd ff ff       	call   2260 <glfwInit@plt>

  auto appInfo = vkh::makeApplicationInfo();
    247a:	48 8d 45 a0          	lea    -0x60(%rbp),%rax
    247e:	48 8d 15 5b 41 00 00 	lea    0x415b(%rip),%rdx        # 65e0 <_ZL47VK_FORMAT_FEATURE_2_BOX_FILTER_SAMPLED_BIT_QCOM+0x8>
    2485:	48 89 d6             	mov    %rdx,%rsi
    2488:	48 89 c7             	mov    %rax,%rdi
    248b:	e8 b7 2b 00 00       	call   5047 <_ZN3vkh19makeApplicationInfoEPKc>
  auto createInfo = vkh::makeInstanceCreateInfo(&appInfo);
    2490:	48 8d 85 60 ff ff ff 	lea    -0xa0(%rbp),%rax
    2497:	48 8d 75 a0          	lea    -0x60(%rbp),%rsi
    249b:	41 b8 00 00 00 00    	mov    $0x0,%r8d
    24a1:	b9 00 00 00 00       	mov    $0x0,%ecx
    24a6:	ba 00 00 00 00       	mov    $0x0,%edx
    24ab:	48 89 c7             	mov    %rax,%rdi
    24ae:	e8 00 2c 00 00       	call   50b3 <_ZN3vkh22makeInstanceCreateInfoEPK17VkApplicationInfojPKPKcPKv>
  auto instance = vkh::createInstance(&createInfo);
    24b3:	48 8d 85 60 ff ff ff 	lea    -0xa0(%rbp),%rax
    24ba:	be 00 00 00 00       	mov    $0x0,%esi
    24bf:	48 89 c7             	mov    %rax,%rdi
    24c2:	e8 61 07 00 00       	call   2c28 <_ZN3vkh14createInstanceEPK20VkInstanceCreateInfoPK21VkAllocationCallbacks>
    24c7:	48 89 45 e8          	mov    %rax,-0x18(%rbp)
  auto physicalDeviceList = vkh::getPhysicalDeviceList(instance);
    24cb:	48 8d 85 40 ff ff ff 	lea    -0xc0(%rbp),%rax
    24d2:	48 8b 55 e8          	mov    -0x18(%rbp),%rdx
    24d6:	48 89 d6             	mov    %rdx,%rsi
    24d9:	48 89 c7             	mov    %rax,%rdi
    24dc:	e8 41 0d 00 00       	call   3222 <_ZN3vkh21getPhysicalDeviceListEP12VkInstance_T>

  auto layerList = vkh::getAvailableInstanceLayerList();
    24e1:	48 8d 85 20 ff ff ff 	lea    -0xe0(%rbp),%rax
    24e8:	48 89 c7             	mov    %rax,%rdi
    24eb:	e8 86 0c 00 00       	call   3176 <_ZN3vkh29getAvailableInstanceLayerListEv>
  for (const auto &layer : layerList) {
    24f0:	48 8d 85 20 ff ff ff 	lea    -0xe0(%rbp),%rax
    24f7:	48 89 45 e0          	mov    %rax,-0x20(%rbp)
    24fb:	48 8b 45 e0          	mov    -0x20(%rbp),%rax
    24ff:	48 89 c7             	mov    %rax,%rdi
    2502:	e8 a5 02 00 00       	call   27ac <_ZNSt6vectorI17VkLayerPropertiesSaIS0_EE5beginEv>
    2507:	48 89 85 18 ff ff ff 	mov    %rax,-0xe8(%rbp)
    250e:	48 8b 45 e0          	mov    -0x20(%rbp),%rax
    2512:	48 89 c7             	mov    %rax,%rdi
    2515:	e8 b8 02 00 00       	call   27d2 <_ZNSt6vectorI17VkLayerPropertiesSaIS0_EE3endEv>
    251a:	48 89 85 10 ff ff ff 	mov    %rax,-0xf0(%rbp)
    2521:	eb 45                	jmp    2568 <_Z14protected_mainv+0xff>
    2523:	48 8d 85 18 ff ff ff 	lea    -0xe8(%rbp),%rax
    252a:	48 89 c7             	mov    %rax,%rdi
    252d:	e8 28 03 00 00       	call   285a <_ZNK9__gnu_cxx17__normal_iteratorIP17VkLayerPropertiesSt6vectorIS1_SaIS1_EEEdeEv>
    2532:	48 89 45 d8          	mov    %rax,-0x28(%rbp)
    std::cout << layer.layerName << '\n';
    2536:	48 8b 45 d8          	mov    -0x28(%rbp),%rax
    253a:	48 89 c6             	mov    %rax,%rsi
    253d:	48 8d 05 7c 9c 00 00 	lea    0x9c7c(%rip),%rax        # c1c0 <_ZSt4cout@GLIBCXX_3.4>
    2544:	48 89 c7             	mov    %rax,%rdi
    2547:	e8 74 fc ff ff       	call   21c0 <_ZStlsISt11char_traitsIcEERSt13basic_ostreamIcT_ES5_PKc@plt>
    254c:	be 0a 00 00 00       	mov    $0xa,%esi
    2551:	48 89 c7             	mov    %rax,%rdi
    2554:	e8 17 fd ff ff       	call   2270 <_ZStlsISt11char_traitsIcEERSt13basic_ostreamIcT_ES5_c@plt>
  for (const auto &layer : layerList) {
    2559:	48 8d 85 18 ff ff ff 	lea    -0xe8(%rbp),%rax
    2560:	48 89 c7             	mov    %rax,%rdi
    2563:	e8 ce 02 00 00       	call   2836 <_ZN9__gnu_cxx17__normal_iteratorIP17VkLayerPropertiesSt6vectorIS1_SaIS1_EEEppEv>
    2568:	48 8d 95 10 ff ff ff 	lea    -0xf0(%rbp),%rdx
    256f:	48 8d 85 18 ff ff ff 	lea    -0xe8(%rbp),%rax
    2576:	48 89 d6             	mov    %rdx,%rsi
    2579:	48 89 c7             	mov    %rax,%rdi
    257c:	e8 7a 02 00 00       	call   27fb <_ZN9__gnu_cxxneIP17VkLayerPropertiesSt6vectorIS1_SaIS1_EEEEbRKNS_17__normal_iteratorIT_T0_EESB_>
    2581:	84 c0                	test   %al,%al
    2583:	75 9e                	jne    2523 <_Z14protected_mainv+0xba>
  }

  vkh::destroyInstance(instance, nullptr);
    2585:	48 8b 45 e8          	mov    -0x18(%rbp),%rax
    2589:	be 00 00 00 00       	mov    $0x0,%esi
    258e:	48 89 c7             	mov    %rax,%rdi
    2591:	e8 d8 07 00 00       	call   2d6e <_ZN3vkh15destroyInstanceEP12VkInstance_TPK21VkAllocationCallbacks>

  glfwTerminate();
    2596:	e8 65 fc ff ff       	call   2200 <glfwTerminate@plt>
  return EXIT_SUCCESS;
    259b:	bb 00 00 00 00       	mov    $0x0,%ebx
}
    25a0:	48 8d 85 20 ff ff ff 	lea    -0xe0(%rbp),%rax
    25a7:	48 89 c7             	mov    %rax,%rdi
    25aa:	e8 b9 01 00 00       	call   2768 <_ZNSt6vectorI17VkLayerPropertiesSaIS0_EED1Ev>
    25af:	48 8d 85 40 ff ff ff 	lea    -0xc0(%rbp),%rax
    25b6:	48 89 c7             	mov    %rax,%rdi
    25b9:	e8 66 01 00 00       	call   2724 <_ZNSt6vectorIP18VkPhysicalDevice_TSaIS1_EED1Ev>
  return EXIT_SUCCESS;
    25be:	89 d8                	mov    %ebx,%eax
    25c0:	eb 31                	jmp    25f3 <_Z14protected_mainv+0x18a>
}
    25c2:	48 89 c3             	mov    %rax,%rbx
    25c5:	48 8d 85 20 ff ff ff 	lea    -0xe0(%rbp),%rax
    25cc:	48 89 c7             	mov    %rax,%rdi
    25cf:	e8 94 01 00 00       	call   2768 <_ZNSt6vectorI17VkLayerPropertiesSaIS0_EED1Ev>
    25d4:	eb 03                	jmp    25d9 <_Z14protected_mainv+0x170>
    25d6:	48 89 c3             	mov    %rax,%rbx
    25d9:	48 8d 85 40 ff ff ff 	lea    -0xc0(%rbp),%rax
    25e0:	48 89 c7             	mov    %rax,%rdi
    25e3:	e8 3c 01 00 00       	call   2724 <_ZNSt6vectorIP18VkPhysicalDevice_TSaIS1_EED1Ev>
    25e8:	48 89 d8             	mov    %rbx,%rax
    25eb:	48 89 c7             	mov    %rax,%rdi
    25ee:	e8 3d fd ff ff       	call   2330 <_Unwind_Resume@plt>
    25f3:	48 8b 5d f8          	mov    -0x8(%rbp),%rbx
    25f7:	c9                   	leave
    25f8:	c3                   	ret

00000000000025f9 <main>:

int main() {
    25f9:	55                   	push   %rbp
    25fa:	48 89 e5             	mov    %rsp,%rbp
    25fd:	53                   	push   %rbx
    25fe:	48 83 ec 18          	sub    $0x18,%rsp
  try {
    return protected_main();
    2602:	e8 62 fe ff ff       	call   2469 <_Z14protected_mainv>
    2607:	e9 aa 00 00 00       	jmp    26b6 <main+0xbd>
  } catch (const std::exception &e) {
    std::cerr << e.what() << '\n';
  } catch (...) {
    std::cerr << "Uncaught exception.\n";
  }
  return EXIT_FAILURE;
    260c:	b8 01 00 00 00       	mov    $0x1,%eax
    2611:	e9 a0 00 00 00       	jmp    26b6 <main+0xbd>
  } catch (const std::exception &e) {
    2616:	48 83 fa 01          	cmp    $0x1,%rdx
    261a:	75 49                	jne    2665 <main+0x6c>
    261c:	48 89 c7             	mov    %rax,%rdi
    261f:	e8 6c fa ff ff       	call   2090 <__cxa_begin_catch@plt>
    2624:	48 89 45 e8          	mov    %rax,-0x18(%rbp)
    std::cerr << e.what() << '\n';
    2628:	48 8b 45 e8          	mov    -0x18(%rbp),%rax
    262c:	48 8b 00             	mov    (%rax),%rax
    262f:	48 83 c0 10          	add    $0x10,%rax
    2633:	48 8b 10             	mov    (%rax),%rdx
    2636:	48 8b 45 e8          	mov    -0x18(%rbp),%rax
    263a:	48 89 c7             	mov    %rax,%rdi
    263d:	ff d2                	call   *%rdx
    263f:	48 89 c6             	mov    %rax,%rsi
    2642:	48 8d 05 97 9c 00 00 	lea    0x9c97(%rip),%rax        # c2e0 <_ZSt4cerr@GLIBCXX_3.4>
    2649:	48 89 c7             	mov    %rax,%rdi
    264c:	e8 6f fb ff ff       	call   21c0 <_ZStlsISt11char_traitsIcEERSt13basic_ostreamIcT_ES5_PKc@plt>
    2651:	be 0a 00 00 00       	mov    $0xa,%esi
    2656:	48 89 c7             	mov    %rax,%rdi
    2659:	e8 12 fc ff ff       	call   2270 <_ZStlsISt11char_traitsIcEERSt13basic_ostreamIcT_ES5_c@plt>
  } catch (...) {
    265e:	e8 ad fc ff ff       	call   2310 <__cxa_end_catch@plt>
    2663:	eb a7                	jmp    260c <main+0x13>
    2665:	48 89 c7             	mov    %rax,%rdi
    2668:	e8 23 fa ff ff       	call   2090 <__cxa_begin_catch@plt>
    std::cerr << "Uncaught exception.\n";
    266d:	48 8d 05 7f 3f 00 00 	lea    0x3f7f(%rip),%rax        # 65f3 <_ZL47VK_FORMAT_FEATURE_2_BOX_FILTER_SAMPLED_BIT_QCOM+0x1b>
    2674:	48 89 c6             	mov    %rax,%rsi
    2677:	48 8d 05 62 9c 00 00 	lea    0x9c62(%rip),%rax        # c2e0 <_ZSt4cerr@GLIBCXX_3.4>
    267e:	48 89 c7             	mov    %rax,%rdi
    2681:	e8 3a fb ff ff       	call   21c0 <_ZStlsISt11char_traitsIcEERSt13basic_ostreamIcT_ES5_PKc@plt>
  }
    2686:	e8 85 fc ff ff       	call   2310 <__cxa_end_catch@plt>
    268b:	e9 7c ff ff ff       	jmp    260c <main+0x13>
  } catch (...) {
    2690:	48 89 c3             	mov    %rax,%rbx
    2693:	e8 78 fc ff ff       	call   2310 <__cxa_end_catch@plt>
    2698:	48 89 d8             	mov    %rbx,%rax
    269b:	48 89 c7             	mov    %rax,%rdi
    269e:	e8 8d fc ff ff       	call   2330 <_Unwind_Resume@plt>
  }
    26a3:	48 89 c3             	mov    %rax,%rbx
    26a6:	e8 65 fc ff ff       	call   2310 <__cxa_end_catch@plt>
    26ab:	48 89 d8             	mov    %rbx,%rax
    26ae:	48 89 c7             	mov    %rax,%rdi
    26b1:	e8 7a fc ff ff       	call   2330 <_Unwind_Resume@plt>
    26b6:	48 8b 5d f8          	mov    -0x8(%rbp),%rbx
    26ba:	c9                   	leave
    26bb:	c3                   	ret

00000000000026bc <_Z41__static_initialization_and_destruction_0ii>:
    26bc:	55                   	push   %rbp
    26bd:	48 89 e5             	mov    %rsp,%rbp
    26c0:	48 83 ec 10          	sub    $0x10,%rsp
    26c4:	89 7d fc             	mov    %edi,-0x4(%rbp)
    26c7:	89 75 f8             	mov    %esi,-0x8(%rbp)
    26ca:	83 7d fc 01          	cmpl   $0x1,-0x4(%rbp)
    26ce:	75 3b                	jne    270b <_Z41__static_initialization_and_destruction_0ii+0x4f>
    26d0:	81 7d f8 ff ff 00 00 	cmpl   $0xffff,-0x8(%rbp)
    26d7:	75 32                	jne    270b <_Z41__static_initialization_and_destruction_0ii+0x4f>
  extern wostream wclog;	/// Linked to standard error (buffered)
#endif
  ///@}

  // For construction of filebuffers for cout, cin, cerr, clog et. al.
  static ios_base::Init __ioinit;
    26d9:	48 8d 05 11 9d 00 00 	lea    0x9d11(%rip),%rax        # c3f1 <_ZStL8__ioinit>
    26e0:	48 89 c7             	mov    %rax,%rdi
    26e3:	e8 08 fc ff ff       	call   22f0 <_ZNSt8ios_base4InitC1Ev@plt>
    26e8:	48 8d 05 b9 9a 00 00 	lea    0x9ab9(%rip),%rax        # c1a8 <__dso_handle>
    26ef:	48 89 c2             	mov    %rax,%rdx
    26f2:	48 8d 05 f8 9c 00 00 	lea    0x9cf8(%rip),%rax        # c3f1 <_ZStL8__ioinit>
    26f9:	48 89 c6             	mov    %rax,%rsi
    26fc:	48 8b 05 c5 98 00 00 	mov    0x98c5(%rip),%rax        # bfc8 <_ZNSt8ios_base4InitD1Ev@GLIBCXX_3.4>
    2703:	48 89 c7             	mov    %rax,%rdi
    2706:	e8 95 fa ff ff       	call   21a0 <__cxa_atexit@plt>
    270b:	90                   	nop
    270c:	c9                   	leave
    270d:	c3                   	ret

000000000000270e <_GLOBAL__sub_I__Z14protected_mainv>:
    270e:	55                   	push   %rbp
    270f:	48 89 e5             	mov    %rsp,%rbp
    2712:	be ff ff 00 00       	mov    $0xffff,%esi
    2717:	bf 01 00 00 00       	mov    $0x1,%edi
    271c:	e8 9b ff ff ff       	call   26bc <_Z41__static_initialization_and_destruction_0ii>
    2721:	5d                   	pop    %rbp
    2722:	c3                   	ret
    2723:	90                   	nop

0000000000002724 <_ZNSt6vectorIP18VkPhysicalDevice_TSaIS1_EED1Ev>:
       *  elements themselves are pointers, the pointed-to memory is
       *  not touched in any way.  Managing the pointer is the user's
       *  responsibility.
       */
      _GLIBCXX20_CONSTEXPR
      ~vector() _GLIBCXX_NOEXCEPT
    2724:	55                   	push   %rbp
    2725:	48 89 e5             	mov    %rsp,%rbp
    2728:	48 83 ec 10          	sub    $0x10,%rsp
    272c:	48 89 7d f8          	mov    %rdi,-0x8(%rbp)
      {
	std::_Destroy(this->_M_impl._M_start, this->_M_impl._M_finish,
		      _M_get_Tp_allocator());
    2730:	48 8b 45 f8          	mov    -0x8(%rbp),%rax
    2734:	48 89 c7             	mov    %rax,%rdi
    2737:	e8 9a 01 00 00       	call   28d6 <_ZNSt12_Vector_baseIP18VkPhysicalDevice_TSaIS1_EE19_M_get_Tp_allocatorEv>
    273c:	48 89 c2             	mov    %rax,%rdx
	std::_Destroy(this->_M_impl._M_start, this->_M_impl._M_finish,
    273f:	48 8b 45 f8          	mov    -0x8(%rbp),%rax
    2743:	48 8b 48 08          	mov    0x8(%rax),%rcx
    2747:	48 8b 45 f8          	mov    -0x8(%rbp),%rax
    274b:	48 8b 00             	mov    (%rax),%rax
    274e:	48 89 ce             	mov    %rcx,%rsi
    2751:	48 89 c7             	mov    %rax,%rdi
    2754:	e8 8b 01 00 00       	call   28e4 <_ZSt8_DestroyIPP18VkPhysicalDevice_TS1_EvT_S3_RSaIT0_E>
	_GLIBCXX_ASAN_ANNOTATE_BEFORE_DEALLOC;
      }
    2759:	48 8b 45 f8          	mov    -0x8(%rbp),%rax
    275d:	48 89 c7             	mov    %rax,%rdi
    2760:	e8 23 01 00 00       	call   2888 <_ZNSt12_Vector_baseIP18VkPhysicalDevice_TSaIS1_EED1Ev>
    2765:	90                   	nop
    2766:	c9                   	leave
    2767:	c3                   	ret

0000000000002768 <_ZNSt6vectorI17VkLayerPropertiesSaIS0_EED1Ev>:
      ~vector() _GLIBCXX_NOEXCEPT
    2768:	55                   	push   %rbp
    2769:	48 89 e5             	mov    %rsp,%rbp
    276c:	48 83 ec 10          	sub    $0x10,%rsp
    2770:	48 89 7d f8          	mov    %rdi,-0x8(%rbp)
		      _M_get_Tp_allocator());
    2774:	48 8b 45 f8          	mov    -0x8(%rbp),%rax
    2778:	48 89 c7             	mov    %rax,%rdi
    277b:	e8 02 02 00 00       	call   2982 <_ZNSt12_Vector_baseI17VkLayerPropertiesSaIS0_EE19_M_get_Tp_allocatorEv>
    2780:	48 89 c2             	mov    %rax,%rdx
	std::_Destroy(this->_M_impl._M_start, this->_M_impl._M_finish,
    2783:	48 8b 45 f8          	mov    -0x8(%rbp),%rax
    2787:	48 8b 48 08          	mov    0x8(%rax),%rcx
    278b:	48 8b 45 f8          	mov    -0x8(%rbp),%rax
    278f:	48 8b 00             	mov    (%rax),%rax
    2792:	48 89 ce             	mov    %rcx,%rsi
    2795:	48 89 c7             	mov    %rax,%rdi
    2798:	e8 f3 01 00 00       	call   2990 <_ZSt8_DestroyIP17VkLayerPropertiesS0_EvT_S2_RSaIT0_E>
      }
    279d:	48 8b 45 f8          	mov    -0x8(%rbp),%rax
    27a1:	48 89 c7             	mov    %rax,%rdi
    27a4:	e8 81 01 00 00       	call   292a <_ZNSt12_Vector_baseI17VkLayerPropertiesSaIS0_EED1Ev>
    27a9:	90                   	nop
    27aa:	c9                   	leave
    27ab:	c3                   	ret

00000000000027ac <_ZNSt6vectorI17VkLayerPropertiesSaIS0_EE5beginEv>:
       *  element in the %vector.  Iteration is done in ordinary
       *  element order.
       */
      _GLIBCXX_NODISCARD _GLIBCXX20_CONSTEXPR
      iterator
      begin() _GLIBCXX_NOEXCEPT
    27ac:	55                   	push   %rbp
    27ad:	48 89 e5             	mov    %rsp,%rbp
    27b0:	48 83 ec 20          	sub    $0x20,%rsp
    27b4:	48 89 7d e8          	mov    %rdi,-0x18(%rbp)
      { return iterator(this->_M_impl._M_start); }
    27b8:	48 8b 55 e8          	mov    -0x18(%rbp),%rdx
    27bc:	48 8d 45 f8          	lea    -0x8(%rbp),%rax
    27c0:	48 89 d6             	mov    %rdx,%rsi
    27c3:	48 89 c7             	mov    %rax,%rdi
    27c6:	e8 ef 01 00 00       	call   29ba <_ZN9__gnu_cxx17__normal_iteratorIP17VkLayerPropertiesSt6vectorIS1_SaIS1_EEEC1ERKS2_>
    27cb:	48 8b 45 f8          	mov    -0x8(%rbp),%rax
    27cf:	c9                   	leave
    27d0:	c3                   	ret
    27d1:	90                   	nop

00000000000027d2 <_ZNSt6vectorI17VkLayerPropertiesSaIS0_EE3endEv>:
       *  element in the %vector.  Iteration is done in ordinary
       *  element order.
       */
      _GLIBCXX_NODISCARD _GLIBCXX20_CONSTEXPR
      iterator
      end() _GLIBCXX_NOEXCEPT
    27d2:	55                   	push   %rbp
    27d3:	48 89 e5             	mov    %rsp,%rbp
    27d6:	48 83 ec 20          	sub    $0x20,%rsp
    27da:	48 89 7d e8          	mov    %rdi,-0x18(%rbp)
      { return iterator(this->_M_impl._M_finish); }
    27de:	48 8b 45 e8          	mov    -0x18(%rbp),%rax
    27e2:	48 8d 50 08          	lea    0x8(%rax),%rdx
    27e6:	48 8d 45 f8          	lea    -0x8(%rbp),%rax
    27ea:	48 89 d6             	mov    %rdx,%rsi
    27ed:	48 89 c7             	mov    %rax,%rdi
    27f0:	e8 c5 01 00 00       	call   29ba <_ZN9__gnu_cxx17__normal_iteratorIP17VkLayerPropertiesSt6vectorIS1_SaIS1_EEEC1ERKS2_>
    27f5:	48 8b 45 f8          	mov    -0x8(%rbp),%rax
    27f9:	c9                   	leave
    27fa:	c3                   	ret

00000000000027fb <_ZN9__gnu_cxxneIP17VkLayerPropertiesSt6vectorIS1_SaIS1_EEEEbRKNS_17__normal_iteratorIT_T0_EESB_>:
    { return __lhs.base() != __rhs.base(); }

  template<typename _Iterator, typename _Container>
    _GLIBCXX_NODISCARD _GLIBCXX20_CONSTEXPR
    inline bool
    operator!=(const __normal_iterator<_Iterator, _Container>& __lhs,
    27fb:	55                   	push   %rbp
    27fc:	48 89 e5             	mov    %rsp,%rbp
    27ff:	53                   	push   %rbx
    2800:	48 83 ec 18          	sub    $0x18,%rsp
    2804:	48 89 7d e8          	mov    %rdi,-0x18(%rbp)
    2808:	48 89 75 e0          	mov    %rsi,-0x20(%rbp)
	       const __normal_iterator<_Iterator, _Container>& __rhs)
    _GLIBCXX_NOEXCEPT
    { return __lhs.base() != __rhs.base(); }
    280c:	48 8b 45 e8          	mov    -0x18(%rbp),%rax
    2810:	48 89 c7             	mov    %rax,%rdi
    2813:	e8 c0 01 00 00       	call   29d8 <_ZNK9__gnu_cxx17__normal_iteratorIP17VkLayerPropertiesSt6vectorIS1_SaIS1_EEE4baseEv>
    2818:	48 8b 18             	mov    (%rax),%rbx
    281b:	48 8b 45 e0          	mov    -0x20(%rbp),%rax
    281f:	48 89 c7             	mov    %rax,%rdi
    2822:	e8 b1 01 00 00       	call   29d8 <_ZNK9__gnu_cxx17__normal_iteratorIP17VkLayerPropertiesSt6vectorIS1_SaIS1_EEE4baseEv>
    2827:	48 8b 00             	mov    (%rax),%rax
    282a:	48 39 c3             	cmp    %rax,%rbx
    282d:	0f 95 c0             	setne  %al
    2830:	48 8b 5d f8          	mov    -0x8(%rbp),%rbx
    2834:	c9                   	leave
    2835:	c3                   	ret

0000000000002836 <_ZN9__gnu_cxx17__normal_iteratorIP17VkLayerPropertiesSt6vectorIS1_SaIS1_EEEppEv>:
      operator++() _GLIBCXX_NOEXCEPT
    2836:	55                   	push   %rbp
    2837:	48 89 e5             	mov    %rsp,%rbp
    283a:	48 89 7d f8          	mov    %rdi,-0x8(%rbp)
	++_M_current;
    283e:	48 8b 45 f8          	mov    -0x8(%rbp),%rax
    2842:	48 8b 00             	mov    (%rax),%rax
    2845:	48 8d 90 08 02 00 00 	lea    0x208(%rax),%rdx
    284c:	48 8b 45 f8          	mov    -0x8(%rbp),%rax
    2850:	48 89 10             	mov    %rdx,(%rax)
	return *this;
    2853:	48 8b 45 f8          	mov    -0x8(%rbp),%rax
      }
    2857:	5d                   	pop    %rbp
    2858:	c3                   	ret
    2859:	90                   	nop

000000000000285a <_ZNK9__gnu_cxx17__normal_iteratorIP17VkLayerPropertiesSt6vectorIS1_SaIS1_EEEdeEv>:
      operator*() const _GLIBCXX_NOEXCEPT
    285a:	55                   	push   %rbp
    285b:	48 89 e5             	mov    %rsp,%rbp
    285e:	48 89 7d f8          	mov    %rdi,-0x8(%rbp)
      { return *_M_current; }
    2862:	48 8b 45 f8          	mov    -0x8(%rbp),%rax
    2866:	48 8b 00             	mov    (%rax),%rax
    2869:	5d                   	pop    %rbp
    286a:	c3                   	ret
    286b:	90                   	nop

000000000000286c <_ZNSt12_Vector_baseIP18VkPhysicalDevice_TSaIS1_EE12_Vector_implD1Ev>:
      struct _Vector_impl
    286c:	55                   	push   %rbp
    286d:	48 89 e5             	mov    %rsp,%rbp
    2870:	48 83 ec 10          	sub    $0x10,%rsp
    2874:	48 89 7d f8          	mov    %rdi,-0x8(%rbp)
    2878:	48 8b 45 f8          	mov    -0x8(%rbp),%rax
    287c:	48 89 c7             	mov    %rax,%rdi
    287f:	e8 62 01 00 00       	call   29e6 <_ZNSaIP18VkPhysicalDevice_TED1Ev>
    2884:	90                   	nop
    2885:	c9                   	leave
    2886:	c3                   	ret
    2887:	90                   	nop

0000000000002888 <_ZNSt12_Vector_baseIP18VkPhysicalDevice_TSaIS1_EED1Ev>:
      ~_Vector_base() _GLIBCXX_NOEXCEPT
    2888:	55                   	push   %rbp
    2889:	48 89 e5             	mov    %rsp,%rbp
    288c:	48 83 ec 10          	sub    $0x10,%rsp
    2890:	48 89 7d f8          	mov    %rdi,-0x8(%rbp)
		      _M_impl._M_end_of_storage - _M_impl._M_start);
    2894:	48 8b 45 f8          	mov    -0x8(%rbp),%rax
    2898:	48 8b 50 10          	mov    0x10(%rax),%rdx
    289c:	48 8b 45 f8          	mov    -0x8(%rbp),%rax
    28a0:	48 8b 00             	mov    (%rax),%rax
    28a3:	48 29 c2             	sub    %rax,%rdx
    28a6:	48 89 d0             	mov    %rdx,%rax
    28a9:	48 c1 f8 03          	sar    $0x3,%rax
	_M_deallocate(_M_impl._M_start,
    28ad:	48 89 c2             	mov    %rax,%rdx
    28b0:	48 8b 45 f8          	mov    -0x8(%rbp),%rax
    28b4:	48 8b 08             	mov    (%rax),%rcx
    28b7:	48 8b 45 f8          	mov    -0x8(%rbp),%rax
    28bb:	48 89 ce             	mov    %rcx,%rsi
    28be:	48 89 c7             	mov    %rax,%rdi
    28c1:	e8 3c 01 00 00       	call   2a02 <_ZNSt12_Vector_baseIP18VkPhysicalDevice_TSaIS1_EE13_M_deallocateEPS1_m>
      }
    28c6:	48 8b 45 f8          	mov    -0x8(%rbp),%rax
    28ca:	48 89 c7             	mov    %rax,%rdi
    28cd:	e8 9a ff ff ff       	call   286c <_ZNSt12_Vector_baseIP18VkPhysicalDevice_TSaIS1_EE12_Vector_implD1Ev>
    28d2:	90                   	nop
    28d3:	c9                   	leave
    28d4:	c3                   	ret
    28d5:	90                   	nop

00000000000028d6 <_ZNSt12_Vector_baseIP18VkPhysicalDevice_TSaIS1_EE19_M_get_Tp_allocatorEv>:
      _M_get_Tp_allocator() _GLIBCXX_NOEXCEPT
    28d6:	55                   	push   %rbp
    28d7:	48 89 e5             	mov    %rsp,%rbp
    28da:	48 89 7d f8          	mov    %rdi,-0x8(%rbp)
      { return this->_M_impl; }
    28de:	48 8b 45 f8          	mov    -0x8(%rbp),%rax
    28e2:	5d                   	pop    %rbp
    28e3:	c3                   	ret

00000000000028e4 <_ZSt8_DestroyIPP18VkPhysicalDevice_TS1_EvT_S3_RSaIT0_E>:
    }

  template<typename _ForwardIterator, typename _Tp>
    _GLIBCXX20_CONSTEXPR
    inline void
    _Destroy(_ForwardIterator __first, _ForwardIterator __last,
    28e4:	55                   	push   %rbp
    28e5:	48 89 e5             	mov    %rsp,%rbp
    28e8:	48 83 ec 20          	sub    $0x20,%rsp
    28ec:	48 89 7d f8          	mov    %rdi,-0x8(%rbp)
    28f0:	48 89 75 f0          	mov    %rsi,-0x10(%rbp)
    28f4:	48 89 55 e8          	mov    %rdx,-0x18(%rbp)
	     allocator<_Tp>&)
    {
      _Destroy(__first, __last);
    28f8:	48 8b 55 f0          	mov    -0x10(%rbp),%rdx
    28fc:	48 8b 45 f8          	mov    -0x8(%rbp),%rax
    2900:	48 89 d6             	mov    %rdx,%rsi
    2903:	48 89 c7             	mov    %rax,%rdi
    2906:	e8 2c 01 00 00       	call   2a37 <_ZSt8_DestroyIPP18VkPhysicalDevice_TEvT_S3_>
    }
    290b:	90                   	nop
    290c:	c9                   	leave
    290d:	c3                   	ret

000000000000290e <_ZNSt12_Vector_baseI17VkLayerPropertiesSaIS0_EE12_Vector_implD1Ev>:
      struct _Vector_impl
    290e:	55                   	push   %rbp
    290f:	48 89 e5             	mov    %rsp,%rbp
    2912:	48 83 ec 10          	sub    $0x10,%rsp
    2916:	48 89 7d f8          	mov    %rdi,-0x8(%rbp)
    291a:	48 8b 45 f8          	mov    -0x8(%rbp),%rax
    291e:	48 89 c7             	mov    %rax,%rdi
    2921:	e8 38 01 00 00       	call   2a5e <_ZNSaI17VkLayerPropertiesED1Ev>
    2926:	90                   	nop
    2927:	c9                   	leave
    2928:	c3                   	ret
    2929:	90                   	nop

000000000000292a <_ZNSt12_Vector_baseI17VkLayerPropertiesSaIS0_EED1Ev>:
      ~_Vector_base() _GLIBCXX_NOEXCEPT
    292a:	55                   	push   %rbp
    292b:	48 89 e5             	mov    %rsp,%rbp
    292e:	48 83 ec 10          	sub    $0x10,%rsp
    2932:	48 89 7d f8          	mov    %rdi,-0x8(%rbp)
		      _M_impl._M_end_of_storage - _M_impl._M_start);
    2936:	48 8b 45 f8          	mov    -0x8(%rbp),%rax
    293a:	48 8b 50 10          	mov    0x10(%rax),%rdx
    293e:	48 8b 45 f8          	mov    -0x8(%rbp),%rax
    2942:	48 8b 00             	mov    (%rax),%rax
    2945:	48 29 c2             	sub    %rax,%rdx
    2948:	48 c1 fa 03          	sar    $0x3,%rdx
    294c:	48 b8 c1 0f fc c0 0f 	movabs $0xfc0fc0fc0fc0fc1,%rax
    2953:	fc c0 0f 
    2956:	48 0f af c2          	imul   %rdx,%rax
	_M_deallocate(_M_impl._M_start,
    295a:	48 89 c2             	mov    %rax,%rdx
    295d:	48 8b 45 f8          	mov    -0x8(%rbp),%rax
    2961:	48 8b 08             	mov    (%rax),%rcx
    2964:	48 8b 45 f8          	mov    -0x8(%rbp),%rax
    2968:	48 89 ce             	mov    %rcx,%rsi
    296b:	48 89 c7             	mov    %rax,%rdi
    296e:	e8 07 01 00 00       	call   2a7a <_ZNSt12_Vector_baseI17VkLayerPropertiesSaIS0_EE13_M_deallocateEPS0_m>
      }
    2973:	48 8b 45 f8          	mov    -0x8(%rbp),%rax
    2977:	48 89 c7             	mov    %rax,%rdi
    297a:	e8 8f ff ff ff       	call   290e <_ZNSt12_Vector_baseI17VkLayerPropertiesSaIS0_EE12_Vector_implD1Ev>
    297f:	90                   	nop
    2980:	c9                   	leave
    2981:	c3                   	ret

0000000000002982 <_ZNSt12_Vector_baseI17VkLayerPropertiesSaIS0_EE19_M_get_Tp_allocatorEv>:
      _M_get_Tp_allocator() _GLIBCXX_NOEXCEPT
    2982:	55                   	push   %rbp
    2983:	48 89 e5             	mov    %rsp,%rbp
    2986:	48 89 7d f8          	mov    %rdi,-0x8(%rbp)
      { return this->_M_impl; }
    298a:	48 8b 45 f8          	mov    -0x8(%rbp),%rax
    298e:	5d                   	pop    %rbp
    298f:	c3                   	ret

0000000000002990 <_ZSt8_DestroyIP17VkLayerPropertiesS0_EvT_S2_RSaIT0_E>:
    _Destroy(_ForwardIterator __first, _ForwardIterator __last,
    2990:	55                   	push   %rbp
    2991:	48 89 e5             	mov    %rsp,%rbp
    2994:	48 83 ec 20          	sub    $0x20,%rsp
    2998:	48 89 7d f8          	mov    %rdi,-0x8(%rbp)
    299c:	48 89 75 f0          	mov    %rsi,-0x10(%rbp)
    29a0:	48 89 55 e8          	mov    %rdx,-0x18(%rbp)
      _Destroy(__first, __last);
    29a4:	48 8b 55 f0          	mov    -0x10(%rbp),%rdx
    29a8:	48 8b 45 f8          	mov    -0x8(%rbp),%rax
    29ac:	48 89 d6             	mov    %rdx,%rsi
    29af:	48 89 c7             	mov    %rax,%rdi
    29b2:	e8 f8 00 00 00       	call   2aaf <_ZSt8_DestroyIP17VkLayerPropertiesEvT_S2_>
    }
    29b7:	90                   	nop
    29b8:	c9                   	leave
    29b9:	c3                   	ret

00000000000029ba <_ZN9__gnu_cxx17__normal_iteratorIP17VkLayerPropertiesSt6vectorIS1_SaIS1_EEEC1ERKS2_>:
      __normal_iterator(const _Iterator& __i) _GLIBCXX_NOEXCEPT
    29ba:	55                   	push   %rbp
    29bb:	48 89 e5             	mov    %rsp,%rbp
    29be:	48 89 7d f8          	mov    %rdi,-0x8(%rbp)
    29c2:	48 89 75 f0          	mov    %rsi,-0x10(%rbp)
      : _M_current(__i) { }
    29c6:	48 8b 45 f0          	mov    -0x10(%rbp),%rax
    29ca:	48 8b 10             	mov    (%rax),%rdx
    29cd:	48 8b 45 f8          	mov    -0x8(%rbp),%rax
    29d1:	48 89 10             	mov    %rdx,(%rax)
    29d4:	90                   	nop
    29d5:	5d                   	pop    %rbp
    29d6:	c3                   	ret
    29d7:	90                   	nop

00000000000029d8 <_ZNK9__gnu_cxx17__normal_iteratorIP17VkLayerPropertiesSt6vectorIS1_SaIS1_EEE4baseEv>:
      base() const _GLIBCXX_NOEXCEPT
    29d8:	55                   	push   %rbp
    29d9:	48 89 e5             	mov    %rsp,%rbp
    29dc:	48 89 7d f8          	mov    %rdi,-0x8(%rbp)
      { return _M_current; }
    29e0:	48 8b 45 f8          	mov    -0x8(%rbp),%rax
    29e4:	5d                   	pop    %rbp
    29e5:	c3                   	ret

00000000000029e6 <_ZNSaIP18VkPhysicalDevice_TED1Ev>:
	allocator(const allocator<_Tp1>&) _GLIBCXX_NOTHROW { }

#if __cpp_constexpr_dynamic_alloc
      constexpr
#endif
      ~allocator() _GLIBCXX_NOTHROW { }
    29e6:	55                   	push   %rbp
    29e7:	48 89 e5             	mov    %rsp,%rbp
    29ea:	48 83 ec 10          	sub    $0x10,%rsp
    29ee:	48 89 7d f8          	mov    %rdi,-0x8(%rbp)
    29f2:	48 8b 45 f8          	mov    -0x8(%rbp),%rax
    29f6:	48 89 c7             	mov    %rax,%rdi
    29f9:	e8 d8 00 00 00       	call   2ad6 <_ZNSt15__new_allocatorIP18VkPhysicalDevice_TED1Ev>
    29fe:	90                   	nop
    29ff:	c9                   	leave
    2a00:	c3                   	ret
    2a01:	90                   	nop

0000000000002a02 <_ZNSt12_Vector_baseIP18VkPhysicalDevice_TSaIS1_EE13_M_deallocateEPS1_m>:
      _M_deallocate(pointer __p, size_t __n)
    2a02:	55                   	push   %rbp
    2a03:	48 89 e5             	mov    %rsp,%rbp
    2a06:	48 83 ec 20          	sub    $0x20,%rsp
    2a0a:	48 89 7d f8          	mov    %rdi,-0x8(%rbp)
    2a0e:	48 89 75 f0          	mov    %rsi,-0x10(%rbp)
    2a12:	48 89 55 e8          	mov    %rdx,-0x18(%rbp)
	if (__p)
    2a16:	48 83 7d f0 00       	cmpq   $0x0,-0x10(%rbp)
    2a1b:	74 17                	je     2a34 <_ZNSt12_Vector_baseIP18VkPhysicalDevice_TSaIS1_EE13_M_deallocateEPS1_m+0x32>
	  _Tr::deallocate(_M_impl, __p, __n);
    2a1d:	48 8b 45 f8          	mov    -0x8(%rbp),%rax
    2a21:	48 8b 55 e8          	mov    -0x18(%rbp),%rdx
    2a25:	48 8b 4d f0          	mov    -0x10(%rbp),%rcx
    2a29:	48 89 ce             	mov    %rcx,%rsi
    2a2c:	48 89 c7             	mov    %rax,%rdi
    2a2f:	e8 ad 00 00 00       	call   2ae1 <_ZNSt16allocator_traitsISaIP18VkPhysicalDevice_TEE10deallocateERS2_PS1_m>
      }
    2a34:	90                   	nop
    2a35:	c9                   	leave
    2a36:	c3                   	ret

0000000000002a37 <_ZSt8_DestroyIPP18VkPhysicalDevice_TEvT_S3_>:
   * a trivial destructor, the compiler should optimize all of this
   * away, otherwise the objects' destructors must be invoked.
   */
  template<typename _ForwardIterator>
    _GLIBCXX20_CONSTEXPR inline void
    _Destroy(_ForwardIterator __first, _ForwardIterator __last)
    2a37:	55                   	push   %rbp
    2a38:	48 89 e5             	mov    %rsp,%rbp
    2a3b:	48 83 ec 10          	sub    $0x10,%rsp
    2a3f:	48 89 7d f8          	mov    %rdi,-0x8(%rbp)
    2a43:	48 89 75 f0          	mov    %rsi,-0x10(%rbp)
#if __cplusplus >= 202002L
      if (std::__is_constant_evaluated())
	return _Destroy_aux<false>::__destroy(__first, __last);
#endif
      std::_Destroy_aux<__has_trivial_destructor(_Value_type)>::
	__destroy(__first, __last);
    2a47:	48 8b 55 f0          	mov    -0x10(%rbp),%rdx
    2a4b:	48 8b 45 f8          	mov    -0x8(%rbp),%rax
    2a4f:	48 89 d6             	mov    %rdx,%rsi
    2a52:	48 89 c7             	mov    %rax,%rdi
    2a55:	e8 b5 00 00 00       	call   2b0f <_ZNSt12_Destroy_auxILb1EE9__destroyIPP18VkPhysicalDevice_TEEvT_S5_>
    }
    2a5a:	90                   	nop
    2a5b:	c9                   	leave
    2a5c:	c3                   	ret
    2a5d:	90                   	nop

0000000000002a5e <_ZNSaI17VkLayerPropertiesED1Ev>:
    2a5e:	55                   	push   %rbp
    2a5f:	48 89 e5             	mov    %rsp,%rbp
    2a62:	48 83 ec 10          	sub    $0x10,%rsp
    2a66:	48 89 7d f8          	mov    %rdi,-0x8(%rbp)
    2a6a:	48 8b 45 f8          	mov    -0x8(%rbp),%rax
    2a6e:	48 89 c7             	mov    %rax,%rdi
    2a71:	e8 a8 00 00 00       	call   2b1e <_ZNSt15__new_allocatorI17VkLayerPropertiesED1Ev>
    2a76:	90                   	nop
    2a77:	c9                   	leave
    2a78:	c3                   	ret
    2a79:	90                   	nop

0000000000002a7a <_ZNSt12_Vector_baseI17VkLayerPropertiesSaIS0_EE13_M_deallocateEPS0_m>:
      _M_deallocate(pointer __p, size_t __n)
    2a7a:	55                   	push   %rbp
    2a7b:	48 89 e5             	mov    %rsp,%rbp
    2a7e:	48 83 ec 20          	sub    $0x20,%rsp
    2a82:	48 89 7d f8          	mov    %rdi,-0x8(%rbp)
    2a86:	48 89 75 f0          	mov    %rsi,-0x10(%rbp)
    2a8a:	48 89 55 e8          	mov    %rdx,-0x18(%rbp)
	if (__p)
    2a8e:	48 83 7d f0 00       	cmpq   $0x0,-0x10(%rbp)
    2a93:	74 17                	je     2aac <_ZNSt12_Vector_baseI17VkLayerPropertiesSaIS0_EE13_M_deallocateEPS0_m+0x32>
	  _Tr::deallocate(_M_impl, __p, __n);
    2a95:	48 8b 45 f8          	mov    -0x8(%rbp),%rax
    2a99:	48 8b 55 e8          	mov    -0x18(%rbp),%rdx
    2a9d:	48 8b 4d f0          	mov    -0x10(%rbp),%rcx
    2aa1:	48 89 ce             	mov    %rcx,%rsi
    2aa4:	48 89 c7             	mov    %rax,%rdi
    2aa7:	e8 7d 00 00 00       	call   2b29 <_ZNSt16allocator_traitsISaI17VkLayerPropertiesEE10deallocateERS1_PS0_m>
      }
    2aac:	90                   	nop
    2aad:	c9                   	leave
    2aae:	c3                   	ret

0000000000002aaf <_ZSt8_DestroyIP17VkLayerPropertiesEvT_S2_>:
    _Destroy(_ForwardIterator __first, _ForwardIterator __last)
    2aaf:	55                   	push   %rbp
    2ab0:	48 89 e5             	mov    %rsp,%rbp
    2ab3:	48 83 ec 10          	sub    $0x10,%rsp
    2ab7:	48 89 7d f8          	mov    %rdi,-0x8(%rbp)
    2abb:	48 89 75 f0          	mov    %rsi,-0x10(%rbp)
	__destroy(__first, __last);
    2abf:	48 8b 55 f0          	mov    -0x10(%rbp),%rdx
    2ac3:	48 8b 45 f8          	mov    -0x8(%rbp),%rax
    2ac7:	48 89 d6             	mov    %rdx,%rsi
    2aca:	48 89 c7             	mov    %rax,%rdi
    2acd:	e8 85 00 00 00       	call   2b57 <_ZNSt12_Destroy_auxILb1EE9__destroyIP17VkLayerPropertiesEEvT_S4_>
    }
    2ad2:	90                   	nop
    2ad3:	c9                   	leave
    2ad4:	c3                   	ret
    2ad5:	90                   	nop

0000000000002ad6 <_ZNSt15__new_allocatorIP18VkPhysicalDevice_TED1Ev>:
      template<typename _Tp1>
	_GLIBCXX20_CONSTEXPR
	__new_allocator(const __new_allocator<_Tp1>&) _GLIBCXX_USE_NOEXCEPT { }

#if __cplusplus <= 201703L
      ~__new_allocator() _GLIBCXX_USE_NOEXCEPT { }
    2ad6:	55                   	push   %rbp
    2ad7:	48 89 e5             	mov    %rsp,%rbp
    2ada:	48 89 7d f8          	mov    %rdi,-0x8(%rbp)
    2ade:	90                   	nop
    2adf:	5d                   	pop    %rbp
    2ae0:	c3                   	ret

0000000000002ae1 <_ZNSt16allocator_traitsISaIP18VkPhysicalDevice_TEE10deallocateERS2_PS1_m>:
      deallocate(allocator_type& __a, pointer __p, size_type __n)
    2ae1:	55                   	push   %rbp
    2ae2:	48 89 e5             	mov    %rsp,%rbp
    2ae5:	48 83 ec 20          	sub    $0x20,%rsp
    2ae9:	48 89 7d f8          	mov    %rdi,-0x8(%rbp)
    2aed:	48 89 75 f0          	mov    %rsi,-0x10(%rbp)
    2af1:	48 89 55 e8          	mov    %rdx,-0x18(%rbp)
      { __a.deallocate(__p, __n); }
    2af5:	48 8b 55 e8          	mov    -0x18(%rbp),%rdx
    2af9:	48 8b 4d f0          	mov    -0x10(%rbp),%rcx
    2afd:	48 8b 45 f8          	mov    -0x8(%rbp),%rax
    2b01:	48 89 ce             	mov    %rcx,%rsi
    2b04:	48 89 c7             	mov    %rax,%rdi
    2b07:	e8 5a 00 00 00       	call   2b66 <_ZNSt15__new_allocatorIP18VkPhysicalDevice_TE10deallocateEPS1_m>
    2b0c:	90                   	nop
    2b0d:	c9                   	leave
    2b0e:	c3                   	ret

0000000000002b0f <_ZNSt12_Destroy_auxILb1EE9__destroyIPP18VkPhysicalDevice_TEEvT_S5_>:
        __destroy(_ForwardIterator, _ForwardIterator) { }
    2b0f:	55                   	push   %rbp
    2b10:	48 89 e5             	mov    %rsp,%rbp
    2b13:	48 89 7d f8          	mov    %rdi,-0x8(%rbp)
    2b17:	48 89 75 f0          	mov    %rsi,-0x10(%rbp)
    2b1b:	90                   	nop
    2b1c:	5d                   	pop    %rbp
    2b1d:	c3                   	ret

0000000000002b1e <_ZNSt15__new_allocatorI17VkLayerPropertiesED1Ev>:
    2b1e:	55                   	push   %rbp
    2b1f:	48 89 e5             	mov    %rsp,%rbp
    2b22:	48 89 7d f8          	mov    %rdi,-0x8(%rbp)
    2b26:	90                   	nop
    2b27:	5d                   	pop    %rbp
    2b28:	c3                   	ret

0000000000002b29 <_ZNSt16allocator_traitsISaI17VkLayerPropertiesEE10deallocateERS1_PS0_m>:
      deallocate(allocator_type& __a, pointer __p, size_type __n)
    2b29:	55                   	push   %rbp
    2b2a:	48 89 e5             	mov    %rsp,%rbp
    2b2d:	48 83 ec 20          	sub    $0x20,%rsp
    2b31:	48 89 7d f8          	mov    %rdi,-0x8(%rbp)
    2b35:	48 89 75 f0          	mov    %rsi,-0x10(%rbp)
    2b39:	48 89 55 e8          	mov    %rdx,-0x18(%rbp)
      { __a.deallocate(__p, __n); }
    2b3d:	48 8b 55 e8          	mov    -0x18(%rbp),%rdx
    2b41:	48 8b 4d f0          	mov    -0x10(%rbp),%rcx
    2b45:	48 8b 45 f8          	mov    -0x8(%rbp),%rax
    2b49:	48 89 ce             	mov    %rcx,%rsi
    2b4c:	48 89 c7             	mov    %rax,%rdi
    2b4f:	e8 44 00 00 00       	call   2b98 <_ZNSt15__new_allocatorI17VkLayerPropertiesE10deallocateEPS0_m>
    2b54:	90                   	nop
    2b55:	c9                   	leave
    2b56:	c3                   	ret

0000000000002b57 <_ZNSt12_Destroy_auxILb1EE9__destroyIP17VkLayerPropertiesEEvT_S4_>:
    2b57:	55                   	push   %rbp
    2b58:	48 89 e5             	mov    %rsp,%rbp
    2b5b:	48 89 7d f8          	mov    %rdi,-0x8(%rbp)
    2b5f:	48 89 75 f0          	mov    %rsi,-0x10(%rbp)
    2b63:	90                   	nop
    2b64:	5d                   	pop    %rbp
    2b65:	c3                   	ret

0000000000002b66 <_ZNSt15__new_allocatorIP18VkPhysicalDevice_TE10deallocateEPS1_m>:
	return static_cast<_Tp*>(_GLIBCXX_OPERATOR_NEW(__n * sizeof(_Tp)));
      }

      // __p is not permitted to be a null pointer.
      void
      deallocate(_Tp* __p, size_type __n __attribute__ ((__unused__)))
    2b66:	55                   	push   %rbp
    2b67:	48 89 e5             	mov    %rsp,%rbp
    2b6a:	48 83 ec 20          	sub    $0x20,%rsp
    2b6e:	48 89 7d f8          	mov    %rdi,-0x8(%rbp)
    2b72:	48 89 75 f0          	mov    %rsi,-0x10(%rbp)
    2b76:	48 89 55 e8          	mov    %rdx,-0x18(%rbp)
	    _GLIBCXX_OPERATOR_DELETE(_GLIBCXX_SIZED_DEALLOC(__p, __n),
				     std::align_val_t(alignof(_Tp)));
	    return;
	  }
#endif
	_GLIBCXX_OPERATOR_DELETE(_GLIBCXX_SIZED_DEALLOC(__p, __n));
    2b7a:	48 8b 45 e8          	mov    -0x18(%rbp),%rax
    2b7e:	48 8d 14 c5 00 00 00 	lea    0x0(,%rax,8),%rdx
    2b85:	00 
    2b86:	48 8b 45 f0          	mov    -0x10(%rbp),%rax
    2b8a:	48 89 d6             	mov    %rdx,%rsi
    2b8d:	48 89 c7             	mov    %rax,%rdi
    2b90:	e8 4b f6 ff ff       	call   21e0 <_ZdlPvm@plt>
      }
    2b95:	c9                   	leave
    2b96:	c3                   	ret
    2b97:	90                   	nop

0000000000002b98 <_ZNSt15__new_allocatorI17VkLayerPropertiesE10deallocateEPS0_m>:
      deallocate(_Tp* __p, size_type __n __attribute__ ((__unused__)))
    2b98:	55                   	push   %rbp
    2b99:	48 89 e5             	mov    %rsp,%rbp
    2b9c:	48 83 ec 20          	sub    $0x20,%rsp
    2ba0:	48 89 7d f8          	mov    %rdi,-0x8(%rbp)
    2ba4:	48 89 75 f0          	mov    %rsi,-0x10(%rbp)
    2ba8:	48 89 55 e8          	mov    %rdx,-0x18(%rbp)
	_GLIBCXX_OPERATOR_DELETE(_GLIBCXX_SIZED_DEALLOC(__p, __n));
    2bac:	48 8b 55 e8          	mov    -0x18(%rbp),%rdx
    2bb0:	48 89 d0             	mov    %rdx,%rax
    2bb3:	48 c1 e0 06          	shl    $0x6,%rax
    2bb7:	48 01 d0             	add    %rdx,%rax
    2bba:	48 c1 e0 03          	shl    $0x3,%rax
    2bbe:	48 89 c2             	mov    %rax,%rdx
    2bc1:	48 8b 45 f0          	mov    -0x10(%rbp),%rax
    2bc5:	48 89 d6             	mov    %rdx,%rsi
    2bc8:	48 89 c7             	mov    %rax,%rdi
    2bcb:	e8 10 f6 ff ff       	call   21e0 <_ZdlPvm@plt>
      }
    2bd0:	c9                   	leave
    2bd1:	c3                   	ret

0000000000002bd2 <_ZN3vkh12createWindowEiiPKcP11GLFWmonitorP10GLFWwindow>:
#include "create_object.hpp"

namespace vkh {
GLFWwindow *createWindow(int width, int height, const char *title,
                         GLFWmonitor *monitor, GLFWwindow *share) {
    2bd2:	55                   	push   %rbp
    2bd3:	48 89 e5             	mov    %rsp,%rbp
    2bd6:	48 83 ec 20          	sub    $0x20,%rsp
    2bda:	89 7d fc             	mov    %edi,-0x4(%rbp)
    2bdd:	89 75 f8             	mov    %esi,-0x8(%rbp)
    2be0:	48 89 55 f0          	mov    %rdx,-0x10(%rbp)
    2be4:	48 89 4d e8          	mov    %rcx,-0x18(%rbp)
    2be8:	4c 89 45 e0          	mov    %r8,-0x20(%rbp)
  glfwWindowHint(GLFW_CLIENT_API, GLFW_NO_API);
    2bec:	be 00 00 00 00       	mov    $0x0,%esi
    2bf1:	bf 01 20 02 00       	mov    $0x22001,%edi
    2bf6:	e8 95 f5 ff ff       	call   2190 <glfwWindowHint@plt>
  glfwWindowHint(GLFW_RESIZABLE, GLFW_FALSE);
    2bfb:	be 00 00 00 00       	mov    $0x0,%esi
    2c00:	bf 03 00 02 00       	mov    $0x20003,%edi
    2c05:	e8 86 f5 ff ff       	call   2190 <glfwWindowHint@plt>
  return glfwCreateWindow(width, height, title, monitor, share);
    2c0a:	48 8b 7d e0          	mov    -0x20(%rbp),%rdi
    2c0e:	48 8b 4d e8          	mov    -0x18(%rbp),%rcx
    2c12:	48 8b 55 f0          	mov    -0x10(%rbp),%rdx
    2c16:	8b 75 f8             	mov    -0x8(%rbp),%esi
    2c19:	8b 45 fc             	mov    -0x4(%rbp),%eax
    2c1c:	49 89 f8             	mov    %rdi,%r8
    2c1f:	89 c7                	mov    %eax,%edi
    2c21:	e8 da f6 ff ff       	call   2300 <glfwCreateWindow@plt>
}
    2c26:	c9                   	leave
    2c27:	c3                   	ret

0000000000002c28 <_ZN3vkh14createInstanceEPK20VkInstanceCreateInfoPK21VkAllocationCallbacks>:

VkInstance createInstance(const VkInstanceCreateInfo *pCreateInfo,
                          const VkAllocationCallbacks *pAllocator) {
    2c28:	55                   	push   %rbp
    2c29:	48 89 e5             	mov    %rsp,%rbp
    2c2c:	41 54                	push   %r12
    2c2e:	53                   	push   %rbx
    2c2f:	48 83 ec 20          	sub    $0x20,%rsp
    2c33:	48 89 7d d8          	mov    %rdi,-0x28(%rbp)
    2c37:	48 89 75 d0          	mov    %rsi,-0x30(%rbp)
  VkInstance instance;
  if (vkCreateInstance(pCreateInfo, pAllocator, &instance) != VK_SUCCESS) {
    2c3b:	48 8d 55 e8          	lea    -0x18(%rbp),%rdx
    2c3f:	48 8b 4d d0          	mov    -0x30(%rbp),%rcx
    2c43:	48 8b 45 d8          	mov    -0x28(%rbp),%rax
    2c47:	48 89 ce             	mov    %rcx,%rsi
    2c4a:	48 89 c7             	mov    %rax,%rdi
    2c4d:	e8 2e f6 ff ff       	call   2280 <vkCreateInstance@plt>
    2c52:	85 c0                	test   %eax,%eax
    2c54:	0f 95 c0             	setne  %al
    2c57:	84 c0                	test   %al,%al
    2c59:	74 3b                	je     2c96 <_ZN3vkh14createInstanceEPK20VkInstanceCreateInfoPK21VkAllocationCallbacks+0x6e>
    throw std::runtime_error("Failed to create an instance.");
    2c5b:	bf 10 00 00 00       	mov    $0x10,%edi
    2c60:	e8 5b f4 ff ff       	call   20c0 <__cxa_allocate_exception@plt>
    2c65:	48 89 c3             	mov    %rax,%rbx
    2c68:	48 8d 05 71 3f 00 00 	lea    0x3f71(%rip),%rax        # 6be0 <_ZL47VK_FORMAT_FEATURE_2_BOX_FILTER_SAMPLED_BIT_QCOM+0x8>
    2c6f:	48 89 c6             	mov    %rax,%rsi
    2c72:	48 89 df             	mov    %rbx,%rdi
    2c75:	e8 f6 f3 ff ff       	call   2070 <_ZNSt13runtime_errorC1EPKc@plt>
    2c7a:	48 8b 05 27 93 00 00 	mov    0x9327(%rip),%rax        # bfa8 <_ZNSt13runtime_errorD1Ev@GLIBCXX_3.4>
    2c81:	48 89 c2             	mov    %rax,%rdx
    2c84:	48 8d 05 d5 90 00 00 	lea    0x90d5(%rip),%rax        # bd60 <_ZTISt13runtime_error@GLIBCXX_3.4>
    2c8b:	48 89 c6             	mov    %rax,%rsi
    2c8e:	48 89 df             	mov    %rbx,%rdi
    2c91:	e8 8a f6 ff ff       	call   2320 <__cxa_throw@plt>
  }
  return instance;
    2c96:	48 8b 45 e8          	mov    -0x18(%rbp),%rax
    2c9a:	eb 16                	jmp    2cb2 <_ZN3vkh14createInstanceEPK20VkInstanceCreateInfoPK21VkAllocationCallbacks+0x8a>
    throw std::runtime_error("Failed to create an instance.");
    2c9c:	49 89 c4             	mov    %rax,%r12
    2c9f:	48 89 df             	mov    %rbx,%rdi
    2ca2:	e8 79 f4 ff ff       	call   2120 <__cxa_free_exception@plt>
    2ca7:	4c 89 e0             	mov    %r12,%rax
    2caa:	48 89 c7             	mov    %rax,%rdi
    2cad:	e8 7e f6 ff ff       	call   2330 <_Unwind_Resume@plt>
}
    2cb2:	48 83 c4 20          	add    $0x20,%rsp
    2cb6:	5b                   	pop    %rbx
    2cb7:	41 5c                	pop    %r12
    2cb9:	5d                   	pop    %rbp
    2cba:	c3                   	ret

0000000000002cbb <_ZN3vkh12createDeviceEP18VkPhysicalDevice_TPK18VkDeviceCreateInfoPK21VkAllocationCallbacks>:

VkDevice createDevice(VkPhysicalDevice physicalDevice,
                      const VkDeviceCreateInfo *pCreateInfo,
                      const VkAllocationCallbacks *pAllocator) {
    2cbb:	55                   	push   %rbp
    2cbc:	48 89 e5             	mov    %rsp,%rbp
    2cbf:	41 54                	push   %r12
    2cc1:	53                   	push   %rbx
    2cc2:	48 83 ec 30          	sub    $0x30,%rsp
    2cc6:	48 89 7d d8          	mov    %rdi,-0x28(%rbp)
    2cca:	48 89 75 d0          	mov    %rsi,-0x30(%rbp)
    2cce:	48 89 55 c8          	mov    %rdx,-0x38(%rbp)
  VkDevice device;
  if (vkCreateDevice(physicalDevice, pCreateInfo, pAllocator, &device) !=
    2cd2:	48 8d 4d e8          	lea    -0x18(%rbp),%rcx
    2cd6:	48 8b 55 c8          	mov    -0x38(%rbp),%rdx
    2cda:	48 8b 75 d0          	mov    -0x30(%rbp),%rsi
    2cde:	48 8b 45 d8          	mov    -0x28(%rbp),%rax
    2ce2:	48 89 c7             	mov    %rax,%rdi
    2ce5:	e8 f6 f5 ff ff       	call   22e0 <vkCreateDevice@plt>
    2cea:	85 c0                	test   %eax,%eax
    2cec:	0f 95 c0             	setne  %al
    2cef:	84 c0                	test   %al,%al
    2cf1:	74 3b                	je     2d2e <_ZN3vkh12createDeviceEP18VkPhysicalDevice_TPK18VkDeviceCreateInfoPK21VkAllocationCallbacks+0x73>
      VK_SUCCESS) {
    throw std::runtime_error("Failed to a create device.");
    2cf3:	bf 10 00 00 00       	mov    $0x10,%edi
    2cf8:	e8 c3 f3 ff ff       	call   20c0 <__cxa_allocate_exception@plt>
    2cfd:	48 89 c3             	mov    %rax,%rbx
    2d00:	48 8d 05 f7 3e 00 00 	lea    0x3ef7(%rip),%rax        # 6bfe <_ZL47VK_FORMAT_FEATURE_2_BOX_FILTER_SAMPLED_BIT_QCOM+0x26>
    2d07:	48 89 c6             	mov    %rax,%rsi
    2d0a:	48 89 df             	mov    %rbx,%rdi
    2d0d:	e8 5e f3 ff ff       	call   2070 <_ZNSt13runtime_errorC1EPKc@plt>
    2d12:	48 8b 05 8f 92 00 00 	mov    0x928f(%rip),%rax        # bfa8 <_ZNSt13runtime_errorD1Ev@GLIBCXX_3.4>
    2d19:	48 89 c2             	mov    %rax,%rdx
    2d1c:	48 8d 05 3d 90 00 00 	lea    0x903d(%rip),%rax        # bd60 <_ZTISt13runtime_error@GLIBCXX_3.4>
    2d23:	48 89 c6             	mov    %rax,%rsi
    2d26:	48 89 df             	mov    %rbx,%rdi
    2d29:	e8 f2 f5 ff ff       	call   2320 <__cxa_throw@plt>
  }
  return device;
    2d2e:	48 8b 45 e8          	mov    -0x18(%rbp),%rax
    2d32:	eb 16                	jmp    2d4a <_ZN3vkh12createDeviceEP18VkPhysicalDevice_TPK18VkDeviceCreateInfoPK21VkAllocationCallbacks+0x8f>
    throw std::runtime_error("Failed to a create device.");
    2d34:	49 89 c4             	mov    %rax,%r12
    2d37:	48 89 df             	mov    %rbx,%rdi
    2d3a:	e8 e1 f3 ff ff       	call   2120 <__cxa_free_exception@plt>
    2d3f:	4c 89 e0             	mov    %r12,%rax
    2d42:	48 89 c7             	mov    %rax,%rdi
    2d45:	e8 e6 f5 ff ff       	call   2330 <_Unwind_Resume@plt>
}
    2d4a:	48 83 c4 30          	add    $0x30,%rsp
    2d4e:	5b                   	pop    %rbx
    2d4f:	41 5c                	pop    %r12
    2d51:	5d                   	pop    %rbp
    2d52:	c3                   	ret

0000000000002d53 <_ZN3vkh13destroyWindowEP10GLFWwindow>:
#include "destroy_object.hpp"

namespace vkh {

void destroyWindow(GLFWwindow *window) { glfwDestroyWindow(window); }
    2d53:	55                   	push   %rbp
    2d54:	48 89 e5             	mov    %rsp,%rbp
    2d57:	48 83 ec 10          	sub    $0x10,%rsp
    2d5b:	48 89 7d f8          	mov    %rdi,-0x8(%rbp)
    2d5f:	48 8b 45 f8          	mov    -0x8(%rbp),%rax
    2d63:	48 89 c7             	mov    %rax,%rdi
    2d66:	e8 e5 f2 ff ff       	call   2050 <glfwDestroyWindow@plt>
    2d6b:	90                   	nop
    2d6c:	c9                   	leave
    2d6d:	c3                   	ret

0000000000002d6e <_ZN3vkh15destroyInstanceEP12VkInstance_TPK21VkAllocationCallbacks>:

void destroyInstance(VkInstance instance,
                     const VkAllocationCallbacks *pAllocator) {
    2d6e:	55                   	push   %rbp
    2d6f:	48 89 e5             	mov    %rsp,%rbp
    2d72:	48 83 ec 10          	sub    $0x10,%rsp
    2d76:	48 89 7d f8          	mov    %rdi,-0x8(%rbp)
    2d7a:	48 89 75 f0          	mov    %rsi,-0x10(%rbp)
  vkDestroyInstance(instance, pAllocator);
    2d7e:	48 8b 55 f0          	mov    -0x10(%rbp),%rdx
    2d82:	48 8b 45 f8          	mov    -0x8(%rbp),%rax
    2d86:	48 89 d6             	mov    %rdx,%rsi
    2d89:	48 89 c7             	mov    %rax,%rdi
    2d8c:	e8 5f f4 ff ff       	call   21f0 <vkDestroyInstance@plt>
}
    2d91:	90                   	nop
    2d92:	c9                   	leave
    2d93:	c3                   	ret

0000000000002d94 <_ZN3vkh13destroyDeviceEP10VkDevice_TPK21VkAllocationCallbacks>:

void destroyDevice(VkDevice device, const VkAllocationCallbacks *pAllocator) {
    2d94:	55                   	push   %rbp
    2d95:	48 89 e5             	mov    %rsp,%rbp
    2d98:	48 83 ec 10          	sub    $0x10,%rsp
    2d9c:	48 89 7d f8          	mov    %rdi,-0x8(%rbp)
    2da0:	48 89 75 f0          	mov    %rsi,-0x10(%rbp)
  vkDestroyDevice(device, pAllocator);
    2da4:	48 8b 55 f0          	mov    -0x10(%rbp),%rdx
    2da8:	48 8b 45 f8          	mov    -0x8(%rbp),%rax
    2dac:	48 89 d6             	mov    %rdx,%rsi
    2daf:	48 89 c7             	mov    %rax,%rdi
    2db2:	e8 a9 f3 ff ff       	call   2160 <vkDestroyDevice@plt>
}
    2db7:	90                   	nop
    2db8:	c9                   	leave
    2db9:	c3                   	ret

0000000000002dba <_ZN3vkh33getAvailableInstanceExtensionListEPKc>:
#include "get_list.hpp"

namespace vkh {

std::vector<VkExtensionProperties>
getAvailableInstanceExtensionList(const char *pLayerName) {
    2dba:	55                   	push   %rbp
    2dbb:	48 89 e5             	mov    %rsp,%rbp
    2dbe:	41 54                	push   %r12
    2dc0:	53                   	push   %rbx
    2dc1:	48 83 ec 20          	sub    $0x20,%rsp
    2dc5:	48 89 7d d8          	mov    %rdi,-0x28(%rbp)
    2dc9:	48 89 75 d0          	mov    %rsi,-0x30(%rbp)
  uint32_t propertyCount;
  if (vkEnumerateInstanceExtensionProperties(pLayerName, &propertyCount,
    2dcd:	48 8d 4d e8          	lea    -0x18(%rbp),%rcx
    2dd1:	48 8b 45 d0          	mov    -0x30(%rbp),%rax
    2dd5:	ba 00 00 00 00       	mov    $0x0,%edx
    2dda:	48 89 ce             	mov    %rcx,%rsi
    2ddd:	48 89 c7             	mov    %rax,%rdi
    2de0:	e8 8b f3 ff ff       	call   2170 <vkEnumerateInstanceExtensionProperties@plt>
                                             nullptr) != VK_SUCCESS) {
    2de5:	85 c0                	test   %eax,%eax
    2de7:	0f 95 c0             	setne  %al
  if (vkEnumerateInstanceExtensionProperties(pLayerName, &propertyCount,
    2dea:	84 c0                	test   %al,%al
    2dec:	74 3b                	je     2e29 <_ZN3vkh33getAvailableInstanceExtensionListEPKc+0x6f>
    throw std::runtime_error("Failed to get instance extension list.");
    2dee:	bf 10 00 00 00       	mov    $0x10,%edi
    2df3:	e8 c8 f2 ff ff       	call   20c0 <__cxa_allocate_exception@plt>
    2df8:	48 89 c3             	mov    %rax,%rbx
    2dfb:	48 8d 05 ce 49 00 00 	lea    0x49ce(%rip),%rax        # 77d0 <_ZL47VK_FORMAT_FEATURE_2_BOX_FILTER_SAMPLED_BIT_QCOM+0x8>
    2e02:	48 89 c6             	mov    %rax,%rsi
    2e05:	48 89 df             	mov    %rbx,%rdi
    2e08:	e8 63 f2 ff ff       	call   2070 <_ZNSt13runtime_errorC1EPKc@plt>
    2e0d:	48 8b 05 94 91 00 00 	mov    0x9194(%rip),%rax        # bfa8 <_ZNSt13runtime_errorD1Ev@GLIBCXX_3.4>
    2e14:	48 89 c2             	mov    %rax,%rdx
    2e17:	48 8d 05 42 8f 00 00 	lea    0x8f42(%rip),%rax        # bd60 <_ZTISt13runtime_error@GLIBCXX_3.4>
    2e1e:	48 89 c6             	mov    %rax,%rsi
    2e21:	48 89 df             	mov    %rbx,%rdi
    2e24:	e8 f7 f4 ff ff       	call   2320 <__cxa_throw@plt>
  }
  std::vector<VkExtensionProperties> instanceExtensions{propertyCount};
    2e29:	8b 45 e8             	mov    -0x18(%rbp),%eax
    2e2c:	89 c3                	mov    %eax,%ebx
    2e2e:	48 8d 45 ef          	lea    -0x11(%rbp),%rax
    2e32:	48 89 c7             	mov    %rax,%rdi
    2e35:	e8 1e 06 00 00       	call   3458 <_ZNSaI21VkExtensionPropertiesEC1Ev>
    2e3a:	48 8d 55 ef          	lea    -0x11(%rbp),%rdx
    2e3e:	48 8b 45 d8          	mov    -0x28(%rbp),%rax
    2e42:	48 89 de             	mov    %rbx,%rsi
    2e45:	48 89 c7             	mov    %rax,%rdi
    2e48:	e8 43 06 00 00       	call   3490 <_ZNSt6vectorI21VkExtensionPropertiesSaIS0_EEC1EmRKS1_>
    2e4d:	48 8d 45 ef          	lea    -0x11(%rbp),%rax
    2e51:	48 89 c7             	mov    %rax,%rdi
    2e54:	e8 1b 06 00 00       	call   3474 <_ZNSaI21VkExtensionPropertiesED1Ev>
  if (vkEnumerateInstanceExtensionProperties(pLayerName, &propertyCount,
    2e59:	48 8b 45 d8          	mov    -0x28(%rbp),%rax
    2e5d:	48 89 c7             	mov    %rax,%rdi
    2e60:	e8 e5 06 00 00       	call   354a <_ZNSt6vectorI21VkExtensionPropertiesSaIS0_EE4dataEv>
    2e65:	48 89 c2             	mov    %rax,%rdx
    2e68:	48 8d 4d e8          	lea    -0x18(%rbp),%rcx
    2e6c:	48 8b 45 d0          	mov    -0x30(%rbp),%rax
    2e70:	48 89 ce             	mov    %rcx,%rsi
    2e73:	48 89 c7             	mov    %rax,%rdi
    2e76:	e8 f5 f2 ff ff       	call   2170 <vkEnumerateInstanceExtensionProperties@plt>
                                             instanceExtensions.data()) !=
    2e7b:	85 c0                	test   %eax,%eax
    2e7d:	0f 95 c0             	setne  %al
  if (vkEnumerateInstanceExtensionProperties(pLayerName, &propertyCount,
    2e80:	84 c0                	test   %al,%al
    2e82:	0f 84 95 00 00 00    	je     2f1d <_ZN3vkh33getAvailableInstanceExtensionListEPKc+0x163>
      VK_SUCCESS) {
    throw std::runtime_error("Failed to get instance extension list.");
    2e88:	bf 10 00 00 00       	mov    $0x10,%edi
    2e8d:	e8 2e f2 ff ff       	call   20c0 <__cxa_allocate_exception@plt>
    2e92:	48 89 c3             	mov    %rax,%rbx
    2e95:	48 8d 05 34 49 00 00 	lea    0x4934(%rip),%rax        # 77d0 <_ZL47VK_FORMAT_FEATURE_2_BOX_FILTER_SAMPLED_BIT_QCOM+0x8>
    2e9c:	48 89 c6             	mov    %rax,%rsi
    2e9f:	48 89 df             	mov    %rbx,%rdi
    2ea2:	e8 c9 f1 ff ff       	call   2070 <_ZNSt13runtime_errorC1EPKc@plt>
    2ea7:	48 8b 05 fa 90 00 00 	mov    0x90fa(%rip),%rax        # bfa8 <_ZNSt13runtime_errorD1Ev@GLIBCXX_3.4>
    2eae:	48 89 c2             	mov    %rax,%rdx
    2eb1:	48 8d 05 a8 8e 00 00 	lea    0x8ea8(%rip),%rax        # bd60 <_ZTISt13runtime_error@GLIBCXX_3.4>
    2eb8:	48 89 c6             	mov    %rax,%rsi
    2ebb:	48 89 df             	mov    %rbx,%rdi
    2ebe:	e8 5d f4 ff ff       	call   2320 <__cxa_throw@plt>
    throw std::runtime_error("Failed to get instance extension list.");
    2ec3:	49 89 c4             	mov    %rax,%r12
    2ec6:	48 89 df             	mov    %rbx,%rdi
    2ec9:	e8 52 f2 ff ff       	call   2120 <__cxa_free_exception@plt>
    2ece:	4c 89 e0             	mov    %r12,%rax
    2ed1:	48 89 c7             	mov    %rax,%rdi
    2ed4:	e8 57 f4 ff ff       	call   2330 <_Unwind_Resume@plt>
  std::vector<VkExtensionProperties> instanceExtensions{propertyCount};
    2ed9:	48 89 c3             	mov    %rax,%rbx
    2edc:	48 8d 45 ef          	lea    -0x11(%rbp),%rax
    2ee0:	48 89 c7             	mov    %rax,%rdi
    2ee3:	e8 8c 05 00 00       	call   3474 <_ZNSaI21VkExtensionPropertiesED1Ev>
    2ee8:	48 89 d8             	mov    %rbx,%rax
    2eeb:	48 89 c7             	mov    %rax,%rdi
    2eee:	e8 3d f4 ff ff       	call   2330 <_Unwind_Resume@plt>
    throw std::runtime_error("Failed to get instance extension list.");
    2ef3:	49 89 c4             	mov    %rax,%r12
    2ef6:	48 89 df             	mov    %rbx,%rdi
    2ef9:	e8 22 f2 ff ff       	call   2120 <__cxa_free_exception@plt>
    2efe:	4c 89 e3             	mov    %r12,%rbx
    2f01:	eb 03                	jmp    2f06 <_ZN3vkh33getAvailableInstanceExtensionListEPKc+0x14c>
  }
  return instanceExtensions;
}
    2f03:	48 89 c3             	mov    %rax,%rbx
    2f06:	48 8b 45 d8          	mov    -0x28(%rbp),%rax
    2f0a:	48 89 c7             	mov    %rax,%rdi
    2f0d:	e8 f4 05 00 00       	call   3506 <_ZNSt6vectorI21VkExtensionPropertiesSaIS0_EED1Ev>
    2f12:	48 89 d8             	mov    %rbx,%rax
    2f15:	48 89 c7             	mov    %rax,%rdi
    2f18:	e8 13 f4 ff ff       	call   2330 <_Unwind_Resume@plt>
  return instanceExtensions;
    2f1d:	90                   	nop
}
    2f1e:	48 8b 45 d8          	mov    -0x28(%rbp),%rax
    2f22:	48 83 c4 20          	add    $0x20,%rsp
    2f26:	5b                   	pop    %rbx
    2f27:	41 5c                	pop    %r12
    2f29:	5d                   	pop    %rbp
    2f2a:	c3                   	ret

0000000000002f2b <_ZN3vkh31getAvailableDeviceExtensionListEP18VkPhysicalDevice_TPKc>:

std::vector<VkExtensionProperties>
getAvailableDeviceExtensionList(VkPhysicalDevice physicalDevice,
                                const char *pLayerName) {
    2f2b:	55                   	push   %rbp
    2f2c:	48 89 e5             	mov    %rsp,%rbp
    2f2f:	41 54                	push   %r12
    2f31:	53                   	push   %rbx
    2f32:	48 83 ec 30          	sub    $0x30,%rsp
    2f36:	48 89 7d d8          	mov    %rdi,-0x28(%rbp)
    2f3a:	48 89 75 d0          	mov    %rsi,-0x30(%rbp)
    2f3e:	48 89 55 c8          	mov    %rdx,-0x38(%rbp)
  uint32_t propertyCount;
  if (vkEnumerateDeviceExtensionProperties(
    2f42:	48 8d 55 e8          	lea    -0x18(%rbp),%rdx
    2f46:	48 8b 75 c8          	mov    -0x38(%rbp),%rsi
    2f4a:	48 8b 45 d0          	mov    -0x30(%rbp),%rax
    2f4e:	b9 00 00 00 00       	mov    $0x0,%ecx
    2f53:	48 89 c7             	mov    %rax,%rdi
    2f56:	e8 55 f3 ff ff       	call   22b0 <vkEnumerateDeviceExtensionProperties@plt>
          physicalDevice, pLayerName, &propertyCount, nullptr) != VK_SUCCESS) {
    2f5b:	85 c0                	test   %eax,%eax
    2f5d:	0f 95 c0             	setne  %al
  if (vkEnumerateDeviceExtensionProperties(
    2f60:	84 c0                	test   %al,%al
    2f62:	74 3b                	je     2f9f <_ZN3vkh31getAvailableDeviceExtensionListEP18VkPhysicalDevice_TPKc+0x74>
    throw std::runtime_error("Failed to get device extension list.");
    2f64:	bf 10 00 00 00       	mov    $0x10,%edi
    2f69:	e8 52 f1 ff ff       	call   20c0 <__cxa_allocate_exception@plt>
    2f6e:	48 89 c3             	mov    %rax,%rbx
    2f71:	48 8d 05 80 48 00 00 	lea    0x4880(%rip),%rax        # 77f8 <_ZL47VK_FORMAT_FEATURE_2_BOX_FILTER_SAMPLED_BIT_QCOM+0x30>
    2f78:	48 89 c6             	mov    %rax,%rsi
    2f7b:	48 89 df             	mov    %rbx,%rdi
    2f7e:	e8 ed f0 ff ff       	call   2070 <_ZNSt13runtime_errorC1EPKc@plt>
    2f83:	48 8b 05 1e 90 00 00 	mov    0x901e(%rip),%rax        # bfa8 <_ZNSt13runtime_errorD1Ev@GLIBCXX_3.4>
    2f8a:	48 89 c2             	mov    %rax,%rdx
    2f8d:	48 8d 05 cc 8d 00 00 	lea    0x8dcc(%rip),%rax        # bd60 <_ZTISt13runtime_error@GLIBCXX_3.4>
    2f94:	48 89 c6             	mov    %rax,%rsi
    2f97:	48 89 df             	mov    %rbx,%rdi
    2f9a:	e8 81 f3 ff ff       	call   2320 <__cxa_throw@plt>
  }
  std::vector<VkExtensionProperties> deviceExtensions{propertyCount};
    2f9f:	8b 45 e8             	mov    -0x18(%rbp),%eax
    2fa2:	89 c3                	mov    %eax,%ebx
    2fa4:	48 8d 45 ef          	lea    -0x11(%rbp),%rax
    2fa8:	48 89 c7             	mov    %rax,%rdi
    2fab:	e8 a8 04 00 00       	call   3458 <_ZNSaI21VkExtensionPropertiesEC1Ev>
    2fb0:	48 8d 55 ef          	lea    -0x11(%rbp),%rdx
    2fb4:	48 8b 45 d8          	mov    -0x28(%rbp),%rax
    2fb8:	48 89 de             	mov    %rbx,%rsi
    2fbb:	48 89 c7             	mov    %rax,%rdi
    2fbe:	e8 cd 04 00 00       	call   3490 <_ZNSt6vectorI21VkExtensionPropertiesSaIS0_EEC1EmRKS1_>
    2fc3:	48 8d 45 ef          	lea    -0x11(%rbp),%rax
    2fc7:	48 89 c7             	mov    %rax,%rdi
    2fca:	e8 a5 04 00 00       	call   3474 <_ZNSaI21VkExtensionPropertiesED1Ev>
  if (vkEnumerateDeviceExtensionProperties(
    2fcf:	48 8b 45 d8          	mov    -0x28(%rbp),%rax
    2fd3:	48 89 c7             	mov    %rax,%rdi
    2fd6:	e8 6f 05 00 00       	call   354a <_ZNSt6vectorI21VkExtensionPropertiesSaIS0_EE4dataEv>
    2fdb:	48 89 c1             	mov    %rax,%rcx
    2fde:	48 8d 55 e8          	lea    -0x18(%rbp),%rdx
    2fe2:	48 8b 75 c8          	mov    -0x38(%rbp),%rsi
    2fe6:	48 8b 45 d0          	mov    -0x30(%rbp),%rax
    2fea:	48 89 c7             	mov    %rax,%rdi
    2fed:	e8 be f2 ff ff       	call   22b0 <vkEnumerateDeviceExtensionProperties@plt>
          physicalDevice, pLayerName, &propertyCount,
          deviceExtensions.data()) != VK_SUCCESS) {
    2ff2:	85 c0                	test   %eax,%eax
    2ff4:	0f 95 c0             	setne  %al
  if (vkEnumerateDeviceExtensionProperties(
    2ff7:	84 c0                	test   %al,%al
    2ff9:	0f 84 95 00 00 00    	je     3094 <_ZN3vkh31getAvailableDeviceExtensionListEP18VkPhysicalDevice_TPKc+0x169>
    throw std::runtime_error("Failed to get device extension list.");
    2fff:	bf 10 00 00 00       	mov    $0x10,%edi
    3004:	e8 b7 f0 ff ff       	call   20c0 <__cxa_allocate_exception@plt>
    3009:	48 89 c3             	mov    %rax,%rbx
    300c:	48 8d 05 e5 47 00 00 	lea    0x47e5(%rip),%rax        # 77f8 <_ZL47VK_FORMAT_FEATURE_2_BOX_FILTER_SAMPLED_BIT_QCOM+0x30>
    3013:	48 89 c6             	mov    %rax,%rsi
    3016:	48 89 df             	mov    %rbx,%rdi
    3019:	e8 52 f0 ff ff       	call   2070 <_ZNSt13runtime_errorC1EPKc@plt>
    301e:	48 8b 05 83 8f 00 00 	mov    0x8f83(%rip),%rax        # bfa8 <_ZNSt13runtime_errorD1Ev@GLIBCXX_3.4>
    3025:	48 89 c2             	mov    %rax,%rdx
    3028:	48 8d 05 31 8d 00 00 	lea    0x8d31(%rip),%rax        # bd60 <_ZTISt13runtime_error@GLIBCXX_3.4>
    302f:	48 89 c6             	mov    %rax,%rsi
    3032:	48 89 df             	mov    %rbx,%rdi
    3035:	e8 e6 f2 ff ff       	call   2320 <__cxa_throw@plt>
    throw std::runtime_error("Failed to get device extension list.");
    303a:	49 89 c4             	mov    %rax,%r12
    303d:	48 89 df             	mov    %rbx,%rdi
    3040:	e8 db f0 ff ff       	call   2120 <__cxa_free_exception@plt>
    3045:	4c 89 e0             	mov    %r12,%rax
    3048:	48 89 c7             	mov    %rax,%rdi
    304b:	e8 e0 f2 ff ff       	call   2330 <_Unwind_Resume@plt>
  std::vector<VkExtensionProperties> deviceExtensions{propertyCount};
    3050:	48 89 c3             	mov    %rax,%rbx
    3053:	48 8d 45 ef          	lea    -0x11(%rbp),%rax
    3057:	48 89 c7             	mov    %rax,%rdi
    305a:	e8 15 04 00 00       	call   3474 <_ZNSaI21VkExtensionPropertiesED1Ev>
    305f:	48 89 d8             	mov    %rbx,%rax
    3062:	48 89 c7             	mov    %rax,%rdi
    3065:	e8 c6 f2 ff ff       	call   2330 <_Unwind_Resume@plt>
    throw std::runtime_error("Failed to get device extension list.");
    306a:	49 89 c4             	mov    %rax,%r12
    306d:	48 89 df             	mov    %rbx,%rdi
    3070:	e8 ab f0 ff ff       	call   2120 <__cxa_free_exception@plt>
    3075:	4c 89 e3             	mov    %r12,%rbx
    3078:	eb 03                	jmp    307d <_ZN3vkh31getAvailableDeviceExtensionListEP18VkPhysicalDevice_TPKc+0x152>
  }
  return deviceExtensions;
}
    307a:	48 89 c3             	mov    %rax,%rbx
    307d:	48 8b 45 d8          	mov    -0x28(%rbp),%rax
    3081:	48 89 c7             	mov    %rax,%rdi
    3084:	e8 7d 04 00 00       	call   3506 <_ZNSt6vectorI21VkExtensionPropertiesSaIS0_EED1Ev>
    3089:	48 89 d8             	mov    %rbx,%rax
    308c:	48 89 c7             	mov    %rax,%rdi
    308f:	e8 9c f2 ff ff       	call   2330 <_Unwind_Resume@plt>
  return deviceExtensions;
    3094:	90                   	nop
}
    3095:	48 8b 45 d8          	mov    -0x28(%rbp),%rax
    3099:	48 83 c4 30          	add    $0x30,%rsp
    309d:	5b                   	pop    %rbx
    309e:	41 5c                	pop    %r12
    30a0:	5d                   	pop    %rbp
    30a1:	c3                   	ret

00000000000030a2 <_ZN3vkh32getRequiredInstanceExtensionListB5cxx11Ev>:

std::vector<std::string> getRequiredInstanceExtensionList() {
    30a2:	55                   	push   %rbp
    30a3:	48 89 e5             	mov    %rsp,%rbp
    30a6:	53                   	push   %rbx
    30a7:	48 83 ec 38          	sub    $0x38,%rsp
    30ab:	48 89 7d c8          	mov    %rdi,-0x38(%rbp)
  uint32_t requiredExtensionCount;
  const char **ppRequiredExtensions =
      glfwGetRequiredInstanceExtensions(&requiredExtensionCount);
    30af:	48 8d 45 d8          	lea    -0x28(%rbp),%rax
    30b3:	48 89 c7             	mov    %rax,%rdi
    30b6:	e8 75 f0 ff ff       	call   2130 <glfwGetRequiredInstanceExtensions@plt>
    30bb:	48 89 45 e0          	mov    %rax,-0x20(%rbp)
  std::vector<std::string> requiredInstanceExtensions{requiredExtensionCount};
    30bf:	8b 45 d8             	mov    -0x28(%rbp),%eax
    30c2:	89 c3                	mov    %eax,%ebx
    30c4:	48 8d 45 df          	lea    -0x21(%rbp),%rax
    30c8:	48 89 c7             	mov    %rax,%rdi
    30cb:	e8 f6 04 00 00       	call   35c6 <_ZNSaINSt7__cxx1112basic_stringIcSt11char_traitsIcESaIcEEEEC1Ev>
    30d0:	48 8d 55 df          	lea    -0x21(%rbp),%rdx
    30d4:	48 8b 45 c8          	mov    -0x38(%rbp),%rax
    30d8:	48 89 de             	mov    %rbx,%rsi
    30db:	48 89 c7             	mov    %rax,%rdi
    30de:	e8 1b 05 00 00       	call   35fe <_ZNSt6vectorINSt7__cxx1112basic_stringIcSt11char_traitsIcESaIcEEESaIS5_EEC1EmRKS6_>
    30e3:	48 8d 45 df          	lea    -0x21(%rbp),%rax
    30e7:	48 89 c7             	mov    %rax,%rdi
    30ea:	e8 f3 04 00 00       	call   35e2 <_ZNSaINSt7__cxx1112basic_stringIcSt11char_traitsIcESaIcEEEED1Ev>
  for (uint32_t i = 0; i < requiredExtensionCount; ++i) {
    30ef:	c7 45 ec 00 00 00 00 	movl   $0x0,-0x14(%rbp)
    30f6:	eb 36                	jmp    312e <_ZN3vkh32getRequiredInstanceExtensionListB5cxx11Ev+0x8c>
    requiredInstanceExtensions[i] = ppRequiredExtensions[i];
    30f8:	8b 45 ec             	mov    -0x14(%rbp),%eax
    30fb:	48 8d 14 c5 00 00 00 	lea    0x0(,%rax,8),%rdx
    3102:	00 
    3103:	48 8b 45 e0          	mov    -0x20(%rbp),%rax
    3107:	48 01 d0             	add    %rdx,%rax
    310a:	48 8b 18             	mov    (%rax),%rbx
    310d:	8b 55 ec             	mov    -0x14(%rbp),%edx
    3110:	48 8b 45 c8          	mov    -0x38(%rbp),%rax
    3114:	48 89 d6             	mov    %rdx,%rsi
    3117:	48 89 c7             	mov    %rax,%rdi
    311a:	e8 99 05 00 00       	call   36b8 <_ZNSt6vectorINSt7__cxx1112basic_stringIcSt11char_traitsIcESaIcEEESaIS5_EEixEm>
    311f:	48 89 de             	mov    %rbx,%rsi
    3122:	48 89 c7             	mov    %rax,%rdi
    3125:	e8 76 f1 ff ff       	call   22a0 <_ZNSt7__cxx1112basic_stringIcSt11char_traitsIcESaIcEEaSEPKc@plt>
  for (uint32_t i = 0; i < requiredExtensionCount; ++i) {
    312a:	83 45 ec 01          	addl   $0x1,-0x14(%rbp)
    312e:	8b 45 d8             	mov    -0x28(%rbp),%eax
    3131:	39 45 ec             	cmp    %eax,-0x14(%rbp)
    3134:	72 c2                	jb     30f8 <_ZN3vkh32getRequiredInstanceExtensionListB5cxx11Ev+0x56>
  }
  return requiredInstanceExtensions;
    3136:	eb 34                	jmp    316c <_ZN3vkh32getRequiredInstanceExtensionListB5cxx11Ev+0xca>
  std::vector<std::string> requiredInstanceExtensions{requiredExtensionCount};
    3138:	48 89 c3             	mov    %rax,%rbx
    313b:	48 8d 45 df          	lea    -0x21(%rbp),%rax
    313f:	48 89 c7             	mov    %rax,%rdi
    3142:	e8 9b 04 00 00       	call   35e2 <_ZNSaINSt7__cxx1112basic_stringIcSt11char_traitsIcESaIcEEEED1Ev>
    3147:	48 89 d8             	mov    %rbx,%rax
    314a:	48 89 c7             	mov    %rax,%rdi
    314d:	e8 de f1 ff ff       	call   2330 <_Unwind_Resume@plt>
}
    3152:	48 89 c3             	mov    %rax,%rbx
    3155:	48 8b 45 c8          	mov    -0x38(%rbp),%rax
    3159:	48 89 c7             	mov    %rax,%rdi
    315c:	e8 13 05 00 00       	call   3674 <_ZNSt6vectorINSt7__cxx1112basic_stringIcSt11char_traitsIcESaIcEEESaIS5_EED1Ev>
    3161:	48 89 d8             	mov    %rbx,%rax
    3164:	48 89 c7             	mov    %rax,%rdi
    3167:	e8 c4 f1 ff ff       	call   2330 <_Unwind_Resume@plt>
    316c:	48 8b 45 c8          	mov    -0x38(%rbp),%rax
    3170:	48 8b 5d f8          	mov    -0x8(%rbp),%rbx
    3174:	c9                   	leave
    3175:	c3                   	ret

0000000000003176 <_ZN3vkh29getAvailableInstanceLayerListEv>:

std::vector<VkLayerProperties> getAvailableInstanceLayerList() {
    3176:	55                   	push   %rbp
    3177:	48 89 e5             	mov    %rsp,%rbp
    317a:	53                   	push   %rbx
    317b:	48 83 ec 28          	sub    $0x28,%rsp
    317f:	48 89 7d d8          	mov    %rdi,-0x28(%rbp)
  uint32_t layerCount;
  vkEnumerateInstanceLayerProperties(&layerCount, nullptr);
    3183:	48 8d 45 e8          	lea    -0x18(%rbp),%rax
    3187:	be 00 00 00 00       	mov    $0x0,%esi
    318c:	48 89 c7             	mov    %rax,%rdi
    318f:	e8 bc f0 ff ff       	call   2250 <vkEnumerateInstanceLayerProperties@plt>
  std::vector<VkLayerProperties> availableLayers{layerCount};
    3194:	8b 45 e8             	mov    -0x18(%rbp),%eax
    3197:	89 c3                	mov    %eax,%ebx
    3199:	48 8d 45 ef          	lea    -0x11(%rbp),%rax
    319d:	48 89 c7             	mov    %rax,%rdi
    31a0:	e8 81 05 00 00       	call   3726 <_ZNSaI17VkLayerPropertiesEC1Ev>
    31a5:	48 8d 55 ef          	lea    -0x11(%rbp),%rdx
    31a9:	48 8b 45 d8          	mov    -0x28(%rbp),%rax
    31ad:	48 89 de             	mov    %rbx,%rsi
    31b0:	48 89 c7             	mov    %rax,%rdi
    31b3:	e8 8a 05 00 00       	call   3742 <_ZNSt6vectorI17VkLayerPropertiesSaIS0_EEC1EmRKS1_>
    31b8:	48 8d 45 ef          	lea    -0x11(%rbp),%rax
    31bc:	48 89 c7             	mov    %rax,%rdi
    31bf:	e8 9a f8 ff ff       	call   2a5e <_ZNSaI17VkLayerPropertiesED1Ev>
  vkEnumerateInstanceLayerProperties(&layerCount, availableLayers.data());
    31c4:	48 8b 45 d8          	mov    -0x28(%rbp),%rax
    31c8:	48 89 c7             	mov    %rax,%rdi
    31cb:	e8 e8 05 00 00       	call   37b8 <_ZNSt6vectorI17VkLayerPropertiesSaIS0_EE4dataEv>
    31d0:	48 89 c2             	mov    %rax,%rdx
    31d3:	48 8d 45 e8          	lea    -0x18(%rbp),%rax
    31d7:	48 89 d6             	mov    %rdx,%rsi
    31da:	48 89 c7             	mov    %rax,%rdi
    31dd:	e8 6e f0 ff ff       	call   2250 <vkEnumerateInstanceLayerProperties@plt>
  return availableLayers;
    31e2:	eb 34                	jmp    3218 <_ZN3vkh29getAvailableInstanceLayerListEv+0xa2>
  std::vector<VkLayerProperties> availableLayers{layerCount};
    31e4:	48 89 c3             	mov    %rax,%rbx
    31e7:	48 8d 45 ef          	lea    -0x11(%rbp),%rax
    31eb:	48 89 c7             	mov    %rax,%rdi
    31ee:	e8 6b f8 ff ff       	call   2a5e <_ZNSaI17VkLayerPropertiesED1Ev>
    31f3:	48 89 d8             	mov    %rbx,%rax
    31f6:	48 89 c7             	mov    %rax,%rdi
    31f9:	e8 32 f1 ff ff       	call   2330 <_Unwind_Resume@plt>
}
    31fe:	48 89 c3             	mov    %rax,%rbx
    3201:	48 8b 45 d8          	mov    -0x28(%rbp),%rax
    3205:	48 89 c7             	mov    %rax,%rdi
    3208:	e8 5b f5 ff ff       	call   2768 <_ZNSt6vectorI17VkLayerPropertiesSaIS0_EED1Ev>
    320d:	48 89 d8             	mov    %rbx,%rax
    3210:	48 89 c7             	mov    %rax,%rdi
    3213:	e8 18 f1 ff ff       	call   2330 <_Unwind_Resume@plt>
    3218:	48 8b 45 d8          	mov    -0x28(%rbp),%rax
    321c:	48 8b 5d f8          	mov    -0x8(%rbp),%rbx
    3220:	c9                   	leave
    3221:	c3                   	ret

0000000000003222 <_ZN3vkh21getPhysicalDeviceListEP12VkInstance_T>:

std::vector<VkPhysicalDevice> getPhysicalDeviceList(VkInstance instance) {
    3222:	55                   	push   %rbp
    3223:	48 89 e5             	mov    %rsp,%rbp
    3226:	41 54                	push   %r12
    3228:	53                   	push   %rbx
    3229:	48 83 ec 20          	sub    $0x20,%rsp
    322d:	48 89 7d d8          	mov    %rdi,-0x28(%rbp)
    3231:	48 89 75 d0          	mov    %rsi,-0x30(%rbp)
  uint32_t physicalDeviceCount;
  vkEnumeratePhysicalDevices(instance, &physicalDeviceCount, nullptr);
    3235:	48 8d 4d e8          	lea    -0x18(%rbp),%rcx
    3239:	48 8b 45 d0          	mov    -0x30(%rbp),%rax
    323d:	ba 00 00 00 00       	mov    $0x0,%edx
    3242:	48 89 ce             	mov    %rcx,%rsi
    3245:	48 89 c7             	mov    %rax,%rdi
    3248:	e8 93 ee ff ff       	call   20e0 <vkEnumeratePhysicalDevices@plt>
  if (physicalDeviceCount == 0) {
    324d:	8b 45 e8             	mov    -0x18(%rbp),%eax
    3250:	85 c0                	test   %eax,%eax
    3252:	75 3b                	jne    328f <_ZN3vkh21getPhysicalDeviceListEP12VkInstance_T+0x6d>
    throw std::runtime_error(
        "Failed to find any physical device with Vulkan support.");
    3254:	bf 10 00 00 00       	mov    $0x10,%edi
    3259:	e8 62 ee ff ff       	call   20c0 <__cxa_allocate_exception@plt>
    325e:	48 89 c3             	mov    %rax,%rbx
    throw std::runtime_error(
    3261:	48 8d 05 b8 45 00 00 	lea    0x45b8(%rip),%rax        # 7820 <_ZL47VK_FORMAT_FEATURE_2_BOX_FILTER_SAMPLED_BIT_QCOM+0x58>
    3268:	48 89 c6             	mov    %rax,%rsi
    326b:	48 89 df             	mov    %rbx,%rdi
    326e:	e8 fd ed ff ff       	call   2070 <_ZNSt13runtime_errorC1EPKc@plt>
        "Failed to find any physical device with Vulkan support.");
    3273:	48 8b 05 2e 8d 00 00 	mov    0x8d2e(%rip),%rax        # bfa8 <_ZNSt13runtime_errorD1Ev@GLIBCXX_3.4>
    327a:	48 89 c2             	mov    %rax,%rdx
    327d:	48 8d 05 dc 8a 00 00 	lea    0x8adc(%rip),%rax        # bd60 <_ZTISt13runtime_error@GLIBCXX_3.4>
    3284:	48 89 c6             	mov    %rax,%rsi
    3287:	48 89 df             	mov    %rbx,%rdi
    328a:	e8 91 f0 ff ff       	call   2320 <__cxa_throw@plt>
  }
  std::vector<VkPhysicalDevice> physicalDevices{physicalDeviceCount};
    328f:	8b 45 e8             	mov    -0x18(%rbp),%eax
    3292:	89 c3                	mov    %eax,%ebx
    3294:	48 8d 45 ef          	lea    -0x11(%rbp),%rax
    3298:	48 89 c7             	mov    %rax,%rdi
    329b:	e8 3c 05 00 00       	call   37dc <_ZNSaIP18VkPhysicalDevice_TEC1Ev>
    32a0:	48 8d 55 ef          	lea    -0x11(%rbp),%rdx
    32a4:	48 8b 45 d8          	mov    -0x28(%rbp),%rax
    32a8:	48 89 de             	mov    %rbx,%rsi
    32ab:	48 89 c7             	mov    %rax,%rdi
    32ae:	e8 45 05 00 00       	call   37f8 <_ZNSt6vectorIP18VkPhysicalDevice_TSaIS1_EEC1EmRKS2_>
    32b3:	48 8d 45 ef          	lea    -0x11(%rbp),%rax
    32b7:	48 89 c7             	mov    %rax,%rdi
    32ba:	e8 27 f7 ff ff       	call   29e6 <_ZNSaIP18VkPhysicalDevice_TED1Ev>
  if (vkEnumeratePhysicalDevices(instance, &physicalDeviceCount,
    32bf:	48 8b 45 d8          	mov    -0x28(%rbp),%rax
    32c3:	48 89 c7             	mov    %rax,%rdi
    32c6:	e8 a3 05 00 00       	call   386e <_ZNSt6vectorIP18VkPhysicalDevice_TSaIS1_EE4dataEv>
    32cb:	48 89 c2             	mov    %rax,%rdx
    32ce:	48 8d 4d e8          	lea    -0x18(%rbp),%rcx
    32d2:	48 8b 45 d0          	mov    -0x30(%rbp),%rax
    32d6:	48 89 ce             	mov    %rcx,%rsi
    32d9:	48 89 c7             	mov    %rax,%rdi
    32dc:	e8 ff ed ff ff       	call   20e0 <vkEnumeratePhysicalDevices@plt>
                                 physicalDevices.data()) != VK_SUCCESS) {
    32e1:	85 c0                	test   %eax,%eax
    32e3:	0f 95 c0             	setne  %al
  if (vkEnumeratePhysicalDevices(instance, &physicalDeviceCount,
    32e6:	84 c0                	test   %al,%al
    32e8:	0f 84 95 00 00 00    	je     3383 <_ZN3vkh21getPhysicalDeviceListEP12VkInstance_T+0x161>
    throw std::runtime_error("Failed to get physical devices list.");
    32ee:	bf 10 00 00 00       	mov    $0x10,%edi
    32f3:	e8 c8 ed ff ff       	call   20c0 <__cxa_allocate_exception@plt>
    32f8:	48 89 c3             	mov    %rax,%rbx
    32fb:	48 8d 05 56 45 00 00 	lea    0x4556(%rip),%rax        # 7858 <_ZL47VK_FORMAT_FEATURE_2_BOX_FILTER_SAMPLED_BIT_QCOM+0x90>
    3302:	48 89 c6             	mov    %rax,%rsi
    3305:	48 89 df             	mov    %rbx,%rdi
    3308:	e8 63 ed ff ff       	call   2070 <_ZNSt13runtime_errorC1EPKc@plt>
    330d:	48 8b 05 94 8c 00 00 	mov    0x8c94(%rip),%rax        # bfa8 <_ZNSt13runtime_errorD1Ev@GLIBCXX_3.4>
    3314:	48 89 c2             	mov    %rax,%rdx
    3317:	48 8d 05 42 8a 00 00 	lea    0x8a42(%rip),%rax        # bd60 <_ZTISt13runtime_error@GLIBCXX_3.4>
    331e:	48 89 c6             	mov    %rax,%rsi
    3321:	48 89 df             	mov    %rbx,%rdi
    3324:	e8 f7 ef ff ff       	call   2320 <__cxa_throw@plt>
        "Failed to find any physical device with Vulkan support.");
    3329:	49 89 c4             	mov    %rax,%r12
    332c:	48 89 df             	mov    %rbx,%rdi
    332f:	e8 ec ed ff ff       	call   2120 <__cxa_free_exception@plt>
    3334:	4c 89 e0             	mov    %r12,%rax
    3337:	48 89 c7             	mov    %rax,%rdi
    333a:	e8 f1 ef ff ff       	call   2330 <_Unwind_Resume@plt>
  std::vector<VkPhysicalDevice> physicalDevices{physicalDeviceCount};
    333f:	48 89 c3             	mov    %rax,%rbx
    3342:	48 8d 45 ef          	lea    -0x11(%rbp),%rax
    3346:	48 89 c7             	mov    %rax,%rdi
    3349:	e8 98 f6 ff ff       	call   29e6 <_ZNSaIP18VkPhysicalDevice_TED1Ev>
    334e:	48 89 d8             	mov    %rbx,%rax
    3351:	48 89 c7             	mov    %rax,%rdi
    3354:	e8 d7 ef ff ff       	call   2330 <_Unwind_Resume@plt>
    throw std::runtime_error("Failed to get physical devices list.");
    3359:	49 89 c4             	mov    %rax,%r12
    335c:	48 89 df             	mov    %rbx,%rdi
    335f:	e8 bc ed ff ff       	call   2120 <__cxa_free_exception@plt>
    3364:	4c 89 e3             	mov    %r12,%rbx
    3367:	eb 03                	jmp    336c <_ZN3vkh21getPhysicalDeviceListEP12VkInstance_T+0x14a>
  };
  return physicalDevices;
}
    3369:	48 89 c3             	mov    %rax,%rbx
    336c:	48 8b 45 d8          	mov    -0x28(%rbp),%rax
    3370:	48 89 c7             	mov    %rax,%rdi
    3373:	e8 ac f3 ff ff       	call   2724 <_ZNSt6vectorIP18VkPhysicalDevice_TSaIS1_EED1Ev>
    3378:	48 89 d8             	mov    %rbx,%rax
    337b:	48 89 c7             	mov    %rax,%rdi
    337e:	e8 ad ef ff ff       	call   2330 <_Unwind_Resume@plt>
  return physicalDevices;
    3383:	90                   	nop
}
    3384:	48 8b 45 d8          	mov    -0x28(%rbp),%rax
    3388:	48 83 c4 20          	add    $0x20,%rsp
    338c:	5b                   	pop    %rbx
    338d:	41 5c                	pop    %r12
    338f:	5d                   	pop    %rbp
    3390:	c3                   	ret

0000000000003391 <_ZN3vkh29getPhysicalDevicePropertyListEP18VkPhysicalDevice_T>:

VkPhysicalDeviceProperties
getPhysicalDevicePropertyList(VkPhysicalDevice physicalDevice) {
    3391:	55                   	push   %rbp
    3392:	48 89 e5             	mov    %rsp,%rbp
    3395:	48 83 ec 10          	sub    $0x10,%rsp
    3399:	48 89 7d f8          	mov    %rdi,-0x8(%rbp)
    339d:	48 89 75 f0          	mov    %rsi,-0x10(%rbp)
  VkPhysicalDeviceProperties properties;
  vkGetPhysicalDeviceProperties(physicalDevice, &properties);
    33a1:	48 8b 55 f8          	mov    -0x8(%rbp),%rdx
    33a5:	48 8b 45 f0          	mov    -0x10(%rbp),%rax
    33a9:	48 89 d6             	mov    %rdx,%rsi
    33ac:	48 89 c7             	mov    %rax,%rdi
    33af:	e8 cc ec ff ff       	call   2080 <vkGetPhysicalDeviceProperties@plt>
  return properties;
    33b4:	90                   	nop
}
    33b5:	48 8b 45 f8          	mov    -0x8(%rbp),%rax
    33b9:	c9                   	leave
    33ba:	c3                   	ret

00000000000033bb <_ZN3vkh29getPhysicalDevicePropertyListEP18VkPhysicalDevice_TPv>:

VkPhysicalDeviceProperties2
getPhysicalDevicePropertyList(VkPhysicalDevice physicalDevice,
                              void *pNextProperty) {
    33bb:	55                   	push   %rbp
    33bc:	48 89 e5             	mov    %rsp,%rbp
    33bf:	48 83 ec 20          	sub    $0x20,%rsp
    33c3:	48 89 7d f8          	mov    %rdi,-0x8(%rbp)
    33c7:	48 89 75 f0          	mov    %rsi,-0x10(%rbp)
    33cb:	48 89 55 e8          	mov    %rdx,-0x18(%rbp)
  VkPhysicalDeviceProperties2 properties;
  properties.sType = VK_STRUCTURE_TYPE_PHYSICAL_DEVICE_PROPERTIES_2;
    33cf:	48 8b 45 f8          	mov    -0x8(%rbp),%rax
    33d3:	c7 00 79 b0 9b 3b    	movl   $0x3b9bb079,(%rax)
  properties.pNext = pNextProperty;
    33d9:	48 8b 45 f8          	mov    -0x8(%rbp),%rax
    33dd:	48 8b 55 e8          	mov    -0x18(%rbp),%rdx
    33e1:	48 89 50 08          	mov    %rdx,0x8(%rax)
  vkGetPhysicalDeviceProperties2(physicalDevice, &properties);
    33e5:	48 8b 55 f8          	mov    -0x8(%rbp),%rdx
    33e9:	48 8b 45 f0          	mov    -0x10(%rbp),%rax
    33ed:	48 89 d6             	mov    %rdx,%rsi
    33f0:	48 89 c7             	mov    %rax,%rdi
    33f3:	e8 b8 ed ff ff       	call   21b0 <vkGetPhysicalDeviceProperties2@plt>
  return properties;
    33f8:	90                   	nop
}
    33f9:	48 8b 45 f8          	mov    -0x8(%rbp),%rax
    33fd:	c9                   	leave
    33fe:	c3                   	ret

00000000000033ff <_ZnwmPv>:
#endif // __cpp_sized_deallocation
#endif // __cpp_aligned_new

// Default placement versions of operator new.
_GLIBCXX_NODISCARD inline void* operator new(std::size_t, void* __p) _GLIBCXX_USE_NOEXCEPT
{ return __p; }
    33ff:	55                   	push   %rbp
    3400:	48 89 e5             	mov    %rsp,%rbp
    3403:	48 89 7d f8          	mov    %rdi,-0x8(%rbp)
    3407:	48 89 75 f0          	mov    %rsi,-0x10(%rbp)
    340b:	48 8b 45 f0          	mov    -0x10(%rbp),%rax
    340f:	5d                   	pop    %rbp
    3410:	c3                   	ret

0000000000003411 <_ZSt17__size_to_integerm>:
  inline _GLIBCXX_CONSTEXPR unsigned
  __size_to_integer(unsigned __n) { return __n; }
  inline _GLIBCXX_CONSTEXPR long
  __size_to_integer(long __n) { return __n; }
  inline _GLIBCXX_CONSTEXPR unsigned long
  __size_to_integer(unsigned long __n) { return __n; }
    3411:	55                   	push   %rbp
    3412:	48 89 e5             	mov    %rsp,%rbp
    3415:	48 89 7d f8          	mov    %rdi,-0x8(%rbp)
    3419:	48 8b 45 f8          	mov    -0x8(%rbp),%rax
    341d:	5d                   	pop    %rbp
    341e:	c3                   	ret
    341f:	90                   	nop

0000000000003420 <_ZNSt12_Vector_baseI21VkExtensionPropertiesSaIS0_EE12_Vector_implD1Ev>:
      struct _Vector_impl
    3420:	55                   	push   %rbp
    3421:	48 89 e5             	mov    %rsp,%rbp
    3424:	48 83 ec 10          	sub    $0x10,%rsp
    3428:	48 89 7d f8          	mov    %rdi,-0x8(%rbp)
    342c:	48 8b 45 f8          	mov    -0x8(%rbp),%rax
    3430:	48 89 c7             	mov    %rax,%rdi
    3433:	e8 3c 00 00 00       	call   3474 <_ZNSaI21VkExtensionPropertiesED1Ev>
    3438:	90                   	nop
    3439:	c9                   	leave
    343a:	c3                   	ret
    343b:	90                   	nop

000000000000343c <_ZNSt12_Vector_baseINSt7__cxx1112basic_stringIcSt11char_traitsIcESaIcEEESaIS5_EE12_Vector_implD1Ev>:
    343c:	55                   	push   %rbp
    343d:	48 89 e5             	mov    %rsp,%rbp
    3440:	48 83 ec 10          	sub    $0x10,%rsp
    3444:	48 89 7d f8          	mov    %rdi,-0x8(%rbp)
    3448:	48 8b 45 f8          	mov    -0x8(%rbp),%rax
    344c:	48 89 c7             	mov    %rax,%rdi
    344f:	e8 8e 01 00 00       	call   35e2 <_ZNSaINSt7__cxx1112basic_stringIcSt11char_traitsIcESaIcEEEED1Ev>
    3454:	90                   	nop
    3455:	c9                   	leave
    3456:	c3                   	ret
    3457:	90                   	nop

0000000000003458 <_ZNSaI21VkExtensionPropertiesEC1Ev>:
      allocator() _GLIBCXX_NOTHROW { }
    3458:	55                   	push   %rbp
    3459:	48 89 e5             	mov    %rsp,%rbp
    345c:	48 83 ec 10          	sub    $0x10,%rsp
    3460:	48 89 7d f8          	mov    %rdi,-0x8(%rbp)
    3464:	48 8b 45 f8          	mov    -0x8(%rbp),%rax
    3468:	48 89 c7             	mov    %rax,%rdi
    346b:	e8 22 04 00 00       	call   3892 <_ZNSt15__new_allocatorI21VkExtensionPropertiesEC1Ev>
    3470:	90                   	nop
    3471:	c9                   	leave
    3472:	c3                   	ret
    3473:	90                   	nop

0000000000003474 <_ZNSaI21VkExtensionPropertiesED1Ev>:
      ~allocator() _GLIBCXX_NOTHROW { }
    3474:	55                   	push   %rbp
    3475:	48 89 e5             	mov    %rsp,%rbp
    3478:	48 83 ec 10          	sub    $0x10,%rsp
    347c:	48 89 7d f8          	mov    %rdi,-0x8(%rbp)
    3480:	48 8b 45 f8          	mov    -0x8(%rbp),%rax
    3484:	48 89 c7             	mov    %rax,%rdi
    3487:	e8 12 04 00 00       	call   389e <_ZNSt15__new_allocatorI21VkExtensionPropertiesED1Ev>
    348c:	90                   	nop
    348d:	c9                   	leave
    348e:	c3                   	ret
    348f:	90                   	nop

0000000000003490 <_ZNSt6vectorI21VkExtensionPropertiesSaIS0_EEC1EmRKS1_>:
      vector(size_type __n, const allocator_type& __a = allocator_type())
    3490:	55                   	push   %rbp
    3491:	48 89 e5             	mov    %rsp,%rbp
    3494:	53                   	push   %rbx
    3495:	48 83 ec 28          	sub    $0x28,%rsp
    3499:	48 89 7d e8          	mov    %rdi,-0x18(%rbp)
    349d:	48 89 75 e0          	mov    %rsi,-0x20(%rbp)
    34a1:	48 89 55 d8          	mov    %rdx,-0x28(%rbp)
      : _Base(_S_check_init_len(__n, __a), __a)
    34a5:	48 8b 5d e8          	mov    -0x18(%rbp),%rbx
    34a9:	48 8b 55 d8          	mov    -0x28(%rbp),%rdx
    34ad:	48 8b 45 e0          	mov    -0x20(%rbp),%rax
    34b1:	48 89 d6             	mov    %rdx,%rsi
    34b4:	48 89 c7             	mov    %rax,%rdi
    34b7:	e8 ed 03 00 00       	call   38a9 <_ZNSt6vectorI21VkExtensionPropertiesSaIS0_EE17_S_check_init_lenEmRKS1_>
    34bc:	48 89 c1             	mov    %rax,%rcx
    34bf:	48 8b 45 d8          	mov    -0x28(%rbp),%rax
    34c3:	48 89 c2             	mov    %rax,%rdx
    34c6:	48 89 ce             	mov    %rcx,%rsi
    34c9:	48 89 df             	mov    %rbx,%rdi
    34cc:	e8 39 04 00 00       	call   390a <_ZNSt12_Vector_baseI21VkExtensionPropertiesSaIS0_EEC1EmRKS1_>
      { _M_default_initialize(__n); }
    34d1:	48 8b 55 e0          	mov    -0x20(%rbp),%rdx
    34d5:	48 8b 45 e8          	mov    -0x18(%rbp),%rax
    34d9:	48 89 d6             	mov    %rdx,%rsi
    34dc:	48 89 c7             	mov    %rax,%rdi
    34df:	e8 84 04 00 00       	call   3968 <_ZNSt6vectorI21VkExtensionPropertiesSaIS0_EE21_M_default_initializeEm>
    34e4:	eb 1a                	jmp    3500 <_ZNSt6vectorI21VkExtensionPropertiesSaIS0_EEC1EmRKS1_+0x70>
    34e6:	48 89 c3             	mov    %rax,%rbx
    34e9:	48 8b 45 e8          	mov    -0x18(%rbp),%rax
    34ed:	48 89 c7             	mov    %rax,%rdi
    34f0:	e8 79 00 00 00       	call   356e <_ZNSt12_Vector_baseI21VkExtensionPropertiesSaIS0_EED1Ev>
    34f5:	48 89 d8             	mov    %rbx,%rax
    34f8:	48 89 c7             	mov    %rax,%rdi
    34fb:	e8 30 ee ff ff       	call   2330 <_Unwind_Resume@plt>
    3500:	48 8b 5d f8          	mov    -0x8(%rbp),%rbx
    3504:	c9                   	leave
    3505:	c3                   	ret

0000000000003506 <_ZNSt6vectorI21VkExtensionPropertiesSaIS0_EED1Ev>:
      ~vector() _GLIBCXX_NOEXCEPT
    3506:	55                   	push   %rbp
    3507:	48 89 e5             	mov    %rsp,%rbp
    350a:	48 83 ec 10          	sub    $0x10,%rsp
    350e:	48 89 7d f8          	mov    %rdi,-0x8(%rbp)
		      _M_get_Tp_allocator());
    3512:	48 8b 45 f8          	mov    -0x8(%rbp),%rax
    3516:	48 89 c7             	mov    %rax,%rdi
    3519:	e8 8a 04 00 00       	call   39a8 <_ZNSt12_Vector_baseI21VkExtensionPropertiesSaIS0_EE19_M_get_Tp_allocatorEv>
    351e:	48 89 c2             	mov    %rax,%rdx
	std::_Destroy(this->_M_impl._M_start, this->_M_impl._M_finish,
    3521:	48 8b 45 f8          	mov    -0x8(%rbp),%rax
    3525:	48 8b 48 08          	mov    0x8(%rax),%rcx
    3529:	48 8b 45 f8          	mov    -0x8(%rbp),%rax
    352d:	48 8b 00             	mov    (%rax),%rax
    3530:	48 89 ce             	mov    %rcx,%rsi
    3533:	48 89 c7             	mov    %rax,%rdi
    3536:	e8 7b 04 00 00       	call   39b6 <_ZSt8_DestroyIP21VkExtensionPropertiesS0_EvT_S2_RSaIT0_E>
      }
    353b:	48 8b 45 f8          	mov    -0x8(%rbp),%rax
    353f:	48 89 c7             	mov    %rax,%rdi
    3542:	e8 27 00 00 00       	call   356e <_ZNSt12_Vector_baseI21VkExtensionPropertiesSaIS0_EED1Ev>
    3547:	90                   	nop
    3548:	c9                   	leave
    3549:	c3                   	ret

000000000000354a <_ZNSt6vectorI21VkExtensionPropertiesSaIS0_EE4dataEv>:
       *   Returns a pointer such that [data(), data() + size()) is a valid
       *   range.  For a non-empty %vector, data() == &front().
       */
      _GLIBCXX_NODISCARD _GLIBCXX20_CONSTEXPR
      _Tp*
      data() _GLIBCXX_NOEXCEPT
    354a:	55                   	push   %rbp
    354b:	48 89 e5             	mov    %rsp,%rbp
    354e:	48 83 ec 10          	sub    $0x10,%rsp
    3552:	48 89 7d f8          	mov    %rdi,-0x8(%rbp)
      { return _M_data_ptr(this->_M_impl._M_start); }
    3556:	48 8b 45 f8          	mov    -0x8(%rbp),%rax
    355a:	48 8b 10             	mov    (%rax),%rdx
    355d:	48 8b 45 f8          	mov    -0x8(%rbp),%rax
    3561:	48 89 d6             	mov    %rdx,%rsi
    3564:	48 89 c7             	mov    %rax,%rdi
    3567:	e8 74 04 00 00       	call   39e0 <_ZNKSt6vectorI21VkExtensionPropertiesSaIS0_EE11_M_data_ptrIS0_EEPT_S5_>
    356c:	c9                   	leave
    356d:	c3                   	ret

000000000000356e <_ZNSt12_Vector_baseI21VkExtensionPropertiesSaIS0_EED1Ev>:
      ~_Vector_base() _GLIBCXX_NOEXCEPT
    356e:	55                   	push   %rbp
    356f:	48 89 e5             	mov    %rsp,%rbp
    3572:	48 83 ec 10          	sub    $0x10,%rsp
    3576:	48 89 7d f8          	mov    %rdi,-0x8(%rbp)
		      _M_impl._M_end_of_storage - _M_impl._M_start);
    357a:	48 8b 45 f8          	mov    -0x8(%rbp),%rax
    357e:	48 8b 50 10          	mov    0x10(%rax),%rdx
    3582:	48 8b 45 f8          	mov    -0x8(%rbp),%rax
    3586:	48 8b 00             	mov    (%rax),%rax
    3589:	48 29 c2             	sub    %rax,%rdx
    358c:	48 c1 fa 02          	sar    $0x2,%rdx
    3590:	48 b8 c1 0f fc c0 0f 	movabs $0xfc0fc0fc0fc0fc1,%rax
    3597:	fc c0 0f 
    359a:	48 0f af c2          	imul   %rdx,%rax
	_M_deallocate(_M_impl._M_start,
    359e:	48 89 c2             	mov    %rax,%rdx
    35a1:	48 8b 45 f8          	mov    -0x8(%rbp),%rax
    35a5:	48 8b 08             	mov    (%rax),%rcx
    35a8:	48 8b 45 f8          	mov    -0x8(%rbp),%rax
    35ac:	48 89 ce             	mov    %rcx,%rsi
    35af:	48 89 c7             	mov    %rax,%rdi
    35b2:	e8 61 04 00 00       	call   3a18 <_ZNSt12_Vector_baseI21VkExtensionPropertiesSaIS0_EE13_M_deallocateEPS0_m>
      }
    35b7:	48 8b 45 f8          	mov    -0x8(%rbp),%rax
    35bb:	48 89 c7             	mov    %rax,%rdi
    35be:	e8 5d fe ff ff       	call   3420 <_ZNSt12_Vector_baseI21VkExtensionPropertiesSaIS0_EE12_Vector_implD1Ev>
    35c3:	90                   	nop
    35c4:	c9                   	leave
    35c5:	c3                   	ret

00000000000035c6 <_ZNSaINSt7__cxx1112basic_stringIcSt11char_traitsIcESaIcEEEEC1Ev>:
      allocator() _GLIBCXX_NOTHROW { }
    35c6:	55                   	push   %rbp
    35c7:	48 89 e5             	mov    %rsp,%rbp
    35ca:	48 83 ec 10          	sub    $0x10,%rsp
    35ce:	48 89 7d f8          	mov    %rdi,-0x8(%rbp)
    35d2:	48 8b 45 f8          	mov    -0x8(%rbp),%rax
    35d6:	48 89 c7             	mov    %rax,%rdi
    35d9:	e8 70 04 00 00       	call   3a4e <_ZNSt15__new_allocatorINSt7__cxx1112basic_stringIcSt11char_traitsIcESaIcEEEEC1Ev>
    35de:	90                   	nop
    35df:	c9                   	leave
    35e0:	c3                   	ret
    35e1:	90                   	nop

00000000000035e2 <_ZNSaINSt7__cxx1112basic_stringIcSt11char_traitsIcESaIcEEEED1Ev>:
      ~allocator() _GLIBCXX_NOTHROW { }
    35e2:	55                   	push   %rbp
    35e3:	48 89 e5             	mov    %rsp,%rbp
    35e6:	48 83 ec 10          	sub    $0x10,%rsp
    35ea:	48 89 7d f8          	mov    %rdi,-0x8(%rbp)
    35ee:	48 8b 45 f8          	mov    -0x8(%rbp),%rax
    35f2:	48 89 c7             	mov    %rax,%rdi
    35f5:	e8 60 04 00 00       	call   3a5a <_ZNSt15__new_allocatorINSt7__cxx1112basic_stringIcSt11char_traitsIcESaIcEEEED1Ev>
    35fa:	90                   	nop
    35fb:	c9                   	leave
    35fc:	c3                   	ret
    35fd:	90                   	nop

00000000000035fe <_ZNSt6vectorINSt7__cxx1112basic_stringIcSt11char_traitsIcESaIcEEESaIS5_EEC1EmRKS6_>:
      vector(size_type __n, const allocator_type& __a = allocator_type())
    35fe:	55                   	push   %rbp
    35ff:	48 89 e5             	mov    %rsp,%rbp
    3602:	53                   	push   %rbx
    3603:	48 83 ec 28          	sub    $0x28,%rsp
    3607:	48 89 7d e8          	mov    %rdi,-0x18(%rbp)
    360b:	48 89 75 e0          	mov    %rsi,-0x20(%rbp)
    360f:	48 89 55 d8          	mov    %rdx,-0x28(%rbp)
      : _Base(_S_check_init_len(__n, __a), __a)
    3613:	48 8b 5d e8          	mov    -0x18(%rbp),%rbx
    3617:	48 8b 55 d8          	mov    -0x28(%rbp),%rdx
    361b:	48 8b 45 e0          	mov    -0x20(%rbp),%rax
    361f:	48 89 d6             	mov    %rdx,%rsi
    3622:	48 89 c7             	mov    %rax,%rdi
    3625:	e8 3b 04 00 00       	call   3a65 <_ZNSt6vectorINSt7__cxx1112basic_stringIcSt11char_traitsIcESaIcEEESaIS5_EE17_S_check_init_lenEmRKS6_>
    362a:	48 89 c1             	mov    %rax,%rcx
    362d:	48 8b 45 d8          	mov    -0x28(%rbp),%rax
    3631:	48 89 c2             	mov    %rax,%rdx
    3634:	48 89 ce             	mov    %rcx,%rsi
    3637:	48 89 df             	mov    %rbx,%rdi
    363a:	e8 87 04 00 00       	call   3ac6 <_ZNSt12_Vector_baseINSt7__cxx1112basic_stringIcSt11char_traitsIcESaIcEEESaIS5_EEC1EmRKS6_>
      { _M_default_initialize(__n); }
    363f:	48 8b 55 e0          	mov    -0x20(%rbp),%rdx
    3643:	48 8b 45 e8          	mov    -0x18(%rbp),%rax
    3647:	48 89 d6             	mov    %rdx,%rsi
    364a:	48 89 c7             	mov    %rax,%rdi
    364d:	e8 d2 04 00 00       	call   3b24 <_ZNSt6vectorINSt7__cxx1112basic_stringIcSt11char_traitsIcESaIcEEESaIS5_EE21_M_default_initializeEm>
    3652:	eb 1a                	jmp    366e <_ZNSt6vectorINSt7__cxx1112basic_stringIcSt11char_traitsIcESaIcEEESaIS5_EEC1EmRKS6_+0x70>
    3654:	48 89 c3             	mov    %rax,%rbx
    3657:	48 8b 45 e8          	mov    -0x18(%rbp),%rax
    365b:	48 89 c7             	mov    %rax,%rdi
    365e:	e8 75 00 00 00       	call   36d8 <_ZNSt12_Vector_baseINSt7__cxx1112basic_stringIcSt11char_traitsIcESaIcEEESaIS5_EED1Ev>
    3663:	48 89 d8             	mov    %rbx,%rax
    3666:	48 89 c7             	mov    %rax,%rdi
    3669:	e8 c2 ec ff ff       	call   2330 <_Unwind_Resume@plt>
    366e:	48 8b 5d f8          	mov    -0x8(%rbp),%rbx
    3672:	c9                   	leave
    3673:	c3                   	ret

0000000000003674 <_ZNSt6vectorINSt7__cxx1112basic_stringIcSt11char_traitsIcESaIcEEESaIS5_EED1Ev>:
      ~vector() _GLIBCXX_NOEXCEPT
    3674:	55                   	push   %rbp
    3675:	48 89 e5             	mov    %rsp,%rbp
    3678:	48 83 ec 10          	sub    $0x10,%rsp
    367c:	48 89 7d f8          	mov    %rdi,-0x8(%rbp)
		      _M_get_Tp_allocator());
    3680:	48 8b 45 f8          	mov    -0x8(%rbp),%rax
    3684:	48 89 c7             	mov    %rax,%rdi
    3687:	e8 d8 04 00 00       	call   3b64 <_ZNSt12_Vector_baseINSt7__cxx1112basic_stringIcSt11char_traitsIcESaIcEEESaIS5_EE19_M_get_Tp_allocatorEv>
    368c:	48 89 c2             	mov    %rax,%rdx
	std::_Destroy(this->_M_impl._M_start, this->_M_impl._M_finish,
    368f:	48 8b 45 f8          	mov    -0x8(%rbp),%rax
    3693:	48 8b 48 08          	mov    0x8(%rax),%rcx
    3697:	48 8b 45 f8          	mov    -0x8(%rbp),%rax
    369b:	48 8b 00             	mov    (%rax),%rax
    369e:	48 89 ce             	mov    %rcx,%rsi
    36a1:	48 89 c7             	mov    %rax,%rdi
    36a4:	e8 c9 04 00 00       	call   3b72 <_ZSt8_DestroyIPNSt7__cxx1112basic_stringIcSt11char_traitsIcESaIcEEES5_EvT_S7_RSaIT0_E>
      }
    36a9:	48 8b 45 f8          	mov    -0x8(%rbp),%rax
    36ad:	48 89 c7             	mov    %rax,%rdi
    36b0:	e8 23 00 00 00       	call   36d8 <_ZNSt12_Vector_baseINSt7__cxx1112basic_stringIcSt11char_traitsIcESaIcEEESaIS5_EED1Ev>
    36b5:	90                   	nop
    36b6:	c9                   	leave
    36b7:	c3                   	ret

00000000000036b8 <_ZNSt6vectorINSt7__cxx1112basic_stringIcSt11char_traitsIcESaIcEEESaIS5_EEixEm>:
      operator[](size_type __n) _GLIBCXX_NOEXCEPT
    36b8:	55                   	push   %rbp
    36b9:	48 89 e5             	mov    %rsp,%rbp
    36bc:	48 89 7d f8          	mov    %rdi,-0x8(%rbp)
    36c0:	48 89 75 f0          	mov    %rsi,-0x10(%rbp)
	return *(this->_M_impl._M_start + __n);
    36c4:	48 8b 45 f8          	mov    -0x8(%rbp),%rax
    36c8:	48 8b 00             	mov    (%rax),%rax
    36cb:	48 8b 55 f0          	mov    -0x10(%rbp),%rdx
    36cf:	48 c1 e2 05          	shl    $0x5,%rdx
    36d3:	48 01 d0             	add    %rdx,%rax
      }
    36d6:	5d                   	pop    %rbp
    36d7:	c3                   	ret

00000000000036d8 <_ZNSt12_Vector_baseINSt7__cxx1112basic_stringIcSt11char_traitsIcESaIcEEESaIS5_EED1Ev>:
      ~_Vector_base() _GLIBCXX_NOEXCEPT
    36d8:	55                   	push   %rbp
    36d9:	48 89 e5             	mov    %rsp,%rbp
    36dc:	48 83 ec 10          	sub    $0x10,%rsp
    36e0:	48 89 7d f8          	mov    %rdi,-0x8(%rbp)
		      _M_impl._M_end_of_storage - _M_impl._M_start);
    36e4:	48 8b 45 f8          	mov    -0x8(%rbp),%rax
    36e8:	48 8b 50 10          	mov    0x10(%rax),%rdx
    36ec:	48 8b 45 f8          	mov    -0x8(%rbp),%rax
    36f0:	48 8b 00             	mov    (%rax),%rax
    36f3:	48 29 c2             	sub    %rax,%rdx
    36f6:	48 89 d0             	mov    %rdx,%rax
    36f9:	48 c1 f8 05          	sar    $0x5,%rax
	_M_deallocate(_M_impl._M_start,
    36fd:	48 89 c2             	mov    %rax,%rdx
    3700:	48 8b 45 f8          	mov    -0x8(%rbp),%rax
    3704:	48 8b 08             	mov    (%rax),%rcx
    3707:	48 8b 45 f8          	mov    -0x8(%rbp),%rax
    370b:	48 89 ce             	mov    %rcx,%rsi
    370e:	48 89 c7             	mov    %rax,%rdi
    3711:	e8 ac 04 00 00       	call   3bc2 <_ZNSt12_Vector_baseINSt7__cxx1112basic_stringIcSt11char_traitsIcESaIcEEESaIS5_EE13_M_deallocateEPS5_m>
      }
    3716:	48 8b 45 f8          	mov    -0x8(%rbp),%rax
    371a:	48 89 c7             	mov    %rax,%rdi
    371d:	e8 1a fd ff ff       	call   343c <_ZNSt12_Vector_baseINSt7__cxx1112basic_stringIcSt11char_traitsIcESaIcEEESaIS5_EE12_Vector_implD1Ev>
    3722:	90                   	nop
    3723:	c9                   	leave
    3724:	c3                   	ret
    3725:	90                   	nop

0000000000003726 <_ZNSaI17VkLayerPropertiesEC1Ev>:
      allocator() _GLIBCXX_NOTHROW { }
    3726:	55                   	push   %rbp
    3727:	48 89 e5             	mov    %rsp,%rbp
    372a:	48 83 ec 10          	sub    $0x10,%rsp
    372e:	48 89 7d f8          	mov    %rdi,-0x8(%rbp)
    3732:	48 8b 45 f8          	mov    -0x8(%rbp),%rax
    3736:	48 89 c7             	mov    %rax,%rdi
    3739:	e8 ba 04 00 00       	call   3bf8 <_ZNSt15__new_allocatorI17VkLayerPropertiesEC1Ev>
    373e:	90                   	nop
    373f:	c9                   	leave
    3740:	c3                   	ret
    3741:	90                   	nop

0000000000003742 <_ZNSt6vectorI17VkLayerPropertiesSaIS0_EEC1EmRKS1_>:
      vector(size_type __n, const allocator_type& __a = allocator_type())
    3742:	55                   	push   %rbp
    3743:	48 89 e5             	mov    %rsp,%rbp
    3746:	53                   	push   %rbx
    3747:	48 83 ec 28          	sub    $0x28,%rsp
    374b:	48 89 7d e8          	mov    %rdi,-0x18(%rbp)
    374f:	48 89 75 e0          	mov    %rsi,-0x20(%rbp)
    3753:	48 89 55 d8          	mov    %rdx,-0x28(%rbp)
      : _Base(_S_check_init_len(__n, __a), __a)
    3757:	48 8b 5d e8          	mov    -0x18(%rbp),%rbx
    375b:	48 8b 55 d8          	mov    -0x28(%rbp),%rdx
    375f:	48 8b 45 e0          	mov    -0x20(%rbp),%rax
    3763:	48 89 d6             	mov    %rdx,%rsi
    3766:	48 89 c7             	mov    %rax,%rdi
    3769:	e8 95 04 00 00       	call   3c03 <_ZNSt6vectorI17VkLayerPropertiesSaIS0_EE17_S_check_init_lenEmRKS1_>
    376e:	48 89 c1             	mov    %rax,%rcx
    3771:	48 8b 45 d8          	mov    -0x28(%rbp),%rax
    3775:	48 89 c2             	mov    %rax,%rdx
    3778:	48 89 ce             	mov    %rcx,%rsi
    377b:	48 89 df             	mov    %rbx,%rdi
    377e:	e8 e1 04 00 00       	call   3c64 <_ZNSt12_Vector_baseI17VkLayerPropertiesSaIS0_EEC1EmRKS1_>
      { _M_default_initialize(__n); }
    3783:	48 8b 55 e0          	mov    -0x20(%rbp),%rdx
    3787:	48 8b 45 e8          	mov    -0x18(%rbp),%rax
    378b:	48 89 d6             	mov    %rdx,%rsi
    378e:	48 89 c7             	mov    %rax,%rdi
    3791:	e8 2c 05 00 00       	call   3cc2 <_ZNSt6vectorI17VkLayerPropertiesSaIS0_EE21_M_default_initializeEm>
    3796:	eb 1a                	jmp    37b2 <_ZNSt6vectorI17VkLayerPropertiesSaIS0_EEC1EmRKS1_+0x70>
    3798:	48 89 c3             	mov    %rax,%rbx
    379b:	48 8b 45 e8          	mov    -0x18(%rbp),%rax
    379f:	48 89 c7             	mov    %rax,%rdi
    37a2:	e8 83 f1 ff ff       	call   292a <_ZNSt12_Vector_baseI17VkLayerPropertiesSaIS0_EED1Ev>
    37a7:	48 89 d8             	mov    %rbx,%rax
    37aa:	48 89 c7             	mov    %rax,%rdi
    37ad:	e8 7e eb ff ff       	call   2330 <_Unwind_Resume@plt>
    37b2:	48 8b 5d f8          	mov    -0x8(%rbp),%rbx
    37b6:	c9                   	leave
    37b7:	c3                   	ret

00000000000037b8 <_ZNSt6vectorI17VkLayerPropertiesSaIS0_EE4dataEv>:
      data() _GLIBCXX_NOEXCEPT
    37b8:	55                   	push   %rbp
    37b9:	48 89 e5             	mov    %rsp,%rbp
    37bc:	48 83 ec 10          	sub    $0x10,%rsp
    37c0:	48 89 7d f8          	mov    %rdi,-0x8(%rbp)
      { return _M_data_ptr(this->_M_impl._M_start); }
    37c4:	48 8b 45 f8          	mov    -0x8(%rbp),%rax
    37c8:	48 8b 10             	mov    (%rax),%rdx
    37cb:	48 8b 45 f8          	mov    -0x8(%rbp),%rax
    37cf:	48 89 d6             	mov    %rdx,%rsi
    37d2:	48 89 c7             	mov    %rax,%rdi
    37d5:	e8 28 05 00 00       	call   3d02 <_ZNKSt6vectorI17VkLayerPropertiesSaIS0_EE11_M_data_ptrIS0_EEPT_S5_>
    37da:	c9                   	leave
    37db:	c3                   	ret

00000000000037dc <_ZNSaIP18VkPhysicalDevice_TEC1Ev>:
    37dc:	55                   	push   %rbp
    37dd:	48 89 e5             	mov    %rsp,%rbp
    37e0:	48 83 ec 10          	sub    $0x10,%rsp
    37e4:	48 89 7d f8          	mov    %rdi,-0x8(%rbp)
    37e8:	48 8b 45 f8          	mov    -0x8(%rbp),%rax
    37ec:	48 89 c7             	mov    %rax,%rdi
    37ef:	e8 46 05 00 00       	call   3d3a <_ZNSt15__new_allocatorIP18VkPhysicalDevice_TEC1Ev>
    37f4:	90                   	nop
    37f5:	c9                   	leave
    37f6:	c3                   	ret
    37f7:	90                   	nop

00000000000037f8 <_ZNSt6vectorIP18VkPhysicalDevice_TSaIS1_EEC1EmRKS2_>:
      vector(size_type __n, const allocator_type& __a = allocator_type())
    37f8:	55                   	push   %rbp
    37f9:	48 89 e5             	mov    %rsp,%rbp
    37fc:	53                   	push   %rbx
    37fd:	48 83 ec 28          	sub    $0x28,%rsp
    3801:	48 89 7d e8          	mov    %rdi,-0x18(%rbp)
    3805:	48 89 75 e0          	mov    %rsi,-0x20(%rbp)
    3809:	48 89 55 d8          	mov    %rdx,-0x28(%rbp)
      : _Base(_S_check_init_len(__n, __a), __a)
    380d:	48 8b 5d e8          	mov    -0x18(%rbp),%rbx
    3811:	48 8b 55 d8          	mov    -0x28(%rbp),%rdx
    3815:	48 8b 45 e0          	mov    -0x20(%rbp),%rax
    3819:	48 89 d6             	mov    %rdx,%rsi
    381c:	48 89 c7             	mov    %rax,%rdi
    381f:	e8 21 05 00 00       	call   3d45 <_ZNSt6vectorIP18VkPhysicalDevice_TSaIS1_EE17_S_check_init_lenEmRKS2_>
    3824:	48 89 c1             	mov    %rax,%rcx
    3827:	48 8b 45 d8          	mov    -0x28(%rbp),%rax
    382b:	48 89 c2             	mov    %rax,%rdx
    382e:	48 89 ce             	mov    %rcx,%rsi
    3831:	48 89 df             	mov    %rbx,%rdi
    3834:	e8 6d 05 00 00       	call   3da6 <_ZNSt12_Vector_baseIP18VkPhysicalDevice_TSaIS1_EEC1EmRKS2_>
      { _M_default_initialize(__n); }
    3839:	48 8b 55 e0          	mov    -0x20(%rbp),%rdx
    383d:	48 8b 45 e8          	mov    -0x18(%rbp),%rax
    3841:	48 89 d6             	mov    %rdx,%rsi
    3844:	48 89 c7             	mov    %rax,%rdi
    3847:	e8 b8 05 00 00       	call   3e04 <_ZNSt6vectorIP18VkPhysicalDevice_TSaIS1_EE21_M_default_initializeEm>
    384c:	eb 1a                	jmp    3868 <_ZNSt6vectorIP18VkPhysicalDevice_TSaIS1_EEC1EmRKS2_+0x70>
    384e:	48 89 c3             	mov    %rax,%rbx
    3851:	48 8b 45 e8          	mov    -0x18(%rbp),%rax
    3855:	48 89 c7             	mov    %rax,%rdi
    3858:	e8 2b f0 ff ff       	call   2888 <_ZNSt12_Vector_baseIP18VkPhysicalDevice_TSaIS1_EED1Ev>
    385d:	48 89 d8             	mov    %rbx,%rax
    3860:	48 89 c7             	mov    %rax,%rdi
    3863:	e8 c8 ea ff ff       	call   2330 <_Unwind_Resume@plt>
    3868:	48 8b 5d f8          	mov    -0x8(%rbp),%rbx
    386c:	c9                   	leave
    386d:	c3                   	ret

000000000000386e <_ZNSt6vectorIP18VkPhysicalDevice_TSaIS1_EE4dataEv>:
      data() _GLIBCXX_NOEXCEPT
    386e:	55                   	push   %rbp
    386f:	48 89 e5             	mov    %rsp,%rbp
    3872:	48 83 ec 10          	sub    $0x10,%rsp
    3876:	48 89 7d f8          	mov    %rdi,-0x8(%rbp)
      { return _M_data_ptr(this->_M_impl._M_start); }
    387a:	48 8b 45 f8          	mov    -0x8(%rbp),%rax
    387e:	48 8b 10             	mov    (%rax),%rdx
    3881:	48 8b 45 f8          	mov    -0x8(%rbp),%rax
    3885:	48 89 d6             	mov    %rdx,%rsi
    3888:	48 89 c7             	mov    %rax,%rdi
    388b:	e8 b4 05 00 00       	call   3e44 <_ZNKSt6vectorIP18VkPhysicalDevice_TSaIS1_EE11_M_data_ptrIS1_EEPT_S6_>
    3890:	c9                   	leave
    3891:	c3                   	ret

0000000000003892 <_ZNSt15__new_allocatorI21VkExtensionPropertiesEC1Ev>:
      __new_allocator() _GLIBCXX_USE_NOEXCEPT { }
    3892:	55                   	push   %rbp
    3893:	48 89 e5             	mov    %rsp,%rbp
    3896:	48 89 7d f8          	mov    %rdi,-0x8(%rbp)
    389a:	90                   	nop
    389b:	5d                   	pop    %rbp
    389c:	c3                   	ret
    389d:	90                   	nop

000000000000389e <_ZNSt15__new_allocatorI21VkExtensionPropertiesED1Ev>:
      ~__new_allocator() _GLIBCXX_USE_NOEXCEPT { }
    389e:	55                   	push   %rbp
    389f:	48 89 e5             	mov    %rsp,%rbp
    38a2:	48 89 7d f8          	mov    %rdi,-0x8(%rbp)
    38a6:	90                   	nop
    38a7:	5d                   	pop    %rbp
    38a8:	c3                   	ret

00000000000038a9 <_ZNSt6vectorI21VkExtensionPropertiesSaIS0_EE17_S_check_init_lenEmRKS1_>:
	return (__len < size() || __len > max_size()) ? max_size() : __len;
      }

      // Called by constructors to check initial size.
      static _GLIBCXX20_CONSTEXPR size_type
      _S_check_init_len(size_type __n, const allocator_type& __a)
    38a9:	55                   	push   %rbp
    38aa:	48 89 e5             	mov    %rsp,%rbp
    38ad:	53                   	push   %rbx
    38ae:	48 83 ec 28          	sub    $0x28,%rsp
    38b2:	48 89 7d d8          	mov    %rdi,-0x28(%rbp)
    38b6:	48 89 75 d0          	mov    %rsi,-0x30(%rbp)
      {
	if (__n > _S_max_size(_Tp_alloc_type(__a)))
    38ba:	48 8b 55 d0          	mov    -0x30(%rbp),%rdx
    38be:	48 8d 45 ef          	lea    -0x11(%rbp),%rax
    38c2:	48 89 d6             	mov    %rdx,%rsi
    38c5:	48 89 c7             	mov    %rax,%rdi
    38c8:	e8 25 01 00 00       	call   39f2 <_ZNSaI21VkExtensionPropertiesEC1ERKS0_>
    38cd:	48 8d 45 ef          	lea    -0x11(%rbp),%rax
    38d1:	48 89 c7             	mov    %rax,%rdi
    38d4:	e8 a3 05 00 00       	call   3e7c <_ZNSt6vectorI21VkExtensionPropertiesSaIS0_EE11_S_max_sizeERKS1_>
    38d9:	48 3b 45 d8          	cmp    -0x28(%rbp),%rax
    38dd:	0f 92 c3             	setb   %bl
    38e0:	48 8d 45 ef          	lea    -0x11(%rbp),%rax
    38e4:	48 89 c7             	mov    %rax,%rdi
    38e7:	e8 88 fb ff ff       	call   3474 <_ZNSaI21VkExtensionPropertiesED1Ev>
    38ec:	84 db                	test   %bl,%bl
    38ee:	74 0f                	je     38ff <_ZNSt6vectorI21VkExtensionPropertiesSaIS0_EE17_S_check_init_lenEmRKS1_+0x56>
	  __throw_length_error(
    38f0:	48 8d 05 89 3f 00 00 	lea    0x3f89(%rip),%rax        # 7880 <_ZL47VK_FORMAT_FEATURE_2_BOX_FILTER_SAMPLED_BIT_QCOM+0xb8>
    38f7:	48 89 c7             	mov    %rax,%rdi
    38fa:	e8 d1 e7 ff ff       	call   20d0 <_ZSt20__throw_length_errorPKc@plt>
	      __N("cannot create std::vector larger than max_size()"));
	return __n;
    38ff:	48 8b 45 d8          	mov    -0x28(%rbp),%rax
      }
    3903:	48 8b 5d f8          	mov    -0x8(%rbp),%rbx
    3907:	c9                   	leave
    3908:	c3                   	ret
    3909:	90                   	nop

000000000000390a <_ZNSt12_Vector_baseI21VkExtensionPropertiesSaIS0_EEC1EmRKS1_>:
      _Vector_base(size_t __n, const allocator_type& __a)
    390a:	55                   	push   %rbp
    390b:	48 89 e5             	mov    %rsp,%rbp
    390e:	53                   	push   %rbx
    390f:	48 83 ec 28          	sub    $0x28,%rsp
    3913:	48 89 7d e8          	mov    %rdi,-0x18(%rbp)
    3917:	48 89 75 e0          	mov    %rsi,-0x20(%rbp)
    391b:	48 89 55 d8          	mov    %rdx,-0x28(%rbp)
      : _M_impl(__a)
    391f:	48 8b 45 e8          	mov    -0x18(%rbp),%rax
    3923:	48 8b 55 d8          	mov    -0x28(%rbp),%rdx
    3927:	48 89 d6             	mov    %rdx,%rsi
    392a:	48 89 c7             	mov    %rax,%rdi
    392d:	e8 8c 05 00 00       	call   3ebe <_ZNSt12_Vector_baseI21VkExtensionPropertiesSaIS0_EE12_Vector_implC1ERKS1_>
      { _M_create_storage(__n); }
    3932:	48 8b 55 e0          	mov    -0x20(%rbp),%rdx
    3936:	48 8b 45 e8          	mov    -0x18(%rbp),%rax
    393a:	48 89 d6             	mov    %rdx,%rsi
    393d:	48 89 c7             	mov    %rax,%rdi
    3940:	e8 ab 05 00 00       	call   3ef0 <_ZNSt12_Vector_baseI21VkExtensionPropertiesSaIS0_EE17_M_create_storageEm>
    3945:	eb 1a                	jmp    3961 <_ZNSt12_Vector_baseI21VkExtensionPropertiesSaIS0_EEC1EmRKS1_+0x57>
    3947:	48 89 c3             	mov    %rax,%rbx
    394a:	48 8b 45 e8          	mov    -0x18(%rbp),%rax
    394e:	48 89 c7             	mov    %rax,%rdi
    3951:	e8 ca fa ff ff       	call   3420 <_ZNSt12_Vector_baseI21VkExtensionPropertiesSaIS0_EE12_Vector_implD1Ev>
    3956:	48 89 d8             	mov    %rbx,%rax
    3959:	48 89 c7             	mov    %rax,%rdi
    395c:	e8 cf e9 ff ff       	call   2330 <_Unwind_Resume@plt>
    3961:	48 8b 5d f8          	mov    -0x8(%rbp),%rbx
    3965:	c9                   	leave
    3966:	c3                   	ret
    3967:	90                   	nop

0000000000003968 <_ZNSt6vectorI21VkExtensionPropertiesSaIS0_EE21_M_default_initializeEm>:
      _M_default_initialize(size_type __n)
    3968:	55                   	push   %rbp
    3969:	48 89 e5             	mov    %rsp,%rbp
    396c:	48 83 ec 10          	sub    $0x10,%rsp
    3970:	48 89 7d f8          	mov    %rdi,-0x8(%rbp)
    3974:	48 89 75 f0          	mov    %rsi,-0x10(%rbp)
					   _M_get_Tp_allocator());
    3978:	48 8b 45 f8          	mov    -0x8(%rbp),%rax
    397c:	48 89 c7             	mov    %rax,%rdi
    397f:	e8 24 00 00 00       	call   39a8 <_ZNSt12_Vector_baseI21VkExtensionPropertiesSaIS0_EE19_M_get_Tp_allocatorEv>
    3984:	48 89 c2             	mov    %rax,%rdx
	  std::__uninitialized_default_n_a(this->_M_impl._M_start, __n,
    3987:	48 8b 45 f8          	mov    -0x8(%rbp),%rax
    398b:	48 8b 00             	mov    (%rax),%rax
    398e:	48 8b 4d f0          	mov    -0x10(%rbp),%rcx
    3992:	48 89 ce             	mov    %rcx,%rsi
    3995:	48 89 c7             	mov    %rax,%rdi
    3998:	e8 b4 05 00 00       	call   3f51 <_ZSt27__uninitialized_default_n_aIP21VkExtensionPropertiesmS0_ET_S2_T0_RSaIT1_E>
	this->_M_impl._M_finish =
    399d:	48 8b 55 f8          	mov    -0x8(%rbp),%rdx
    39a1:	48 89 42 08          	mov    %rax,0x8(%rdx)
      }
    39a5:	90                   	nop
    39a6:	c9                   	leave
    39a7:	c3                   	ret

00000000000039a8 <_ZNSt12_Vector_baseI21VkExtensionPropertiesSaIS0_EE19_M_get_Tp_allocatorEv>:
      _M_get_Tp_allocator() _GLIBCXX_NOEXCEPT
    39a8:	55                   	push   %rbp
    39a9:	48 89 e5             	mov    %rsp,%rbp
    39ac:	48 89 7d f8          	mov    %rdi,-0x8(%rbp)
      { return this->_M_impl; }
    39b0:	48 8b 45 f8          	mov    -0x8(%rbp),%rax
    39b4:	5d                   	pop    %rbp
    39b5:	c3                   	ret

00000000000039b6 <_ZSt8_DestroyIP21VkExtensionPropertiesS0_EvT_S2_RSaIT0_E>:
    _Destroy(_ForwardIterator __first, _ForwardIterator __last,
    39b6:	55                   	push   %rbp
    39b7:	48 89 e5             	mov    %rsp,%rbp
    39ba:	48 83 ec 20          	sub    $0x20,%rsp
    39be:	48 89 7d f8          	mov    %rdi,-0x8(%rbp)
    39c2:	48 89 75 f0          	mov    %rsi,-0x10(%rbp)
    39c6:	48 89 55 e8          	mov    %rdx,-0x18(%rbp)
      _Destroy(__first, __last);
    39ca:	48 8b 55 f0          	mov    -0x10(%rbp),%rdx
    39ce:	48 8b 45 f8          	mov    -0x8(%rbp),%rax
    39d2:	48 89 d6             	mov    %rdx,%rsi
    39d5:	48 89 c7             	mov    %rax,%rdi
    39d8:	e8 9d 05 00 00       	call   3f7a <_ZSt8_DestroyIP21VkExtensionPropertiesEvT_S2_>
    }
    39dd:	90                   	nop
    39de:	c9                   	leave
    39df:	c3                   	ret

00000000000039e0 <_ZNKSt6vectorI21VkExtensionPropertiesSaIS0_EE11_M_data_ptrIS0_EEPT_S5_>:
#endif

      template<typename _Up>
	_GLIBCXX20_CONSTEXPR
	_Up*
	_M_data_ptr(_Up* __ptr) const _GLIBCXX_NOEXCEPT
    39e0:	55                   	push   %rbp
    39e1:	48 89 e5             	mov    %rsp,%rbp
    39e4:	48 89 7d f8          	mov    %rdi,-0x8(%rbp)
    39e8:	48 89 75 f0          	mov    %rsi,-0x10(%rbp)
	{ return __ptr; }
    39ec:	48 8b 45 f0          	mov    -0x10(%rbp),%rax
    39f0:	5d                   	pop    %rbp
    39f1:	c3                   	ret

00000000000039f2 <_ZNSaI21VkExtensionPropertiesEC1ERKS0_>:
      allocator(const allocator& __a) _GLIBCXX_NOTHROW
    39f2:	55                   	push   %rbp
    39f3:	48 89 e5             	mov    %rsp,%rbp
    39f6:	48 83 ec 10          	sub    $0x10,%rsp
    39fa:	48 89 7d f8          	mov    %rdi,-0x8(%rbp)
    39fe:	48 89 75 f0          	mov    %rsi,-0x10(%rbp)
      : __allocator_base<_Tp>(__a) { }
    3a02:	48 8b 55 f0          	mov    -0x10(%rbp),%rdx
    3a06:	48 8b 45 f8          	mov    -0x8(%rbp),%rax
    3a0a:	48 89 d6             	mov    %rdx,%rsi
    3a0d:	48 89 c7             	mov    %rax,%rdi
    3a10:	e8 8b 05 00 00       	call   3fa0 <_ZNSt15__new_allocatorI21VkExtensionPropertiesEC1ERKS1_>
    3a15:	90                   	nop
    3a16:	c9                   	leave
    3a17:	c3                   	ret

0000000000003a18 <_ZNSt12_Vector_baseI21VkExtensionPropertiesSaIS0_EE13_M_deallocateEPS0_m>:
      _M_deallocate(pointer __p, size_t __n)
    3a18:	55                   	push   %rbp
    3a19:	48 89 e5             	mov    %rsp,%rbp
    3a1c:	48 83 ec 20          	sub    $0x20,%rsp
    3a20:	48 89 7d f8          	mov    %rdi,-0x8(%rbp)
    3a24:	48 89 75 f0          	mov    %rsi,-0x10(%rbp)
    3a28:	48 89 55 e8          	mov    %rdx,-0x18(%rbp)
	if (__p)
    3a2c:	48 83 7d f0 00       	cmpq   $0x0,-0x10(%rbp)
    3a31:	74 17                	je     3a4a <_ZNSt12_Vector_baseI21VkExtensionPropertiesSaIS0_EE13_M_deallocateEPS0_m+0x32>
	  _Tr::deallocate(_M_impl, __p, __n);
    3a33:	48 8b 45 f8          	mov    -0x8(%rbp),%rax
    3a37:	48 8b 55 e8          	mov    -0x18(%rbp),%rdx
    3a3b:	48 8b 4d f0          	mov    -0x10(%rbp),%rcx
    3a3f:	48 89 ce             	mov    %rcx,%rsi
    3a42:	48 89 c7             	mov    %rax,%rdi
    3a45:	e8 65 05 00 00       	call   3faf <_ZNSt16allocator_traitsISaI21VkExtensionPropertiesEE10deallocateERS1_PS0_m>
      }
    3a4a:	90                   	nop
    3a4b:	c9                   	leave
    3a4c:	c3                   	ret
    3a4d:	90                   	nop

0000000000003a4e <_ZNSt15__new_allocatorINSt7__cxx1112basic_stringIcSt11char_traitsIcESaIcEEEEC1Ev>:
      __new_allocator() _GLIBCXX_USE_NOEXCEPT { }
    3a4e:	55                   	push   %rbp
    3a4f:	48 89 e5             	mov    %rsp,%rbp
    3a52:	48 89 7d f8          	mov    %rdi,-0x8(%rbp)
    3a56:	90                   	nop
    3a57:	5d                   	pop    %rbp
    3a58:	c3                   	ret
    3a59:	90                   	nop

0000000000003a5a <_ZNSt15__new_allocatorINSt7__cxx1112basic_stringIcSt11char_traitsIcESaIcEEEED1Ev>:
      ~__new_allocator() _GLIBCXX_USE_NOEXCEPT { }
    3a5a:	55                   	push   %rbp
    3a5b:	48 89 e5             	mov    %rsp,%rbp
    3a5e:	48 89 7d f8          	mov    %rdi,-0x8(%rbp)
    3a62:	90                   	nop
    3a63:	5d                   	pop    %rbp
    3a64:	c3                   	ret

0000000000003a65 <_ZNSt6vectorINSt7__cxx1112basic_stringIcSt11char_traitsIcESaIcEEESaIS5_EE17_S_check_init_lenEmRKS6_>:
      _S_check_init_len(size_type __n, const allocator_type& __a)
    3a65:	55                   	push   %rbp
    3a66:	48 89 e5             	mov    %rsp,%rbp
    3a69:	53                   	push   %rbx
    3a6a:	48 83 ec 28          	sub    $0x28,%rsp
    3a6e:	48 89 7d d8          	mov    %rdi,-0x28(%rbp)
    3a72:	48 89 75 d0          	mov    %rsi,-0x30(%rbp)
	if (__n > _S_max_size(_Tp_alloc_type(__a)))
    3a76:	48 8b 55 d0          	mov    -0x30(%rbp),%rdx
    3a7a:	48 8d 45 ef          	lea    -0x11(%rbp),%rax
    3a7e:	48 89 d6             	mov    %rdx,%rsi
    3a81:	48 89 c7             	mov    %rax,%rdi
    3a84:	e8 13 01 00 00       	call   3b9c <_ZNSaINSt7__cxx1112basic_stringIcSt11char_traitsIcESaIcEEEEC1ERKS5_>
    3a89:	48 8d 45 ef          	lea    -0x11(%rbp),%rax
    3a8d:	48 89 c7             	mov    %rax,%rdi
    3a90:	e8 48 05 00 00       	call   3fdd <_ZNSt6vectorINSt7__cxx1112basic_stringIcSt11char_traitsIcESaIcEEESaIS5_EE11_S_max_sizeERKS6_>
    3a95:	48 3b 45 d8          	cmp    -0x28(%rbp),%rax
    3a99:	0f 92 c3             	setb   %bl
    3a9c:	48 8d 45 ef          	lea    -0x11(%rbp),%rax
    3aa0:	48 89 c7             	mov    %rax,%rdi
    3aa3:	e8 3a fb ff ff       	call   35e2 <_ZNSaINSt7__cxx1112basic_stringIcSt11char_traitsIcESaIcEEEED1Ev>
    3aa8:	84 db                	test   %bl,%bl
    3aaa:	74 0f                	je     3abb <_ZNSt6vectorINSt7__cxx1112basic_stringIcSt11char_traitsIcESaIcEEESaIS5_EE17_S_check_init_lenEmRKS6_+0x56>
	  __throw_length_error(
    3aac:	48 8d 05 cd 3d 00 00 	lea    0x3dcd(%rip),%rax        # 7880 <_ZL47VK_FORMAT_FEATURE_2_BOX_FILTER_SAMPLED_BIT_QCOM+0xb8>
    3ab3:	48 89 c7             	mov    %rax,%rdi
    3ab6:	e8 15 e6 ff ff       	call   20d0 <_ZSt20__throw_length_errorPKc@plt>
	return __n;
    3abb:	48 8b 45 d8          	mov    -0x28(%rbp),%rax
      }
    3abf:	48 8b 5d f8          	mov    -0x8(%rbp),%rbx
    3ac3:	c9                   	leave
    3ac4:	c3                   	ret
    3ac5:	90                   	nop

0000000000003ac6 <_ZNSt12_Vector_baseINSt7__cxx1112basic_stringIcSt11char_traitsIcESaIcEEESaIS5_EEC1EmRKS6_>:
      _Vector_base(size_t __n, const allocator_type& __a)
    3ac6:	55                   	push   %rbp
    3ac7:	48 89 e5             	mov    %rsp,%rbp
    3aca:	53                   	push   %rbx
    3acb:	48 83 ec 28          	sub    $0x28,%rsp
    3acf:	48 89 7d e8          	mov    %rdi,-0x18(%rbp)
    3ad3:	48 89 75 e0          	mov    %rsi,-0x20(%rbp)
    3ad7:	48 89 55 d8          	mov    %rdx,-0x28(%rbp)
      : _M_impl(__a)
    3adb:	48 8b 45 e8          	mov    -0x18(%rbp),%rax
    3adf:	48 8b 55 d8          	mov    -0x28(%rbp),%rdx
    3ae3:	48 89 d6             	mov    %rdx,%rsi
    3ae6:	48 89 c7             	mov    %rax,%rdi
    3ae9:	e8 32 05 00 00       	call   4020 <_ZNSt12_Vector_baseINSt7__cxx1112basic_stringIcSt11char_traitsIcESaIcEEESaIS5_EE12_Vector_implC1ERKS6_>
      { _M_create_storage(__n); }
    3aee:	48 8b 55 e0          	mov    -0x20(%rbp),%rdx
    3af2:	48 8b 45 e8          	mov    -0x18(%rbp),%rax
    3af6:	48 89 d6             	mov    %rdx,%rsi
    3af9:	48 89 c7             	mov    %rax,%rdi
    3afc:	e8 51 05 00 00       	call   4052 <_ZNSt12_Vector_baseINSt7__cxx1112basic_stringIcSt11char_traitsIcESaIcEEESaIS5_EE17_M_create_storageEm>
    3b01:	eb 1a                	jmp    3b1d <_ZNSt12_Vector_baseINSt7__cxx1112basic_stringIcSt11char_traitsIcESaIcEEESaIS5_EEC1EmRKS6_+0x57>
    3b03:	48 89 c3             	mov    %rax,%rbx
    3b06:	48 8b 45 e8          	mov    -0x18(%rbp),%rax
    3b0a:	48 89 c7             	mov    %rax,%rdi
    3b0d:	e8 2a f9 ff ff       	call   343c <_ZNSt12_Vector_baseINSt7__cxx1112basic_stringIcSt11char_traitsIcESaIcEEESaIS5_EE12_Vector_implD1Ev>
    3b12:	48 89 d8             	mov    %rbx,%rax
    3b15:	48 89 c7             	mov    %rax,%rdi
    3b18:	e8 13 e8 ff ff       	call   2330 <_Unwind_Resume@plt>
    3b1d:	48 8b 5d f8          	mov    -0x8(%rbp),%rbx
    3b21:	c9                   	leave
    3b22:	c3                   	ret
    3b23:	90                   	nop

0000000000003b24 <_ZNSt6vectorINSt7__cxx1112basic_stringIcSt11char_traitsIcESaIcEEESaIS5_EE21_M_default_initializeEm>:
      _M_default_initialize(size_type __n)
    3b24:	55                   	push   %rbp
    3b25:	48 89 e5             	mov    %rsp,%rbp
    3b28:	48 83 ec 10          	sub    $0x10,%rsp
    3b2c:	48 89 7d f8          	mov    %rdi,-0x8(%rbp)
    3b30:	48 89 75 f0          	mov    %rsi,-0x10(%rbp)
					   _M_get_Tp_allocator());
    3b34:	48 8b 45 f8          	mov    -0x8(%rbp),%rax
    3b38:	48 89 c7             	mov    %rax,%rdi
    3b3b:	e8 24 00 00 00       	call   3b64 <_ZNSt12_Vector_baseINSt7__cxx1112basic_stringIcSt11char_traitsIcESaIcEEESaIS5_EE19_M_get_Tp_allocatorEv>
    3b40:	48 89 c2             	mov    %rax,%rdx
	  std::__uninitialized_default_n_a(this->_M_impl._M_start, __n,
    3b43:	48 8b 45 f8          	mov    -0x8(%rbp),%rax
    3b47:	48 8b 00             	mov    (%rax),%rax
    3b4a:	48 8b 4d f0          	mov    -0x10(%rbp),%rcx
    3b4e:	48 89 ce             	mov    %rcx,%rsi
    3b51:	48 89 c7             	mov    %rax,%rdi
    3b54:	e8 4f 05 00 00       	call   40a8 <_ZSt27__uninitialized_default_n_aIPNSt7__cxx1112basic_stringIcSt11char_traitsIcESaIcEEEmS5_ET_S7_T0_RSaIT1_E>
	this->_M_impl._M_finish =
    3b59:	48 8b 55 f8          	mov    -0x8(%rbp),%rdx
    3b5d:	48 89 42 08          	mov    %rax,0x8(%rdx)
      }
    3b61:	90                   	nop
    3b62:	c9                   	leave
    3b63:	c3                   	ret

0000000000003b64 <_ZNSt12_Vector_baseINSt7__cxx1112basic_stringIcSt11char_traitsIcESaIcEEESaIS5_EE19_M_get_Tp_allocatorEv>:
      _M_get_Tp_allocator() _GLIBCXX_NOEXCEPT
    3b64:	55                   	push   %rbp
    3b65:	48 89 e5             	mov    %rsp,%rbp
    3b68:	48 89 7d f8          	mov    %rdi,-0x8(%rbp)
      { return this->_M_impl; }
    3b6c:	48 8b 45 f8          	mov    -0x8(%rbp),%rax
    3b70:	5d                   	pop    %rbp
    3b71:	c3                   	ret

0000000000003b72 <_ZSt8_DestroyIPNSt7__cxx1112basic_stringIcSt11char_traitsIcESaIcEEES5_EvT_S7_RSaIT0_E>:
    _Destroy(_ForwardIterator __first, _ForwardIterator __last,
    3b72:	55                   	push   %rbp
    3b73:	48 89 e5             	mov    %rsp,%rbp
    3b76:	48 83 ec 20          	sub    $0x20,%rsp
    3b7a:	48 89 7d f8          	mov    %rdi,-0x8(%rbp)
    3b7e:	48 89 75 f0          	mov    %rsi,-0x10(%rbp)
    3b82:	48 89 55 e8          	mov    %rdx,-0x18(%rbp)
      _Destroy(__first, __last);
    3b86:	48 8b 55 f0          	mov    -0x10(%rbp),%rdx
    3b8a:	48 8b 45 f8          	mov    -0x8(%rbp),%rax
    3b8e:	48 89 d6             	mov    %rdx,%rsi
    3b91:	48 89 c7             	mov    %rax,%rdi
    3b94:	e8 38 05 00 00       	call   40d1 <_ZSt8_DestroyIPNSt7__cxx1112basic_stringIcSt11char_traitsIcESaIcEEEEvT_S7_>
    }
    3b99:	90                   	nop
    3b9a:	c9                   	leave
    3b9b:	c3                   	ret

0000000000003b9c <_ZNSaINSt7__cxx1112basic_stringIcSt11char_traitsIcESaIcEEEEC1ERKS5_>:
      allocator(const allocator& __a) _GLIBCXX_NOTHROW
    3b9c:	55                   	push   %rbp
    3b9d:	48 89 e5             	mov    %rsp,%rbp
    3ba0:	48 83 ec 10          	sub    $0x10,%rsp
    3ba4:	48 89 7d f8          	mov    %rdi,-0x8(%rbp)
    3ba8:	48 89 75 f0          	mov    %rsi,-0x10(%rbp)
      : __allocator_base<_Tp>(__a) { }
    3bac:	48 8b 55 f0          	mov    -0x10(%rbp),%rdx
    3bb0:	48 8b 45 f8          	mov    -0x8(%rbp),%rax
    3bb4:	48 89 d6             	mov    %rdx,%rsi
    3bb7:	48 89 c7             	mov    %rax,%rdi
    3bba:	e8 39 05 00 00       	call   40f8 <_ZNSt15__new_allocatorINSt7__cxx1112basic_stringIcSt11char_traitsIcESaIcEEEEC1ERKS6_>
    3bbf:	90                   	nop
    3bc0:	c9                   	leave
    3bc1:	c3                   	ret

0000000000003bc2 <_ZNSt12_Vector_baseINSt7__cxx1112basic_stringIcSt11char_traitsIcESaIcEEESaIS5_EE13_M_deallocateEPS5_m>:
      _M_deallocate(pointer __p, size_t __n)
    3bc2:	55                   	push   %rbp
    3bc3:	48 89 e5             	mov    %rsp,%rbp
    3bc6:	48 83 ec 20          	sub    $0x20,%rsp
    3bca:	48 89 7d f8          	mov    %rdi,-0x8(%rbp)
    3bce:	48 89 75 f0          	mov    %rsi,-0x10(%rbp)
    3bd2:	48 89 55 e8          	mov    %rdx,-0x18(%rbp)
	if (__p)
    3bd6:	48 83 7d f0 00       	cmpq   $0x0,-0x10(%rbp)
    3bdb:	74 17                	je     3bf4 <_ZNSt12_Vector_baseINSt7__cxx1112basic_stringIcSt11char_traitsIcESaIcEEESaIS5_EE13_M_deallocateEPS5_m+0x32>
	  _Tr::deallocate(_M_impl, __p, __n);
    3bdd:	48 8b 45 f8          	mov    -0x8(%rbp),%rax
    3be1:	48 8b 55 e8          	mov    -0x18(%rbp),%rdx
    3be5:	48 8b 4d f0          	mov    -0x10(%rbp),%rcx
    3be9:	48 89 ce             	mov    %rcx,%rsi
    3bec:	48 89 c7             	mov    %rax,%rdi
    3bef:	e8 13 05 00 00       	call   4107 <_ZNSt16allocator_traitsISaINSt7__cxx1112basic_stringIcSt11char_traitsIcESaIcEEEEE10deallocateERS6_PS5_m>
      }
    3bf4:	90                   	nop
    3bf5:	c9                   	leave
    3bf6:	c3                   	ret
    3bf7:	90                   	nop

0000000000003bf8 <_ZNSt15__new_allocatorI17VkLayerPropertiesEC1Ev>:
      __new_allocator() _GLIBCXX_USE_NOEXCEPT { }
    3bf8:	55                   	push   %rbp
    3bf9:	48 89 e5             	mov    %rsp,%rbp
    3bfc:	48 89 7d f8          	mov    %rdi,-0x8(%rbp)
    3c00:	90                   	nop
    3c01:	5d                   	pop    %rbp
    3c02:	c3                   	ret

0000000000003c03 <_ZNSt6vectorI17VkLayerPropertiesSaIS0_EE17_S_check_init_lenEmRKS1_>:
      _S_check_init_len(size_type __n, const allocator_type& __a)
    3c03:	55                   	push   %rbp
    3c04:	48 89 e5             	mov    %rsp,%rbp
    3c07:	53                   	push   %rbx
    3c08:	48 83 ec 28          	sub    $0x28,%rsp
    3c0c:	48 89 7d d8          	mov    %rdi,-0x28(%rbp)
    3c10:	48 89 75 d0          	mov    %rsi,-0x30(%rbp)
	if (__n > _S_max_size(_Tp_alloc_type(__a)))
    3c14:	48 8b 55 d0          	mov    -0x30(%rbp),%rdx
    3c18:	48 8d 45 ef          	lea    -0x11(%rbp),%rax
    3c1c:	48 89 d6             	mov    %rdx,%rsi
    3c1f:	48 89 c7             	mov    %rax,%rdi
    3c22:	e8 ed 00 00 00       	call   3d14 <_ZNSaI17VkLayerPropertiesEC1ERKS0_>
    3c27:	48 8d 45 ef          	lea    -0x11(%rbp),%rax
    3c2b:	48 89 c7             	mov    %rax,%rdi
    3c2e:	e8 02 05 00 00       	call   4135 <_ZNSt6vectorI17VkLayerPropertiesSaIS0_EE11_S_max_sizeERKS1_>
    3c33:	48 3b 45 d8          	cmp    -0x28(%rbp),%rax
    3c37:	0f 92 c3             	setb   %bl
    3c3a:	48 8d 45 ef          	lea    -0x11(%rbp),%rax
    3c3e:	48 89 c7             	mov    %rax,%rdi
    3c41:	e8 18 ee ff ff       	call   2a5e <_ZNSaI17VkLayerPropertiesED1Ev>
    3c46:	84 db                	test   %bl,%bl
    3c48:	74 0f                	je     3c59 <_ZNSt6vectorI17VkLayerPropertiesSaIS0_EE17_S_check_init_lenEmRKS1_+0x56>
	  __throw_length_error(
    3c4a:	48 8d 05 2f 3c 00 00 	lea    0x3c2f(%rip),%rax        # 7880 <_ZL47VK_FORMAT_FEATURE_2_BOX_FILTER_SAMPLED_BIT_QCOM+0xb8>
    3c51:	48 89 c7             	mov    %rax,%rdi
    3c54:	e8 77 e4 ff ff       	call   20d0 <_ZSt20__throw_length_errorPKc@plt>
	return __n;
    3c59:	48 8b 45 d8          	mov    -0x28(%rbp),%rax
      }
    3c5d:	48 8b 5d f8          	mov    -0x8(%rbp),%rbx
    3c61:	c9                   	leave
    3c62:	c3                   	ret
    3c63:	90                   	nop

0000000000003c64 <_ZNSt12_Vector_baseI17VkLayerPropertiesSaIS0_EEC1EmRKS1_>:
      _Vector_base(size_t __n, const allocator_type& __a)
    3c64:	55                   	push   %rbp
    3c65:	48 89 e5             	mov    %rsp,%rbp
    3c68:	53                   	push   %rbx
    3c69:	48 83 ec 28          	sub    $0x28,%rsp
    3c6d:	48 89 7d e8          	mov    %rdi,-0x18(%rbp)
    3c71:	48 89 75 e0          	mov    %rsi,-0x20(%rbp)
    3c75:	48 89 55 d8          	mov    %rdx,-0x28(%rbp)
      : _M_impl(__a)
    3c79:	48 8b 45 e8          	mov    -0x18(%rbp),%rax
    3c7d:	48 8b 55 d8          	mov    -0x28(%rbp),%rdx
    3c81:	48 89 d6             	mov    %rdx,%rsi
    3c84:	48 89 c7             	mov    %rax,%rdi
    3c87:	e8 ec 04 00 00       	call   4178 <_ZNSt12_Vector_baseI17VkLayerPropertiesSaIS0_EE12_Vector_implC1ERKS1_>
      { _M_create_storage(__n); }
    3c8c:	48 8b 55 e0          	mov    -0x20(%rbp),%rdx
    3c90:	48 8b 45 e8          	mov    -0x18(%rbp),%rax
    3c94:	48 89 d6             	mov    %rdx,%rsi
    3c97:	48 89 c7             	mov    %rax,%rdi
    3c9a:	e8 0b 05 00 00       	call   41aa <_ZNSt12_Vector_baseI17VkLayerPropertiesSaIS0_EE17_M_create_storageEm>
    3c9f:	eb 1a                	jmp    3cbb <_ZNSt12_Vector_baseI17VkLayerPropertiesSaIS0_EEC1EmRKS1_+0x57>
    3ca1:	48 89 c3             	mov    %rax,%rbx
    3ca4:	48 8b 45 e8          	mov    -0x18(%rbp),%rax
    3ca8:	48 89 c7             	mov    %rax,%rdi
    3cab:	e8 5e ec ff ff       	call   290e <_ZNSt12_Vector_baseI17VkLayerPropertiesSaIS0_EE12_Vector_implD1Ev>
    3cb0:	48 89 d8             	mov    %rbx,%rax
    3cb3:	48 89 c7             	mov    %rax,%rdi
    3cb6:	e8 75 e6 ff ff       	call   2330 <_Unwind_Resume@plt>
    3cbb:	48 8b 5d f8          	mov    -0x8(%rbp),%rbx
    3cbf:	c9                   	leave
    3cc0:	c3                   	ret
    3cc1:	90                   	nop

0000000000003cc2 <_ZNSt6vectorI17VkLayerPropertiesSaIS0_EE21_M_default_initializeEm>:
      _M_default_initialize(size_type __n)
    3cc2:	55                   	push   %rbp
    3cc3:	48 89 e5             	mov    %rsp,%rbp
    3cc6:	48 83 ec 10          	sub    $0x10,%rsp
    3cca:	48 89 7d f8          	mov    %rdi,-0x8(%rbp)
    3cce:	48 89 75 f0          	mov    %rsi,-0x10(%rbp)
					   _M_get_Tp_allocator());
    3cd2:	48 8b 45 f8          	mov    -0x8(%rbp),%rax
    3cd6:	48 89 c7             	mov    %rax,%rdi
    3cd9:	e8 a4 ec ff ff       	call   2982 <_ZNSt12_Vector_baseI17VkLayerPropertiesSaIS0_EE19_M_get_Tp_allocatorEv>
    3cde:	48 89 c2             	mov    %rax,%rdx
	  std::__uninitialized_default_n_a(this->_M_impl._M_start, __n,
    3ce1:	48 8b 45 f8          	mov    -0x8(%rbp),%rax
    3ce5:	48 8b 00             	mov    (%rax),%rax
    3ce8:	48 8b 4d f0          	mov    -0x10(%rbp),%rcx
    3cec:	48 89 ce             	mov    %rcx,%rsi
    3cef:	48 89 c7             	mov    %rax,%rdi
    3cf2:	e8 14 05 00 00       	call   420b <_ZSt27__uninitialized_default_n_aIP17VkLayerPropertiesmS0_ET_S2_T0_RSaIT1_E>
	this->_M_impl._M_finish =
    3cf7:	48 8b 55 f8          	mov    -0x8(%rbp),%rdx
    3cfb:	48 89 42 08          	mov    %rax,0x8(%rdx)
      }
    3cff:	90                   	nop
    3d00:	c9                   	leave
    3d01:	c3                   	ret

0000000000003d02 <_ZNKSt6vectorI17VkLayerPropertiesSaIS0_EE11_M_data_ptrIS0_EEPT_S5_>:
	_M_data_ptr(_Up* __ptr) const _GLIBCXX_NOEXCEPT
    3d02:	55                   	push   %rbp
    3d03:	48 89 e5             	mov    %rsp,%rbp
    3d06:	48 89 7d f8          	mov    %rdi,-0x8(%rbp)
    3d0a:	48 89 75 f0          	mov    %rsi,-0x10(%rbp)
	{ return __ptr; }
    3d0e:	48 8b 45 f0          	mov    -0x10(%rbp),%rax
    3d12:	5d                   	pop    %rbp
    3d13:	c3                   	ret

0000000000003d14 <_ZNSaI17VkLayerPropertiesEC1ERKS0_>:
      allocator(const allocator& __a) _GLIBCXX_NOTHROW
    3d14:	55                   	push   %rbp
    3d15:	48 89 e5             	mov    %rsp,%rbp
    3d18:	48 83 ec 10          	sub    $0x10,%rsp
    3d1c:	48 89 7d f8          	mov    %rdi,-0x8(%rbp)
    3d20:	48 89 75 f0          	mov    %rsi,-0x10(%rbp)
      : __allocator_base<_Tp>(__a) { }
    3d24:	48 8b 55 f0          	mov    -0x10(%rbp),%rdx
    3d28:	48 8b 45 f8          	mov    -0x8(%rbp),%rax
    3d2c:	48 89 d6             	mov    %rdx,%rsi
    3d2f:	48 89 c7             	mov    %rax,%rdi
    3d32:	e8 fd 04 00 00       	call   4234 <_ZNSt15__new_allocatorI17VkLayerPropertiesEC1ERKS1_>
    3d37:	90                   	nop
    3d38:	c9                   	leave
    3d39:	c3                   	ret

0000000000003d3a <_ZNSt15__new_allocatorIP18VkPhysicalDevice_TEC1Ev>:
    3d3a:	55                   	push   %rbp
    3d3b:	48 89 e5             	mov    %rsp,%rbp
    3d3e:	48 89 7d f8          	mov    %rdi,-0x8(%rbp)
    3d42:	90                   	nop
    3d43:	5d                   	pop    %rbp
    3d44:	c3                   	ret

0000000000003d45 <_ZNSt6vectorIP18VkPhysicalDevice_TSaIS1_EE17_S_check_init_lenEmRKS2_>:
      _S_check_init_len(size_type __n, const allocator_type& __a)
    3d45:	55                   	push   %rbp
    3d46:	48 89 e5             	mov    %rsp,%rbp
    3d49:	53                   	push   %rbx
    3d4a:	48 83 ec 28          	sub    $0x28,%rsp
    3d4e:	48 89 7d d8          	mov    %rdi,-0x28(%rbp)
    3d52:	48 89 75 d0          	mov    %rsi,-0x30(%rbp)
	if (__n > _S_max_size(_Tp_alloc_type(__a)))
    3d56:	48 8b 55 d0          	mov    -0x30(%rbp),%rdx
    3d5a:	48 8d 45 ef          	lea    -0x11(%rbp),%rax
    3d5e:	48 89 d6             	mov    %rdx,%rsi
    3d61:	48 89 c7             	mov    %rax,%rdi
    3d64:	e8 ed 00 00 00       	call   3e56 <_ZNSaIP18VkPhysicalDevice_TEC1ERKS1_>
    3d69:	48 8d 45 ef          	lea    -0x11(%rbp),%rax
    3d6d:	48 89 c7             	mov    %rax,%rdi
    3d70:	e8 ce 04 00 00       	call   4243 <_ZNSt6vectorIP18VkPhysicalDevice_TSaIS1_EE11_S_max_sizeERKS2_>
    3d75:	48 3b 45 d8          	cmp    -0x28(%rbp),%rax
    3d79:	0f 92 c3             	setb   %bl
    3d7c:	48 8d 45 ef          	lea    -0x11(%rbp),%rax
    3d80:	48 89 c7             	mov    %rax,%rdi
    3d83:	e8 5e ec ff ff       	call   29e6 <_ZNSaIP18VkPhysicalDevice_TED1Ev>
    3d88:	84 db                	test   %bl,%bl
    3d8a:	74 0f                	je     3d9b <_ZNSt6vectorIP18VkPhysicalDevice_TSaIS1_EE17_S_check_init_lenEmRKS2_+0x56>
	  __throw_length_error(
    3d8c:	48 8d 05 ed 3a 00 00 	lea    0x3aed(%rip),%rax        # 7880 <_ZL47VK_FORMAT_FEATURE_2_BOX_FILTER_SAMPLED_BIT_QCOM+0xb8>
    3d93:	48 89 c7             	mov    %rax,%rdi
    3d96:	e8 35 e3 ff ff       	call   20d0 <_ZSt20__throw_length_errorPKc@plt>
	return __n;
    3d9b:	48 8b 45 d8          	mov    -0x28(%rbp),%rax
      }
    3d9f:	48 8b 5d f8          	mov    -0x8(%rbp),%rbx
    3da3:	c9                   	leave
    3da4:	c3                   	ret
    3da5:	90                   	nop

0000000000003da6 <_ZNSt12_Vector_baseIP18VkPhysicalDevice_TSaIS1_EEC1EmRKS2_>:
      _Vector_base(size_t __n, const allocator_type& __a)
    3da6:	55                   	push   %rbp
    3da7:	48 89 e5             	mov    %rsp,%rbp
    3daa:	53                   	push   %rbx
    3dab:	48 83 ec 28          	sub    $0x28,%rsp
    3daf:	48 89 7d e8          	mov    %rdi,-0x18(%rbp)
    3db3:	48 89 75 e0          	mov    %rsi,-0x20(%rbp)
    3db7:	48 89 55 d8          	mov    %rdx,-0x28(%rbp)
      : _M_impl(__a)
    3dbb:	48 8b 45 e8          	mov    -0x18(%rbp),%rax
    3dbf:	48 8b 55 d8          	mov    -0x28(%rbp),%rdx
    3dc3:	48 89 d6             	mov    %rdx,%rsi
    3dc6:	48 89 c7             	mov    %rax,%rdi
    3dc9:	e8 b8 04 00 00       	call   4286 <_ZNSt12_Vector_baseIP18VkPhysicalDevice_TSaIS1_EE12_Vector_implC1ERKS2_>
      { _M_create_storage(__n); }
    3dce:	48 8b 55 e0          	mov    -0x20(%rbp),%rdx
    3dd2:	48 8b 45 e8          	mov    -0x18(%rbp),%rax
    3dd6:	48 89 d6             	mov    %rdx,%rsi
    3dd9:	48 89 c7             	mov    %rax,%rdi
    3ddc:	e8 d7 04 00 00       	call   42b8 <_ZNSt12_Vector_baseIP18VkPhysicalDevice_TSaIS1_EE17_M_create_storageEm>
    3de1:	eb 1a                	jmp    3dfd <_ZNSt12_Vector_baseIP18VkPhysicalDevice_TSaIS1_EEC1EmRKS2_+0x57>
    3de3:	48 89 c3             	mov    %rax,%rbx
    3de6:	48 8b 45 e8          	mov    -0x18(%rbp),%rax
    3dea:	48 89 c7             	mov    %rax,%rdi
    3ded:	e8 7a ea ff ff       	call   286c <_ZNSt12_Vector_baseIP18VkPhysicalDevice_TSaIS1_EE12_Vector_implD1Ev>
    3df2:	48 89 d8             	mov    %rbx,%rax
    3df5:	48 89 c7             	mov    %rax,%rdi
    3df8:	e8 33 e5 ff ff       	call   2330 <_Unwind_Resume@plt>
    3dfd:	48 8b 5d f8          	mov    -0x8(%rbp),%rbx
    3e01:	c9                   	leave
    3e02:	c3                   	ret
    3e03:	90                   	nop

0000000000003e04 <_ZNSt6vectorIP18VkPhysicalDevice_TSaIS1_EE21_M_default_initializeEm>:
      _M_default_initialize(size_type __n)
    3e04:	55                   	push   %rbp
    3e05:	48 89 e5             	mov    %rsp,%rbp
    3e08:	48 83 ec 10          	sub    $0x10,%rsp
    3e0c:	48 89 7d f8          	mov    %rdi,-0x8(%rbp)
    3e10:	48 89 75 f0          	mov    %rsi,-0x10(%rbp)
					   _M_get_Tp_allocator());
    3e14:	48 8b 45 f8          	mov    -0x8(%rbp),%rax
    3e18:	48 89 c7             	mov    %rax,%rdi
    3e1b:	e8 b6 ea ff ff       	call   28d6 <_ZNSt12_Vector_baseIP18VkPhysicalDevice_TSaIS1_EE19_M_get_Tp_allocatorEv>
    3e20:	48 89 c2             	mov    %rax,%rdx
	  std::__uninitialized_default_n_a(this->_M_impl._M_start, __n,
    3e23:	48 8b 45 f8          	mov    -0x8(%rbp),%rax
    3e27:	48 8b 00             	mov    (%rax),%rax
    3e2a:	48 8b 4d f0          	mov    -0x10(%rbp),%rcx
    3e2e:	48 89 ce             	mov    %rcx,%rsi
    3e31:	48 89 c7             	mov    %rax,%rdi
    3e34:	e8 d5 04 00 00       	call   430e <_ZSt27__uninitialized_default_n_aIPP18VkPhysicalDevice_TmS1_ET_S3_T0_RSaIT1_E>
	this->_M_impl._M_finish =
    3e39:	48 8b 55 f8          	mov    -0x8(%rbp),%rdx
    3e3d:	48 89 42 08          	mov    %rax,0x8(%rdx)
      }
    3e41:	90                   	nop
    3e42:	c9                   	leave
    3e43:	c3                   	ret

0000000000003e44 <_ZNKSt6vectorIP18VkPhysicalDevice_TSaIS1_EE11_M_data_ptrIS1_EEPT_S6_>:
	_M_data_ptr(_Up* __ptr) const _GLIBCXX_NOEXCEPT
    3e44:	55                   	push   %rbp
    3e45:	48 89 e5             	mov    %rsp,%rbp
    3e48:	48 89 7d f8          	mov    %rdi,-0x8(%rbp)
    3e4c:	48 89 75 f0          	mov    %rsi,-0x10(%rbp)
	{ return __ptr; }
    3e50:	48 8b 45 f0          	mov    -0x10(%rbp),%rax
    3e54:	5d                   	pop    %rbp
    3e55:	c3                   	ret

0000000000003e56 <_ZNSaIP18VkPhysicalDevice_TEC1ERKS1_>:
      allocator(const allocator& __a) _GLIBCXX_NOTHROW
    3e56:	55                   	push   %rbp
    3e57:	48 89 e5             	mov    %rsp,%rbp
    3e5a:	48 83 ec 10          	sub    $0x10,%rsp
    3e5e:	48 89 7d f8          	mov    %rdi,-0x8(%rbp)
    3e62:	48 89 75 f0          	mov    %rsi,-0x10(%rbp)
      : __allocator_base<_Tp>(__a) { }
    3e66:	48 8b 55 f0          	mov    -0x10(%rbp),%rdx
    3e6a:	48 8b 45 f8          	mov    -0x8(%rbp),%rax
    3e6e:	48 89 d6             	mov    %rdx,%rsi
    3e71:	48 89 c7             	mov    %rax,%rdi
    3e74:	e8 bf 04 00 00       	call   4338 <_ZNSt15__new_allocatorIP18VkPhysicalDevice_TEC1ERKS2_>
    3e79:	90                   	nop
    3e7a:	c9                   	leave
    3e7b:	c3                   	ret

0000000000003e7c <_ZNSt6vectorI21VkExtensionPropertiesSaIS0_EE11_S_max_sizeERKS1_>:
      _S_max_size(const _Tp_alloc_type& __a) _GLIBCXX_NOEXCEPT
    3e7c:	55                   	push   %rbp
    3e7d:	48 89 e5             	mov    %rsp,%rbp
    3e80:	48 83 ec 20          	sub    $0x20,%rsp
    3e84:	48 89 7d e8          	mov    %rdi,-0x18(%rbp)
	const size_t __diffmax
    3e88:	48 b8 7e e0 07 7e e0 	movabs $0x7e07e07e07e07e,%rax
    3e8f:	07 7e 00 
    3e92:	48 89 45 f8          	mov    %rax,-0x8(%rbp)
	const size_t __allocmax = _Alloc_traits::max_size(__a);
    3e96:	48 8b 45 e8          	mov    -0x18(%rbp),%rax
    3e9a:	48 89 c7             	mov    %rax,%rdi
    3e9d:	e8 a5 04 00 00       	call   4347 <_ZNSt16allocator_traitsISaI21VkExtensionPropertiesEE8max_sizeERKS1_>
    3ea2:	48 89 45 f0          	mov    %rax,-0x10(%rbp)
	return (std::min)(__diffmax, __allocmax);
    3ea6:	48 8d 55 f0          	lea    -0x10(%rbp),%rdx
    3eaa:	48 8d 45 f8          	lea    -0x8(%rbp),%rax
    3eae:	48 89 d6             	mov    %rdx,%rsi
    3eb1:	48 89 c7             	mov    %rax,%rdi
    3eb4:	e8 a8 04 00 00       	call   4361 <_ZSt3minImERKT_S2_S2_>
    3eb9:	48 8b 00             	mov    (%rax),%rax
      }
    3ebc:	c9                   	leave
    3ebd:	c3                   	ret

0000000000003ebe <_ZNSt12_Vector_baseI21VkExtensionPropertiesSaIS0_EE12_Vector_implC1ERKS1_>:
	_Vector_impl(_Tp_alloc_type const& __a) _GLIBCXX_NOEXCEPT
    3ebe:	55                   	push   %rbp
    3ebf:	48 89 e5             	mov    %rsp,%rbp
    3ec2:	48 83 ec 10          	sub    $0x10,%rsp
    3ec6:	48 89 7d f8          	mov    %rdi,-0x8(%rbp)
    3eca:	48 89 75 f0          	mov    %rsi,-0x10(%rbp)
	: _Tp_alloc_type(__a)
    3ece:	48 8b 55 f0          	mov    -0x10(%rbp),%rdx
    3ed2:	48 8b 45 f8          	mov    -0x8(%rbp),%rax
    3ed6:	48 89 d6             	mov    %rdx,%rsi
    3ed9:	48 89 c7             	mov    %rax,%rdi
    3edc:	e8 11 fb ff ff       	call   39f2 <_ZNSaI21VkExtensionPropertiesEC1ERKS0_>
    3ee1:	48 8b 45 f8          	mov    -0x8(%rbp),%rax
    3ee5:	48 89 c7             	mov    %rax,%rdi
    3ee8:	e8 9f 04 00 00       	call   438c <_ZNSt12_Vector_baseI21VkExtensionPropertiesSaIS0_EE17_Vector_impl_dataC1Ev>
	{ }
    3eed:	90                   	nop
    3eee:	c9                   	leave
    3eef:	c3                   	ret

0000000000003ef0 <_ZNSt12_Vector_baseI21VkExtensionPropertiesSaIS0_EE17_M_create_storageEm>:
      _M_create_storage(size_t __n)
    3ef0:	55                   	push   %rbp
    3ef1:	48 89 e5             	mov    %rsp,%rbp
    3ef4:	48 83 ec 10          	sub    $0x10,%rsp
    3ef8:	48 89 7d f8          	mov    %rdi,-0x8(%rbp)
    3efc:	48 89 75 f0          	mov    %rsi,-0x10(%rbp)
	this->_M_impl._M_start = this->_M_allocate(__n);
    3f00:	48 8b 55 f0          	mov    -0x10(%rbp),%rdx
    3f04:	48 8b 45 f8          	mov    -0x8(%rbp),%rax
    3f08:	48 89 d6             	mov    %rdx,%rsi
    3f0b:	48 89 c7             	mov    %rax,%rdi
    3f0e:	e8 a7 04 00 00       	call   43ba <_ZNSt12_Vector_baseI21VkExtensionPropertiesSaIS0_EE11_M_allocateEm>
    3f13:	48 8b 55 f8          	mov    -0x8(%rbp),%rdx
    3f17:	48 89 02             	mov    %rax,(%rdx)
	this->_M_impl._M_finish = this->_M_impl._M_start;
    3f1a:	48 8b 45 f8          	mov    -0x8(%rbp),%rax
    3f1e:	48 8b 10             	mov    (%rax),%rdx
    3f21:	48 8b 45 f8          	mov    -0x8(%rbp),%rax
    3f25:	48 89 50 08          	mov    %rdx,0x8(%rax)
	this->_M_impl._M_end_of_storage = this->_M_impl._M_start + __n;
    3f29:	48 8b 45 f8          	mov    -0x8(%rbp),%rax
    3f2d:	48 8b 08             	mov    (%rax),%rcx
    3f30:	48 8b 55 f0          	mov    -0x10(%rbp),%rdx
    3f34:	48 89 d0             	mov    %rdx,%rax
    3f37:	48 c1 e0 06          	shl    $0x6,%rax
    3f3b:	48 01 d0             	add    %rdx,%rax
    3f3e:	48 c1 e0 02          	shl    $0x2,%rax
    3f42:	48 8d 14 01          	lea    (%rcx,%rax,1),%rdx
    3f46:	48 8b 45 f8          	mov    -0x8(%rbp),%rax
    3f4a:	48 89 50 10          	mov    %rdx,0x10(%rax)
      }
    3f4e:	90                   	nop
    3f4f:	c9                   	leave
    3f50:	c3                   	ret

0000000000003f51 <_ZSt27__uninitialized_default_n_aIP21VkExtensionPropertiesmS0_ET_S2_T0_RSaIT1_E>:
  // __uninitialized_default_n_a specialization for std::allocator,
  // which ignores the allocator and value-initializes the elements.
  template<typename _ForwardIterator, typename _Size, typename _Tp>
    _GLIBCXX20_CONSTEXPR
    inline _ForwardIterator
    __uninitialized_default_n_a(_ForwardIterator __first, _Size __n,
    3f51:	55                   	push   %rbp
    3f52:	48 89 e5             	mov    %rsp,%rbp
    3f55:	48 83 ec 20          	sub    $0x20,%rsp
    3f59:	48 89 7d f8          	mov    %rdi,-0x8(%rbp)
    3f5d:	48 89 75 f0          	mov    %rsi,-0x10(%rbp)
    3f61:	48 89 55 e8          	mov    %rdx,-0x18(%rbp)
				allocator<_Tp>&)
    { return std::__uninitialized_default_n(__first, __n); }
    3f65:	48 8b 55 f0          	mov    -0x10(%rbp),%rdx
    3f69:	48 8b 45 f8          	mov    -0x8(%rbp),%rax
    3f6d:	48 89 d6             	mov    %rdx,%rsi
    3f70:	48 89 c7             	mov    %rax,%rdi
    3f73:	e8 75 04 00 00       	call   43ed <_ZSt25__uninitialized_default_nIP21VkExtensionPropertiesmET_S2_T0_>
    3f78:	c9                   	leave
    3f79:	c3                   	ret

0000000000003f7a <_ZSt8_DestroyIP21VkExtensionPropertiesEvT_S2_>:
    _Destroy(_ForwardIterator __first, _ForwardIterator __last)
    3f7a:	55                   	push   %rbp
    3f7b:	48 89 e5             	mov    %rsp,%rbp
    3f7e:	48 83 ec 10          	sub    $0x10,%rsp
    3f82:	48 89 7d f8          	mov    %rdi,-0x8(%rbp)
    3f86:	48 89 75 f0          	mov    %rsi,-0x10(%rbp)
	__destroy(__first, __last);
    3f8a:	48 8b 55 f0          	mov    -0x10(%rbp),%rdx
    3f8e:	48 8b 45 f8          	mov    -0x8(%rbp),%rax
    3f92:	48 89 d6             	mov    %rdx,%rsi
    3f95:	48 89 c7             	mov    %rax,%rdi
    3f98:	e8 79 04 00 00       	call   4416 <_ZNSt12_Destroy_auxILb1EE9__destroyIP21VkExtensionPropertiesEEvT_S4_>
    }
    3f9d:	90                   	nop
    3f9e:	c9                   	leave
    3f9f:	c3                   	ret

0000000000003fa0 <_ZNSt15__new_allocatorI21VkExtensionPropertiesEC1ERKS1_>:
      __new_allocator(const __new_allocator&) _GLIBCXX_USE_NOEXCEPT { }
    3fa0:	55                   	push   %rbp
    3fa1:	48 89 e5             	mov    %rsp,%rbp
    3fa4:	48 89 7d f8          	mov    %rdi,-0x8(%rbp)
    3fa8:	48 89 75 f0          	mov    %rsi,-0x10(%rbp)
    3fac:	90                   	nop
    3fad:	5d                   	pop    %rbp
    3fae:	c3                   	ret

0000000000003faf <_ZNSt16allocator_traitsISaI21VkExtensionPropertiesEE10deallocateERS1_PS0_m>:
      deallocate(allocator_type& __a, pointer __p, size_type __n)
    3faf:	55                   	push   %rbp
    3fb0:	48 89 e5             	mov    %rsp,%rbp
    3fb3:	48 83 ec 20          	sub    $0x20,%rsp
    3fb7:	48 89 7d f8          	mov    %rdi,-0x8(%rbp)
    3fbb:	48 89 75 f0          	mov    %rsi,-0x10(%rbp)
    3fbf:	48 89 55 e8          	mov    %rdx,-0x18(%rbp)
      { __a.deallocate(__p, __n); }
    3fc3:	48 8b 55 e8          	mov    -0x18(%rbp),%rdx
    3fc7:	48 8b 4d f0          	mov    -0x10(%rbp),%rcx
    3fcb:	48 8b 45 f8          	mov    -0x8(%rbp),%rax
    3fcf:	48 89 ce             	mov    %rcx,%rsi
    3fd2:	48 89 c7             	mov    %rax,%rdi
    3fd5:	e8 4c 04 00 00       	call   4426 <_ZNSt15__new_allocatorI21VkExtensionPropertiesE10deallocateEPS0_m>
    3fda:	90                   	nop
    3fdb:	c9                   	leave
    3fdc:	c3                   	ret

0000000000003fdd <_ZNSt6vectorINSt7__cxx1112basic_stringIcSt11char_traitsIcESaIcEEESaIS5_EE11_S_max_sizeERKS6_>:
      _S_max_size(const _Tp_alloc_type& __a) _GLIBCXX_NOEXCEPT
    3fdd:	55                   	push   %rbp
    3fde:	48 89 e5             	mov    %rsp,%rbp
    3fe1:	48 83 ec 20          	sub    $0x20,%rsp
    3fe5:	48 89 7d e8          	mov    %rdi,-0x18(%rbp)
	const size_t __diffmax
    3fe9:	48 b8 ff ff ff ff ff 	movabs $0x3ffffffffffffff,%rax
    3ff0:	ff ff 03 
    3ff3:	48 89 45 f8          	mov    %rax,-0x8(%rbp)
	const size_t __allocmax = _Alloc_traits::max_size(__a);
    3ff7:	48 8b 45 e8          	mov    -0x18(%rbp),%rax
    3ffb:	48 89 c7             	mov    %rax,%rdi
    3ffe:	e8 5d 04 00 00       	call   4460 <_ZNSt16allocator_traitsISaINSt7__cxx1112basic_stringIcSt11char_traitsIcESaIcEEEEE8max_sizeERKS6_>
    4003:	48 89 45 f0          	mov    %rax,-0x10(%rbp)
	return (std::min)(__diffmax, __allocmax);
    4007:	48 8d 55 f0          	lea    -0x10(%rbp),%rdx
    400b:	48 8d 45 f8          	lea    -0x8(%rbp),%rax
    400f:	48 89 d6             	mov    %rdx,%rsi
    4012:	48 89 c7             	mov    %rax,%rdi
    4015:	e8 47 03 00 00       	call   4361 <_ZSt3minImERKT_S2_S2_>
    401a:	48 8b 00             	mov    (%rax),%rax
      }
    401d:	c9                   	leave
    401e:	c3                   	ret
    401f:	90                   	nop

0000000000004020 <_ZNSt12_Vector_baseINSt7__cxx1112basic_stringIcSt11char_traitsIcESaIcEEESaIS5_EE12_Vector_implC1ERKS6_>:
	_Vector_impl(_Tp_alloc_type const& __a) _GLIBCXX_NOEXCEPT
    4020:	55                   	push   %rbp
    4021:	48 89 e5             	mov    %rsp,%rbp
    4024:	48 83 ec 10          	sub    $0x10,%rsp
    4028:	48 89 7d f8          	mov    %rdi,-0x8(%rbp)
    402c:	48 89 75 f0          	mov    %rsi,-0x10(%rbp)
	: _Tp_alloc_type(__a)
    4030:	48 8b 55 f0          	mov    -0x10(%rbp),%rdx
    4034:	48 8b 45 f8          	mov    -0x8(%rbp),%rax
    4038:	48 89 d6             	mov    %rdx,%rsi
    403b:	48 89 c7             	mov    %rax,%rdi
    403e:	e8 59 fb ff ff       	call   3b9c <_ZNSaINSt7__cxx1112basic_stringIcSt11char_traitsIcESaIcEEEEC1ERKS5_>
    4043:	48 8b 45 f8          	mov    -0x8(%rbp),%rax
    4047:	48 89 c7             	mov    %rax,%rdi
    404a:	e8 2b 04 00 00       	call   447a <_ZNSt12_Vector_baseINSt7__cxx1112basic_stringIcSt11char_traitsIcESaIcEEESaIS5_EE17_Vector_impl_dataC1Ev>
	{ }
    404f:	90                   	nop
    4050:	c9                   	leave
    4051:	c3                   	ret

0000000000004052 <_ZNSt12_Vector_baseINSt7__cxx1112basic_stringIcSt11char_traitsIcESaIcEEESaIS5_EE17_M_create_storageEm>:
      _M_create_storage(size_t __n)
    4052:	55                   	push   %rbp
    4053:	48 89 e5             	mov    %rsp,%rbp
    4056:	48 83 ec 10          	sub    $0x10,%rsp
    405a:	48 89 7d f8          	mov    %rdi,-0x8(%rbp)
    405e:	48 89 75 f0          	mov    %rsi,-0x10(%rbp)
	this->_M_impl._M_start = this->_M_allocate(__n);
    4062:	48 8b 55 f0          	mov    -0x10(%rbp),%rdx
    4066:	48 8b 45 f8          	mov    -0x8(%rbp),%rax
    406a:	48 89 d6             	mov    %rdx,%rsi
    406d:	48 89 c7             	mov    %rax,%rdi
    4070:	e8 33 04 00 00       	call   44a8 <_ZNSt12_Vector_baseINSt7__cxx1112basic_stringIcSt11char_traitsIcESaIcEEESaIS5_EE11_M_allocateEm>
    4075:	48 8b 55 f8          	mov    -0x8(%rbp),%rdx
    4079:	48 89 02             	mov    %rax,(%rdx)
	this->_M_impl._M_finish = this->_M_impl._M_start;
    407c:	48 8b 45 f8          	mov    -0x8(%rbp),%rax
    4080:	48 8b 10             	mov    (%rax),%rdx
    4083:	48 8b 45 f8          	mov    -0x8(%rbp),%rax
    4087:	48 89 50 08          	mov    %rdx,0x8(%rax)
	this->_M_impl._M_end_of_storage = this->_M_impl._M_start + __n;
    408b:	48 8b 45 f8          	mov    -0x8(%rbp),%rax
    408f:	48 8b 00             	mov    (%rax),%rax
    4092:	48 8b 55 f0          	mov    -0x10(%rbp),%rdx
    4096:	48 c1 e2 05          	shl    $0x5,%rdx
    409a:	48 01 c2             	add    %rax,%rdx
    409d:	48 8b 45 f8          	mov    -0x8(%rbp),%rax
    40a1:	48 89 50 10          	mov    %rdx,0x10(%rax)
      }
    40a5:	90                   	nop
    40a6:	c9                   	leave
    40a7:	c3                   	ret

00000000000040a8 <_ZSt27__uninitialized_default_n_aIPNSt7__cxx1112basic_stringIcSt11char_traitsIcESaIcEEEmS5_ET_S7_T0_RSaIT1_E>:
    __uninitialized_default_n_a(_ForwardIterator __first, _Size __n,
    40a8:	55                   	push   %rbp
    40a9:	48 89 e5             	mov    %rsp,%rbp
    40ac:	48 83 ec 20          	sub    $0x20,%rsp
    40b0:	48 89 7d f8          	mov    %rdi,-0x8(%rbp)
    40b4:	48 89 75 f0          	mov    %rsi,-0x10(%rbp)
    40b8:	48 89 55 e8          	mov    %rdx,-0x18(%rbp)
    { return std::__uninitialized_default_n(__first, __n); }
    40bc:	48 8b 55 f0          	mov    -0x10(%rbp),%rdx
    40c0:	48 8b 45 f8          	mov    -0x8(%rbp),%rax
    40c4:	48 89 d6             	mov    %rdx,%rsi
    40c7:	48 89 c7             	mov    %rax,%rdi
    40ca:	e8 0c 04 00 00       	call   44db <_ZSt25__uninitialized_default_nIPNSt7__cxx1112basic_stringIcSt11char_traitsIcESaIcEEEmET_S7_T0_>
    40cf:	c9                   	leave
    40d0:	c3                   	ret

00000000000040d1 <_ZSt8_DestroyIPNSt7__cxx1112basic_stringIcSt11char_traitsIcESaIcEEEEvT_S7_>:
    _Destroy(_ForwardIterator __first, _ForwardIterator __last)
    40d1:	55                   	push   %rbp
    40d2:	48 89 e5             	mov    %rsp,%rbp
    40d5:	48 83 ec 10          	sub    $0x10,%rsp
    40d9:	48 89 7d f8          	mov    %rdi,-0x8(%rbp)
    40dd:	48 89 75 f0          	mov    %rsi,-0x10(%rbp)
	__destroy(__first, __last);
    40e1:	48 8b 55 f0          	mov    -0x10(%rbp),%rdx
    40e5:	48 8b 45 f8          	mov    -0x8(%rbp),%rax
    40e9:	48 89 d6             	mov    %rdx,%rsi
    40ec:	48 89 c7             	mov    %rax,%rdi
    40ef:	e8 10 04 00 00       	call   4504 <_ZNSt12_Destroy_auxILb0EE9__destroyIPNSt7__cxx1112basic_stringIcSt11char_traitsIcESaIcEEEEEvT_S9_>
    }
    40f4:	90                   	nop
    40f5:	c9                   	leave
    40f6:	c3                   	ret
    40f7:	90                   	nop

00000000000040f8 <_ZNSt15__new_allocatorINSt7__cxx1112basic_stringIcSt11char_traitsIcESaIcEEEEC1ERKS6_>:
    40f8:	55                   	push   %rbp
    40f9:	48 89 e5             	mov    %rsp,%rbp
    40fc:	48 89 7d f8          	mov    %rdi,-0x8(%rbp)
    4100:	48 89 75 f0          	mov    %rsi,-0x10(%rbp)
    4104:	90                   	nop
    4105:	5d                   	pop    %rbp
    4106:	c3                   	ret

0000000000004107 <_ZNSt16allocator_traitsISaINSt7__cxx1112basic_stringIcSt11char_traitsIcESaIcEEEEE10deallocateERS6_PS5_m>:
      deallocate(allocator_type& __a, pointer __p, size_type __n)
    4107:	55                   	push   %rbp
    4108:	48 89 e5             	mov    %rsp,%rbp
    410b:	48 83 ec 20          	sub    $0x20,%rsp
    410f:	48 89 7d f8          	mov    %rdi,-0x8(%rbp)
    4113:	48 89 75 f0          	mov    %rsi,-0x10(%rbp)
    4117:	48 89 55 e8          	mov    %rdx,-0x18(%rbp)
      { __a.deallocate(__p, __n); }
    411b:	48 8b 55 e8          	mov    -0x18(%rbp),%rdx
    411f:	48 8b 4d f0          	mov    -0x10(%rbp),%rcx
    4123:	48 8b 45 f8          	mov    -0x8(%rbp),%rax
    4127:	48 89 ce             	mov    %rcx,%rsi
    412a:	48 89 c7             	mov    %rax,%rdi
    412d:	e8 0c 04 00 00       	call   453e <_ZNSt15__new_allocatorINSt7__cxx1112basic_stringIcSt11char_traitsIcESaIcEEEE10deallocateEPS5_m>
    4132:	90                   	nop
    4133:	c9                   	leave
    4134:	c3                   	ret

0000000000004135 <_ZNSt6vectorI17VkLayerPropertiesSaIS0_EE11_S_max_sizeERKS1_>:
      _S_max_size(const _Tp_alloc_type& __a) _GLIBCXX_NOEXCEPT
    4135:	55                   	push   %rbp
    4136:	48 89 e5             	mov    %rsp,%rbp
    4139:	48 83 ec 20          	sub    $0x20,%rsp
    413d:	48 89 7d e8          	mov    %rdi,-0x18(%rbp)
	const size_t __diffmax
    4141:	48 b8 3f f0 03 3f f0 	movabs $0x3f03f03f03f03f,%rax
    4148:	03 3f 00 
    414b:	48 89 45 f8          	mov    %rax,-0x8(%rbp)
	const size_t __allocmax = _Alloc_traits::max_size(__a);
    414f:	48 8b 45 e8          	mov    -0x18(%rbp),%rax
    4153:	48 89 c7             	mov    %rax,%rdi
    4156:	e8 13 04 00 00       	call   456e <_ZNSt16allocator_traitsISaI17VkLayerPropertiesEE8max_sizeERKS1_>
    415b:	48 89 45 f0          	mov    %rax,-0x10(%rbp)
	return (std::min)(__diffmax, __allocmax);
    415f:	48 8d 55 f0          	lea    -0x10(%rbp),%rdx
    4163:	48 8d 45 f8          	lea    -0x8(%rbp),%rax
    4167:	48 89 d6             	mov    %rdx,%rsi
    416a:	48 89 c7             	mov    %rax,%rdi
    416d:	e8 ef 01 00 00       	call   4361 <_ZSt3minImERKT_S2_S2_>
    4172:	48 8b 00             	mov    (%rax),%rax
      }
    4175:	c9                   	leave
    4176:	c3                   	ret
    4177:	90                   	nop

0000000000004178 <_ZNSt12_Vector_baseI17VkLayerPropertiesSaIS0_EE12_Vector_implC1ERKS1_>:
	_Vector_impl(_Tp_alloc_type const& __a) _GLIBCXX_NOEXCEPT
    4178:	55                   	push   %rbp
    4179:	48 89 e5             	mov    %rsp,%rbp
    417c:	48 83 ec 10          	sub    $0x10,%rsp
    4180:	48 89 7d f8          	mov    %rdi,-0x8(%rbp)
    4184:	48 89 75 f0          	mov    %rsi,-0x10(%rbp)
	: _Tp_alloc_type(__a)
    4188:	48 8b 55 f0          	mov    -0x10(%rbp),%rdx
    418c:	48 8b 45 f8          	mov    -0x8(%rbp),%rax
    4190:	48 89 d6             	mov    %rdx,%rsi
    4193:	48 89 c7             	mov    %rax,%rdi
    4196:	e8 79 fb ff ff       	call   3d14 <_ZNSaI17VkLayerPropertiesEC1ERKS0_>
    419b:	48 8b 45 f8          	mov    -0x8(%rbp),%rax
    419f:	48 89 c7             	mov    %rax,%rdi
    41a2:	e8 e1 03 00 00       	call   4588 <_ZNSt12_Vector_baseI17VkLayerPropertiesSaIS0_EE17_Vector_impl_dataC1Ev>
	{ }
    41a7:	90                   	nop
    41a8:	c9                   	leave
    41a9:	c3                   	ret

00000000000041aa <_ZNSt12_Vector_baseI17VkLayerPropertiesSaIS0_EE17_M_create_storageEm>:
      _M_create_storage(size_t __n)
    41aa:	55                   	push   %rbp
    41ab:	48 89 e5             	mov    %rsp,%rbp
    41ae:	48 83 ec 10          	sub    $0x10,%rsp
    41b2:	48 89 7d f8          	mov    %rdi,-0x8(%rbp)
    41b6:	48 89 75 f0          	mov    %rsi,-0x10(%rbp)
	this->_M_impl._M_start = this->_M_allocate(__n);
    41ba:	48 8b 55 f0          	mov    -0x10(%rbp),%rdx
    41be:	48 8b 45 f8          	mov    -0x8(%rbp),%rax
    41c2:	48 89 d6             	mov    %rdx,%rsi
    41c5:	48 89 c7             	mov    %rax,%rdi
    41c8:	e8 e9 03 00 00       	call   45b6 <_ZNSt12_Vector_baseI17VkLayerPropertiesSaIS0_EE11_M_allocateEm>
    41cd:	48 8b 55 f8          	mov    -0x8(%rbp),%rdx
    41d1:	48 89 02             	mov    %rax,(%rdx)
	this->_M_impl._M_finish = this->_M_impl._M_start;
    41d4:	48 8b 45 f8          	mov    -0x8(%rbp),%rax
    41d8:	48 8b 10             	mov    (%rax),%rdx
    41db:	48 8b 45 f8          	mov    -0x8(%rbp),%rax
    41df:	48 89 50 08          	mov    %rdx,0x8(%rax)
	this->_M_impl._M_end_of_storage = this->_M_impl._M_start + __n;
    41e3:	48 8b 45 f8          	mov    -0x8(%rbp),%rax
    41e7:	48 8b 08             	mov    (%rax),%rcx
    41ea:	48 8b 55 f0          	mov    -0x10(%rbp),%rdx
    41ee:	48 89 d0             	mov    %rdx,%rax
    41f1:	48 c1 e0 06          	shl    $0x6,%rax
    41f5:	48 01 d0             	add    %rdx,%rax
    41f8:	48 c1 e0 03          	shl    $0x3,%rax
    41fc:	48 8d 14 01          	lea    (%rcx,%rax,1),%rdx
    4200:	48 8b 45 f8          	mov    -0x8(%rbp),%rax
    4204:	48 89 50 10          	mov    %rdx,0x10(%rax)
      }
    4208:	90                   	nop
    4209:	c9                   	leave
    420a:	c3                   	ret

000000000000420b <_ZSt27__uninitialized_default_n_aIP17VkLayerPropertiesmS0_ET_S2_T0_RSaIT1_E>:
    __uninitialized_default_n_a(_ForwardIterator __first, _Size __n,
    420b:	55                   	push   %rbp
    420c:	48 89 e5             	mov    %rsp,%rbp
    420f:	48 83 ec 20          	sub    $0x20,%rsp
    4213:	48 89 7d f8          	mov    %rdi,-0x8(%rbp)
    4217:	48 89 75 f0          	mov    %rsi,-0x10(%rbp)
    421b:	48 89 55 e8          	mov    %rdx,-0x18(%rbp)
    { return std::__uninitialized_default_n(__first, __n); }
    421f:	48 8b 55 f0          	mov    -0x10(%rbp),%rdx
    4223:	48 8b 45 f8          	mov    -0x8(%rbp),%rax
    4227:	48 89 d6             	mov    %rdx,%rsi
    422a:	48 89 c7             	mov    %rax,%rdi
    422d:	e8 b7 03 00 00       	call   45e9 <_ZSt25__uninitialized_default_nIP17VkLayerPropertiesmET_S2_T0_>
    4232:	c9                   	leave
    4233:	c3                   	ret

0000000000004234 <_ZNSt15__new_allocatorI17VkLayerPropertiesEC1ERKS1_>:
    4234:	55                   	push   %rbp
    4235:	48 89 e5             	mov    %rsp,%rbp
    4238:	48 89 7d f8          	mov    %rdi,-0x8(%rbp)
    423c:	48 89 75 f0          	mov    %rsi,-0x10(%rbp)
    4240:	90                   	nop
    4241:	5d                   	pop    %rbp
    4242:	c3                   	ret

0000000000004243 <_ZNSt6vectorIP18VkPhysicalDevice_TSaIS1_EE11_S_max_sizeERKS2_>:
      _S_max_size(const _Tp_alloc_type& __a) _GLIBCXX_NOEXCEPT
    4243:	55                   	push   %rbp
    4244:	48 89 e5             	mov    %rsp,%rbp
    4247:	48 83 ec 20          	sub    $0x20,%rsp
    424b:	48 89 7d e8          	mov    %rdi,-0x18(%rbp)
	const size_t __diffmax
    424f:	48 b8 ff ff ff ff ff 	movabs $0xfffffffffffffff,%rax
    4256:	ff ff 0f 
    4259:	48 89 45 f8          	mov    %rax,-0x8(%rbp)
	const size_t __allocmax = _Alloc_traits::max_size(__a);
    425d:	48 8b 45 e8          	mov    -0x18(%rbp),%rax
    4261:	48 89 c7             	mov    %rax,%rdi
    4264:	e8 a9 03 00 00       	call   4612 <_ZNSt16allocator_traitsISaIP18VkPhysicalDevice_TEE8max_sizeERKS2_>
    4269:	48 89 45 f0          	mov    %rax,-0x10(%rbp)
	return (std::min)(__diffmax, __allocmax);
    426d:	48 8d 55 f0          	lea    -0x10(%rbp),%rdx
    4271:	48 8d 45 f8          	lea    -0x8(%rbp),%rax
    4275:	48 89 d6             	mov    %rdx,%rsi
    4278:	48 89 c7             	mov    %rax,%rdi
    427b:	e8 e1 00 00 00       	call   4361 <_ZSt3minImERKT_S2_S2_>
    4280:	48 8b 00             	mov    (%rax),%rax
      }
    4283:	c9                   	leave
    4284:	c3                   	ret
    4285:	90                   	nop

0000000000004286 <_ZNSt12_Vector_baseIP18VkPhysicalDevice_TSaIS1_EE12_Vector_implC1ERKS2_>:
	_Vector_impl(_Tp_alloc_type const& __a) _GLIBCXX_NOEXCEPT
    4286:	55                   	push   %rbp
    4287:	48 89 e5             	mov    %rsp,%rbp
    428a:	48 83 ec 10          	sub    $0x10,%rsp
    428e:	48 89 7d f8          	mov    %rdi,-0x8(%rbp)
    4292:	48 89 75 f0          	mov    %rsi,-0x10(%rbp)
	: _Tp_alloc_type(__a)
    4296:	48 8b 55 f0          	mov    -0x10(%rbp),%rdx
    429a:	48 8b 45 f8          	mov    -0x8(%rbp),%rax
    429e:	48 89 d6             	mov    %rdx,%rsi
    42a1:	48 89 c7             	mov    %rax,%rdi
    42a4:	e8 ad fb ff ff       	call   3e56 <_ZNSaIP18VkPhysicalDevice_TEC1ERKS1_>
    42a9:	48 8b 45 f8          	mov    -0x8(%rbp),%rax
    42ad:	48 89 c7             	mov    %rax,%rdi
    42b0:	e8 77 03 00 00       	call   462c <_ZNSt12_Vector_baseIP18VkPhysicalDevice_TSaIS1_EE17_Vector_impl_dataC1Ev>
	{ }
    42b5:	90                   	nop
    42b6:	c9                   	leave
    42b7:	c3                   	ret

00000000000042b8 <_ZNSt12_Vector_baseIP18VkPhysicalDevice_TSaIS1_EE17_M_create_storageEm>:
      _M_create_storage(size_t __n)
    42b8:	55                   	push   %rbp
    42b9:	48 89 e5             	mov    %rsp,%rbp
    42bc:	48 83 ec 10          	sub    $0x10,%rsp
    42c0:	48 89 7d f8          	mov    %rdi,-0x8(%rbp)
    42c4:	48 89 75 f0          	mov    %rsi,-0x10(%rbp)
	this->_M_impl._M_start = this->_M_allocate(__n);
    42c8:	48 8b 55 f0          	mov    -0x10(%rbp),%rdx
    42cc:	48 8b 45 f8          	mov    -0x8(%rbp),%rax
    42d0:	48 89 d6             	mov    %rdx,%rsi
    42d3:	48 89 c7             	mov    %rax,%rdi
    42d6:	e8 7f 03 00 00       	call   465a <_ZNSt12_Vector_baseIP18VkPhysicalDevice_TSaIS1_EE11_M_allocateEm>
    42db:	48 8b 55 f8          	mov    -0x8(%rbp),%rdx
    42df:	48 89 02             	mov    %rax,(%rdx)
	this->_M_impl._M_finish = this->_M_impl._M_start;
    42e2:	48 8b 45 f8          	mov    -0x8(%rbp),%rax
    42e6:	48 8b 10             	mov    (%rax),%rdx
    42e9:	48 8b 45 f8          	mov    -0x8(%rbp),%rax
    42ed:	48 89 50 08          	mov    %rdx,0x8(%rax)
	this->_M_impl._M_end_of_storage = this->_M_impl._M_start + __n;
    42f1:	48 8b 45 f8          	mov    -0x8(%rbp),%rax
    42f5:	48 8b 00             	mov    (%rax),%rax
    42f8:	48 8b 55 f0          	mov    -0x10(%rbp),%rdx
    42fc:	48 c1 e2 03          	shl    $0x3,%rdx
    4300:	48 01 c2             	add    %rax,%rdx
    4303:	48 8b 45 f8          	mov    -0x8(%rbp),%rax
    4307:	48 89 50 10          	mov    %rdx,0x10(%rax)
      }
    430b:	90                   	nop
    430c:	c9                   	leave
    430d:	c3                   	ret

000000000000430e <_ZSt27__uninitialized_default_n_aIPP18VkPhysicalDevice_TmS1_ET_S3_T0_RSaIT1_E>:
    __uninitialized_default_n_a(_ForwardIterator __first, _Size __n,
    430e:	55                   	push   %rbp
    430f:	48 89 e5             	mov    %rsp,%rbp
    4312:	48 83 ec 20          	sub    $0x20,%rsp
    4316:	48 89 7d f8          	mov    %rdi,-0x8(%rbp)
    431a:	48 89 75 f0          	mov    %rsi,-0x10(%rbp)
    431e:	48 89 55 e8          	mov    %rdx,-0x18(%rbp)
    { return std::__uninitialized_default_n(__first, __n); }
    4322:	48 8b 55 f0          	mov    -0x10(%rbp),%rdx
    4326:	48 8b 45 f8          	mov    -0x8(%rbp),%rax
    432a:	48 89 d6             	mov    %rdx,%rsi
    432d:	48 89 c7             	mov    %rax,%rdi
    4330:	e8 58 03 00 00       	call   468d <_ZSt25__uninitialized_default_nIPP18VkPhysicalDevice_TmET_S3_T0_>
    4335:	c9                   	leave
    4336:	c3                   	ret
    4337:	90                   	nop

0000000000004338 <_ZNSt15__new_allocatorIP18VkPhysicalDevice_TEC1ERKS2_>:
    4338:	55                   	push   %rbp
    4339:	48 89 e5             	mov    %rsp,%rbp
    433c:	48 89 7d f8          	mov    %rdi,-0x8(%rbp)
    4340:	48 89 75 f0          	mov    %rsi,-0x10(%rbp)
    4344:	90                   	nop
    4345:	5d                   	pop    %rbp
    4346:	c3                   	ret

0000000000004347 <_ZNSt16allocator_traitsISaI21VkExtensionPropertiesEE8max_sizeERKS1_>:
      max_size(const allocator_type& __a __attribute__((__unused__))) noexcept
    4347:	55                   	push   %rbp
    4348:	48 89 e5             	mov    %rsp,%rbp
    434b:	48 83 ec 10          	sub    $0x10,%rsp
    434f:	48 89 7d f8          	mov    %rdi,-0x8(%rbp)
	return __a.max_size();
    4353:	48 8b 45 f8          	mov    -0x8(%rbp),%rax
    4357:	48 89 c7             	mov    %rax,%rdi
    435a:	e8 57 03 00 00       	call   46b6 <_ZNKSt15__new_allocatorI21VkExtensionPropertiesE8max_sizeEv>
      }
    435f:	c9                   	leave
    4360:	c3                   	ret

0000000000004361 <_ZSt3minImERKT_S2_S2_>:
    min(const _Tp& __a, const _Tp& __b)
    4361:	55                   	push   %rbp
    4362:	48 89 e5             	mov    %rsp,%rbp
    4365:	48 89 7d f8          	mov    %rdi,-0x8(%rbp)
    4369:	48 89 75 f0          	mov    %rsi,-0x10(%rbp)
      if (__b < __a)
    436d:	48 8b 45 f0          	mov    -0x10(%rbp),%rax
    4371:	48 8b 10             	mov    (%rax),%rdx
    4374:	48 8b 45 f8          	mov    -0x8(%rbp),%rax
    4378:	48 8b 00             	mov    (%rax),%rax
    437b:	48 39 c2             	cmp    %rax,%rdx
    437e:	73 06                	jae    4386 <_ZSt3minImERKT_S2_S2_+0x25>
	return __b;
    4380:	48 8b 45 f0          	mov    -0x10(%rbp),%rax
    4384:	eb 04                	jmp    438a <_ZSt3minImERKT_S2_S2_+0x29>
      return __a;
    4386:	48 8b 45 f8          	mov    -0x8(%rbp),%rax
    }
    438a:	5d                   	pop    %rbp
    438b:	c3                   	ret

000000000000438c <_ZNSt12_Vector_baseI21VkExtensionPropertiesSaIS0_EE17_Vector_impl_dataC1Ev>:
	_Vector_impl_data() _GLIBCXX_NOEXCEPT
    438c:	55                   	push   %rbp
    438d:	48 89 e5             	mov    %rsp,%rbp
    4390:	48 89 7d f8          	mov    %rdi,-0x8(%rbp)
	: _M_start(), _M_finish(), _M_end_of_storage()
    4394:	48 8b 45 f8          	mov    -0x8(%rbp),%rax
    4398:	48 c7 00 00 00 00 00 	movq   $0x0,(%rax)
    439f:	48 8b 45 f8          	mov    -0x8(%rbp),%rax
    43a3:	48 c7 40 08 00 00 00 	movq   $0x0,0x8(%rax)
    43aa:	00 
    43ab:	48 8b 45 f8          	mov    -0x8(%rbp),%rax
    43af:	48 c7 40 10 00 00 00 	movq   $0x0,0x10(%rax)
    43b6:	00 
	{ }
    43b7:	90                   	nop
    43b8:	5d                   	pop    %rbp
    43b9:	c3                   	ret

00000000000043ba <_ZNSt12_Vector_baseI21VkExtensionPropertiesSaIS0_EE11_M_allocateEm>:
      _M_allocate(size_t __n)
    43ba:	55                   	push   %rbp
    43bb:	48 89 e5             	mov    %rsp,%rbp
    43be:	48 83 ec 10          	sub    $0x10,%rsp
    43c2:	48 89 7d f8          	mov    %rdi,-0x8(%rbp)
    43c6:	48 89 75 f0          	mov    %rsi,-0x10(%rbp)
	return __n != 0 ? _Tr::allocate(_M_impl, __n) : pointer();
    43ca:	48 83 7d f0 00       	cmpq   $0x0,-0x10(%rbp)
    43cf:	74 15                	je     43e6 <_ZNSt12_Vector_baseI21VkExtensionPropertiesSaIS0_EE11_M_allocateEm+0x2c>
    43d1:	48 8b 45 f8          	mov    -0x8(%rbp),%rax
    43d5:	48 8b 55 f0          	mov    -0x10(%rbp),%rdx
    43d9:	48 89 d6             	mov    %rdx,%rsi
    43dc:	48 89 c7             	mov    %rax,%rdi
    43df:	e8 ec 02 00 00       	call   46d0 <_ZNSt16allocator_traitsISaI21VkExtensionPropertiesEE8allocateERS1_m>
    43e4:	eb 05                	jmp    43eb <_ZNSt12_Vector_baseI21VkExtensionPropertiesSaIS0_EE11_M_allocateEm+0x31>
    43e6:	b8 00 00 00 00       	mov    $0x0,%eax
      }
    43eb:	c9                   	leave
    43ec:	c3                   	ret

00000000000043ed <_ZSt25__uninitialized_default_nIP21VkExtensionPropertiesmET_S2_T0_>:
    __uninitialized_default_n(_ForwardIterator __first, _Size __n)
    43ed:	55                   	push   %rbp
    43ee:	48 89 e5             	mov    %rsp,%rbp
    43f1:	48 83 ec 20          	sub    $0x20,%rsp
    43f5:	48 89 7d e8          	mov    %rdi,-0x18(%rbp)
    43f9:	48 89 75 e0          	mov    %rsi,-0x20(%rbp)
      constexpr bool __can_fill
    43fd:	c6 45 ff 01          	movb   $0x1,-0x1(%rbp)
	__uninit_default_n(__first, __n);
    4401:	48 8b 55 e0          	mov    -0x20(%rbp),%rdx
    4405:	48 8b 45 e8          	mov    -0x18(%rbp),%rax
    4409:	48 89 d6             	mov    %rdx,%rsi
    440c:	48 89 c7             	mov    %rax,%rdi
    440f:	e8 e6 02 00 00       	call   46fa <_ZNSt27__uninitialized_default_n_1ILb1EE18__uninit_default_nIP21VkExtensionPropertiesmEET_S4_T0_>
    }
    4414:	c9                   	leave
    4415:	c3                   	ret

0000000000004416 <_ZNSt12_Destroy_auxILb1EE9__destroyIP21VkExtensionPropertiesEEvT_S4_>:
        __destroy(_ForwardIterator, _ForwardIterator) { }
    4416:	55                   	push   %rbp
    4417:	48 89 e5             	mov    %rsp,%rbp
    441a:	48 89 7d f8          	mov    %rdi,-0x8(%rbp)
    441e:	48 89 75 f0          	mov    %rsi,-0x10(%rbp)
    4422:	90                   	nop
    4423:	5d                   	pop    %rbp
    4424:	c3                   	ret
    4425:	90                   	nop

0000000000004426 <_ZNSt15__new_allocatorI21VkExtensionPropertiesE10deallocateEPS0_m>:
      deallocate(_Tp* __p, size_type __n __attribute__ ((__unused__)))
    4426:	55                   	push   %rbp
    4427:	48 89 e5             	mov    %rsp,%rbp
    442a:	48 83 ec 20          	sub    $0x20,%rsp
    442e:	48 89 7d f8          	mov    %rdi,-0x8(%rbp)
    4432:	48 89 75 f0          	mov    %rsi,-0x10(%rbp)
    4436:	48 89 55 e8          	mov    %rdx,-0x18(%rbp)
	_GLIBCXX_OPERATOR_DELETE(_GLIBCXX_SIZED_DEALLOC(__p, __n));
    443a:	48 8b 55 e8          	mov    -0x18(%rbp),%rdx
    443e:	48 89 d0             	mov    %rdx,%rax
    4441:	48 c1 e0 06          	shl    $0x6,%rax
    4445:	48 01 d0             	add    %rdx,%rax
    4448:	48 c1 e0 02          	shl    $0x2,%rax
    444c:	48 89 c2             	mov    %rax,%rdx
    444f:	48 8b 45 f0          	mov    -0x10(%rbp),%rax
    4453:	48 89 d6             	mov    %rdx,%rsi
    4456:	48 89 c7             	mov    %rax,%rdi
    4459:	e8 82 dd ff ff       	call   21e0 <_ZdlPvm@plt>
      }
    445e:	c9                   	leave
    445f:	c3                   	ret

0000000000004460 <_ZNSt16allocator_traitsISaINSt7__cxx1112basic_stringIcSt11char_traitsIcESaIcEEEEE8max_sizeERKS6_>:
      max_size(const allocator_type& __a __attribute__((__unused__))) noexcept
    4460:	55                   	push   %rbp
    4461:	48 89 e5             	mov    %rsp,%rbp
    4464:	48 83 ec 10          	sub    $0x10,%rsp
    4468:	48 89 7d f8          	mov    %rdi,-0x8(%rbp)
	return __a.max_size();
    446c:	48 8b 45 f8          	mov    -0x8(%rbp),%rax
    4470:	48 89 c7             	mov    %rax,%rdi
    4473:	e8 e2 02 00 00       	call   475a <_ZNKSt15__new_allocatorINSt7__cxx1112basic_stringIcSt11char_traitsIcESaIcEEEE8max_sizeEv>
      }
    4478:	c9                   	leave
    4479:	c3                   	ret

000000000000447a <_ZNSt12_Vector_baseINSt7__cxx1112basic_stringIcSt11char_traitsIcESaIcEEESaIS5_EE17_Vector_impl_dataC1Ev>:
	_Vector_impl_data() _GLIBCXX_NOEXCEPT
    447a:	55                   	push   %rbp
    447b:	48 89 e5             	mov    %rsp,%rbp
    447e:	48 89 7d f8          	mov    %rdi,-0x8(%rbp)
	: _M_start(), _M_finish(), _M_end_of_storage()
    4482:	48 8b 45 f8          	mov    -0x8(%rbp),%rax
    4486:	48 c7 00 00 00 00 00 	movq   $0x0,(%rax)
    448d:	48 8b 45 f8          	mov    -0x8(%rbp),%rax
    4491:	48 c7 40 08 00 00 00 	movq   $0x0,0x8(%rax)
    4498:	00 
    4499:	48 8b 45 f8          	mov    -0x8(%rbp),%rax
    449d:	48 c7 40 10 00 00 00 	movq   $0x0,0x10(%rax)
    44a4:	00 
	{ }
    44a5:	90                   	nop
    44a6:	5d                   	pop    %rbp
    44a7:	c3                   	ret

00000000000044a8 <_ZNSt12_Vector_baseINSt7__cxx1112basic_stringIcSt11char_traitsIcESaIcEEESaIS5_EE11_M_allocateEm>:
      _M_allocate(size_t __n)
    44a8:	55                   	push   %rbp
    44a9:	48 89 e5             	mov    %rsp,%rbp
    44ac:	48 83 ec 10          	sub    $0x10,%rsp
    44b0:	48 89 7d f8          	mov    %rdi,-0x8(%rbp)
    44b4:	48 89 75 f0          	mov    %rsi,-0x10(%rbp)
	return __n != 0 ? _Tr::allocate(_M_impl, __n) : pointer();
    44b8:	48 83 7d f0 00       	cmpq   $0x0,-0x10(%rbp)
    44bd:	74 15                	je     44d4 <_ZNSt12_Vector_baseINSt7__cxx1112basic_stringIcSt11char_traitsIcESaIcEEESaIS5_EE11_M_allocateEm+0x2c>
    44bf:	48 8b 45 f8          	mov    -0x8(%rbp),%rax
    44c3:	48 8b 55 f0          	mov    -0x10(%rbp),%rdx
    44c7:	48 89 d6             	mov    %rdx,%rsi
    44ca:	48 89 c7             	mov    %rax,%rdi
    44cd:	e8 a2 02 00 00       	call   4774 <_ZNSt16allocator_traitsISaINSt7__cxx1112basic_stringIcSt11char_traitsIcESaIcEEEEE8allocateERS6_m>
    44d2:	eb 05                	jmp    44d9 <_ZNSt12_Vector_baseINSt7__cxx1112basic_stringIcSt11char_traitsIcESaIcEEESaIS5_EE11_M_allocateEm+0x31>
    44d4:	b8 00 00 00 00       	mov    $0x0,%eax
      }
    44d9:	c9                   	leave
    44da:	c3                   	ret

00000000000044db <_ZSt25__uninitialized_default_nIPNSt7__cxx1112basic_stringIcSt11char_traitsIcESaIcEEEmET_S7_T0_>:
    __uninitialized_default_n(_ForwardIterator __first, _Size __n)
    44db:	55                   	push   %rbp
    44dc:	48 89 e5             	mov    %rsp,%rbp
    44df:	48 83 ec 20          	sub    $0x20,%rsp
    44e3:	48 89 7d e8          	mov    %rdi,-0x18(%rbp)
    44e7:	48 89 75 e0          	mov    %rsi,-0x20(%rbp)
      constexpr bool __can_fill
    44eb:	c6 45 ff 01          	movb   $0x1,-0x1(%rbp)
	__uninit_default_n(__first, __n);
    44ef:	48 8b 55 e0          	mov    -0x20(%rbp),%rdx
    44f3:	48 8b 45 e8          	mov    -0x18(%rbp),%rax
    44f7:	48 89 d6             	mov    %rdx,%rsi
    44fa:	48 89 c7             	mov    %rax,%rdi
    44fd:	e8 9c 02 00 00       	call   479e <_ZNSt27__uninitialized_default_n_1ILb0EE18__uninit_default_nIPNSt7__cxx1112basic_stringIcSt11char_traitsIcESaIcEEEmEET_S9_T0_>
    }
    4502:	c9                   	leave
    4503:	c3                   	ret

0000000000004504 <_ZNSt12_Destroy_auxILb0EE9__destroyIPNSt7__cxx1112basic_stringIcSt11char_traitsIcESaIcEEEEEvT_S9_>:
	__destroy(_ForwardIterator __first, _ForwardIterator __last)
    4504:	55                   	push   %rbp
    4505:	48 89 e5             	mov    %rsp,%rbp
    4508:	48 83 ec 10          	sub    $0x10,%rsp
    450c:	48 89 7d f8          	mov    %rdi,-0x8(%rbp)
    4510:	48 89 75 f0          	mov    %rsi,-0x10(%rbp)
	  for (; __first != __last; ++__first)
    4514:	eb 19                	jmp    452f <_ZNSt12_Destroy_auxILb0EE9__destroyIPNSt7__cxx1112basic_stringIcSt11char_traitsIcESaIcEEEEEvT_S9_+0x2b>
	    std::_Destroy(std::__addressof(*__first));
    4516:	48 8b 45 f8          	mov    -0x8(%rbp),%rax
    451a:	48 89 c7             	mov    %rax,%rdi
    451d:	e8 c1 02 00 00       	call   47e3 <_ZSt11__addressofINSt7__cxx1112basic_stringIcSt11char_traitsIcESaIcEEEEPT_RS6_>
    4522:	48 89 c7             	mov    %rax,%rdi
    4525:	e8 c7 02 00 00       	call   47f1 <_ZSt8_DestroyINSt7__cxx1112basic_stringIcSt11char_traitsIcESaIcEEEEvPT_>
	  for (; __first != __last; ++__first)
    452a:	48 83 45 f8 20       	addq   $0x20,-0x8(%rbp)
    452f:	48 8b 45 f8          	mov    -0x8(%rbp),%rax
    4533:	48 3b 45 f0          	cmp    -0x10(%rbp),%rax
    4537:	75 dd                	jne    4516 <_ZNSt12_Destroy_auxILb0EE9__destroyIPNSt7__cxx1112basic_stringIcSt11char_traitsIcESaIcEEEEEvT_S9_+0x12>
	}
    4539:	90                   	nop
    453a:	90                   	nop
    453b:	c9                   	leave
    453c:	c3                   	ret
    453d:	90                   	nop

000000000000453e <_ZNSt15__new_allocatorINSt7__cxx1112basic_stringIcSt11char_traitsIcESaIcEEEE10deallocateEPS5_m>:
      deallocate(_Tp* __p, size_type __n __attribute__ ((__unused__)))
    453e:	55                   	push   %rbp
    453f:	48 89 e5             	mov    %rsp,%rbp
    4542:	48 83 ec 20          	sub    $0x20,%rsp
    4546:	48 89 7d f8          	mov    %rdi,-0x8(%rbp)
    454a:	48 89 75 f0          	mov    %rsi,-0x10(%rbp)
    454e:	48 89 55 e8          	mov    %rdx,-0x18(%rbp)
	_GLIBCXX_OPERATOR_DELETE(_GLIBCXX_SIZED_DEALLOC(__p, __n));
    4552:	48 8b 45 e8          	mov    -0x18(%rbp),%rax
    4556:	48 c1 e0 05          	shl    $0x5,%rax
    455a:	48 89 c2             	mov    %rax,%rdx
    455d:	48 8b 45 f0          	mov    -0x10(%rbp),%rax
    4561:	48 89 d6             	mov    %rdx,%rsi
    4564:	48 89 c7             	mov    %rax,%rdi
    4567:	e8 74 dc ff ff       	call   21e0 <_ZdlPvm@plt>
      }
    456c:	c9                   	leave
    456d:	c3                   	ret

000000000000456e <_ZNSt16allocator_traitsISaI17VkLayerPropertiesEE8max_sizeERKS1_>:
      max_size(const allocator_type& __a __attribute__((__unused__))) noexcept
    456e:	55                   	push   %rbp
    456f:	48 89 e5             	mov    %rsp,%rbp
    4572:	48 83 ec 10          	sub    $0x10,%rsp
    4576:	48 89 7d f8          	mov    %rdi,-0x8(%rbp)
	return __a.max_size();
    457a:	48 8b 45 f8          	mov    -0x8(%rbp),%rax
    457e:	48 89 c7             	mov    %rax,%rdi
    4581:	e8 86 02 00 00       	call   480c <_ZNKSt15__new_allocatorI17VkLayerPropertiesE8max_sizeEv>
      }
    4586:	c9                   	leave
    4587:	c3                   	ret

0000000000004588 <_ZNSt12_Vector_baseI17VkLayerPropertiesSaIS0_EE17_Vector_impl_dataC1Ev>:
	_Vector_impl_data() _GLIBCXX_NOEXCEPT
    4588:	55                   	push   %rbp
    4589:	48 89 e5             	mov    %rsp,%rbp
    458c:	48 89 7d f8          	mov    %rdi,-0x8(%rbp)
	: _M_start(), _M_finish(), _M_end_of_storage()
    4590:	48 8b 45 f8          	mov    -0x8(%rbp),%rax
    4594:	48 c7 00 00 00 00 00 	movq   $0x0,(%rax)
    459b:	48 8b 45 f8          	mov    -0x8(%rbp),%rax
    459f:	48 c7 40 08 00 00 00 	movq   $0x0,0x8(%rax)
    45a6:	00 
    45a7:	48 8b 45 f8          	mov    -0x8(%rbp),%rax
    45ab:	48 c7 40 10 00 00 00 	movq   $0x0,0x10(%rax)
    45b2:	00 
	{ }
    45b3:	90                   	nop
    45b4:	5d                   	pop    %rbp
    45b5:	c3                   	ret

00000000000045b6 <_ZNSt12_Vector_baseI17VkLayerPropertiesSaIS0_EE11_M_allocateEm>:
      _M_allocate(size_t __n)
    45b6:	55                   	push   %rbp
    45b7:	48 89 e5             	mov    %rsp,%rbp
    45ba:	48 83 ec 10          	sub    $0x10,%rsp
    45be:	48 89 7d f8          	mov    %rdi,-0x8(%rbp)
    45c2:	48 89 75 f0          	mov    %rsi,-0x10(%rbp)
	return __n != 0 ? _Tr::allocate(_M_impl, __n) : pointer();
    45c6:	48 83 7d f0 00       	cmpq   $0x0,-0x10(%rbp)
    45cb:	74 15                	je     45e2 <_ZNSt12_Vector_baseI17VkLayerPropertiesSaIS0_EE11_M_allocateEm+0x2c>
    45cd:	48 8b 45 f8          	mov    -0x8(%rbp),%rax
    45d1:	48 8b 55 f0          	mov    -0x10(%rbp),%rdx
    45d5:	48 89 d6             	mov    %rdx,%rsi
    45d8:	48 89 c7             	mov    %rax,%rdi
    45db:	e8 46 02 00 00       	call   4826 <_ZNSt16allocator_traitsISaI17VkLayerPropertiesEE8allocateERS1_m>
    45e0:	eb 05                	jmp    45e7 <_ZNSt12_Vector_baseI17VkLayerPropertiesSaIS0_EE11_M_allocateEm+0x31>
    45e2:	b8 00 00 00 00       	mov    $0x0,%eax
      }
    45e7:	c9                   	leave
    45e8:	c3                   	ret

00000000000045e9 <_ZSt25__uninitialized_default_nIP17VkLayerPropertiesmET_S2_T0_>:
    __uninitialized_default_n(_ForwardIterator __first, _Size __n)
    45e9:	55                   	push   %rbp
    45ea:	48 89 e5             	mov    %rsp,%rbp
    45ed:	48 83 ec 20          	sub    $0x20,%rsp
    45f1:	48 89 7d e8          	mov    %rdi,-0x18(%rbp)
    45f5:	48 89 75 e0          	mov    %rsi,-0x20(%rbp)
      constexpr bool __can_fill
    45f9:	c6 45 ff 01          	movb   $0x1,-0x1(%rbp)
	__uninit_default_n(__first, __n);
    45fd:	48 8b 55 e0          	mov    -0x20(%rbp),%rdx
    4601:	48 8b 45 e8          	mov    -0x18(%rbp),%rax
    4605:	48 89 d6             	mov    %rdx,%rsi
    4608:	48 89 c7             	mov    %rax,%rdi
    460b:	e8 40 02 00 00       	call   4850 <_ZNSt27__uninitialized_default_n_1ILb1EE18__uninit_default_nIP17VkLayerPropertiesmEET_S4_T0_>
    }
    4610:	c9                   	leave
    4611:	c3                   	ret

0000000000004612 <_ZNSt16allocator_traitsISaIP18VkPhysicalDevice_TEE8max_sizeERKS2_>:
      max_size(const allocator_type& __a __attribute__((__unused__))) noexcept
    4612:	55                   	push   %rbp
    4613:	48 89 e5             	mov    %rsp,%rbp
    4616:	48 83 ec 10          	sub    $0x10,%rsp
    461a:	48 89 7d f8          	mov    %rdi,-0x8(%rbp)
	return __a.max_size();
    461e:	48 8b 45 f8          	mov    -0x8(%rbp),%rax
    4622:	48 89 c7             	mov    %rax,%rdi
    4625:	e8 86 02 00 00       	call   48b0 <_ZNKSt15__new_allocatorIP18VkPhysicalDevice_TE8max_sizeEv>
      }
    462a:	c9                   	leave
    462b:	c3                   	ret

000000000000462c <_ZNSt12_Vector_baseIP18VkPhysicalDevice_TSaIS1_EE17_Vector_impl_dataC1Ev>:
	_Vector_impl_data() _GLIBCXX_NOEXCEPT
    462c:	55                   	push   %rbp
    462d:	48 89 e5             	mov    %rsp,%rbp
    4630:	48 89 7d f8          	mov    %rdi,-0x8(%rbp)
	: _M_start(), _M_finish(), _M_end_of_storage()
    4634:	48 8b 45 f8          	mov    -0x8(%rbp),%rax
    4638:	48 c7 00 00 00 00 00 	movq   $0x0,(%rax)
    463f:	48 8b 45 f8          	mov    -0x8(%rbp),%rax
    4643:	48 c7 40 08 00 00 00 	movq   $0x0,0x8(%rax)
    464a:	00 
    464b:	48 8b 45 f8          	mov    -0x8(%rbp),%rax
    464f:	48 c7 40 10 00 00 00 	movq   $0x0,0x10(%rax)
    4656:	00 
	{ }
    4657:	90                   	nop
    4658:	5d                   	pop    %rbp
    4659:	c3                   	ret

000000000000465a <_ZNSt12_Vector_baseIP18VkPhysicalDevice_TSaIS1_EE11_M_allocateEm>:
      _M_allocate(size_t __n)
    465a:	55                   	push   %rbp
    465b:	48 89 e5             	mov    %rsp,%rbp
    465e:	48 83 ec 10          	sub    $0x10,%rsp
    4662:	48 89 7d f8          	mov    %rdi,-0x8(%rbp)
    4666:	48 89 75 f0          	mov    %rsi,-0x10(%rbp)
	return __n != 0 ? _Tr::allocate(_M_impl, __n) : pointer();
    466a:	48 83 7d f0 00       	cmpq   $0x0,-0x10(%rbp)
    466f:	74 15                	je     4686 <_ZNSt12_Vector_baseIP18VkPhysicalDevice_TSaIS1_EE11_M_allocateEm+0x2c>
    4671:	48 8b 45 f8          	mov    -0x8(%rbp),%rax
    4675:	48 8b 55 f0          	mov    -0x10(%rbp),%rdx
    4679:	48 89 d6             	mov    %rdx,%rsi
    467c:	48 89 c7             	mov    %rax,%rdi
    467f:	e8 46 02 00 00       	call   48ca <_ZNSt16allocator_traitsISaIP18VkPhysicalDevice_TEE8allocateERS2_m>
    4684:	eb 05                	jmp    468b <_ZNSt12_Vector_baseIP18VkPhysicalDevice_TSaIS1_EE11_M_allocateEm+0x31>
    4686:	b8 00 00 00 00       	mov    $0x0,%eax
      }
    468b:	c9                   	leave
    468c:	c3                   	ret

000000000000468d <_ZSt25__uninitialized_default_nIPP18VkPhysicalDevice_TmET_S3_T0_>:
    __uninitialized_default_n(_ForwardIterator __first, _Size __n)
    468d:	55                   	push   %rbp
    468e:	48 89 e5             	mov    %rsp,%rbp
    4691:	48 83 ec 20          	sub    $0x20,%rsp
    4695:	48 89 7d e8          	mov    %rdi,-0x18(%rbp)
    4699:	48 89 75 e0          	mov    %rsi,-0x20(%rbp)
      constexpr bool __can_fill
    469d:	c6 45 ff 01          	movb   $0x1,-0x1(%rbp)
	__uninit_default_n(__first, __n);
    46a1:	48 8b 55 e0          	mov    -0x20(%rbp),%rdx
    46a5:	48 8b 45 e8          	mov    -0x18(%rbp),%rax
    46a9:	48 89 d6             	mov    %rdx,%rsi
    46ac:	48 89 c7             	mov    %rax,%rdi
    46af:	e8 40 02 00 00       	call   48f4 <_ZNSt27__uninitialized_default_n_1ILb1EE18__uninit_default_nIPP18VkPhysicalDevice_TmEET_S5_T0_>
    }
    46b4:	c9                   	leave
    46b5:	c3                   	ret

00000000000046b6 <_ZNKSt15__new_allocatorI21VkExtensionPropertiesE8max_sizeEv>:
#undef _GLIBCXX_OPERATOR_DELETE
#undef _GLIBCXX_OPERATOR_NEW

#if __cplusplus <= 201703L
      size_type
      max_size() const _GLIBCXX_USE_NOEXCEPT
    46b6:	55                   	push   %rbp
    46b7:	48 89 e5             	mov    %rsp,%rbp
    46ba:	48 83 ec 10          	sub    $0x10,%rsp
    46be:	48 89 7d f8          	mov    %rdi,-0x8(%rbp)
      { return _M_max_size(); }
    46c2:	48 8b 45 f8          	mov    -0x8(%rbp),%rax
    46c6:	48 89 c7             	mov    %rax,%rdi
    46c9:	e8 84 02 00 00       	call   4952 <_ZNKSt15__new_allocatorI21VkExtensionPropertiesE11_M_max_sizeEv>
    46ce:	c9                   	leave
    46cf:	c3                   	ret

00000000000046d0 <_ZNSt16allocator_traitsISaI21VkExtensionPropertiesEE8allocateERS1_m>:
      allocate(allocator_type& __a, size_type __n)
    46d0:	55                   	push   %rbp
    46d1:	48 89 e5             	mov    %rsp,%rbp
    46d4:	48 83 ec 10          	sub    $0x10,%rsp
    46d8:	48 89 7d f8          	mov    %rdi,-0x8(%rbp)
    46dc:	48 89 75 f0          	mov    %rsi,-0x10(%rbp)
      { return __a.allocate(__n); }
    46e0:	48 8b 4d f0          	mov    -0x10(%rbp),%rcx
    46e4:	48 8b 45 f8          	mov    -0x8(%rbp),%rax
    46e8:	ba 00 00 00 00       	mov    $0x0,%edx
    46ed:	48 89 ce             	mov    %rcx,%rsi
    46f0:	48 89 c7             	mov    %rax,%rdi
    46f3:	e8 6e 02 00 00       	call   4966 <_ZNSt15__new_allocatorI21VkExtensionPropertiesE8allocateEmPKv>
    46f8:	c9                   	leave
    46f9:	c3                   	ret

00000000000046fa <_ZNSt27__uninitialized_default_n_1ILb1EE18__uninit_default_nIP21VkExtensionPropertiesmEET_S4_T0_>:
        __uninit_default_n(_ForwardIterator __first, _Size __n)
    46fa:	55                   	push   %rbp
    46fb:	48 89 e5             	mov    %rsp,%rbp
    46fe:	48 83 ec 20          	sub    $0x20,%rsp
    4702:	48 89 7d e8          	mov    %rdi,-0x18(%rbp)
    4706:	48 89 75 e0          	mov    %rsi,-0x20(%rbp)
	  if (__n > 0)
    470a:	48 83 7d e0 00       	cmpq   $0x0,-0x20(%rbp)
    470f:	74 43                	je     4754 <_ZNSt27__uninitialized_default_n_1ILb1EE18__uninit_default_nIP21VkExtensionPropertiesmEET_S4_T0_+0x5a>
		= std::__addressof(*__first);
    4711:	48 8b 45 e8          	mov    -0x18(%rbp),%rax
    4715:	48 89 c7             	mov    %rax,%rdi
    4718:	e8 b4 02 00 00       	call   49d1 <_ZSt11__addressofI21VkExtensionPropertiesEPT_RS1_>
    471d:	48 89 45 f8          	mov    %rax,-0x8(%rbp)
	      std::_Construct(__val);
    4721:	48 8b 45 f8          	mov    -0x8(%rbp),%rax
    4725:	48 89 c7             	mov    %rax,%rdi
    4728:	e8 b2 02 00 00       	call   49df <_ZSt10_ConstructI21VkExtensionPropertiesJEEvPT_DpOT0_>
	      ++__first;
    472d:	48 81 45 e8 04 01 00 	addq   $0x104,-0x18(%rbp)
    4734:	00 
	      __first = std::fill_n(__first, __n - 1, *__val);
    4735:	48 8b 45 e0          	mov    -0x20(%rbp),%rax
    4739:	48 8d 48 ff          	lea    -0x1(%rax),%rcx
    473d:	48 8b 55 f8          	mov    -0x8(%rbp),%rdx
    4741:	48 8b 45 e8          	mov    -0x18(%rbp),%rax
    4745:	48 89 ce             	mov    %rcx,%rsi
    4748:	48 89 c7             	mov    %rax,%rdi
    474b:	e8 e9 02 00 00       	call   4a39 <_ZSt6fill_nIP21VkExtensionPropertiesmS0_ET_S2_T0_RKT1_>
    4750:	48 89 45 e8          	mov    %rax,-0x18(%rbp)
	  return __first;
    4754:	48 8b 45 e8          	mov    -0x18(%rbp),%rax
	}
    4758:	c9                   	leave
    4759:	c3                   	ret

000000000000475a <_ZNKSt15__new_allocatorINSt7__cxx1112basic_stringIcSt11char_traitsIcESaIcEEEE8max_sizeEv>:
      max_size() const _GLIBCXX_USE_NOEXCEPT
    475a:	55                   	push   %rbp
    475b:	48 89 e5             	mov    %rsp,%rbp
    475e:	48 83 ec 10          	sub    $0x10,%rsp
    4762:	48 89 7d f8          	mov    %rdi,-0x8(%rbp)
      { return _M_max_size(); }
    4766:	48 8b 45 f8          	mov    -0x8(%rbp),%rax
    476a:	48 89 c7             	mov    %rax,%rdi
    476d:	e8 0c 03 00 00       	call   4a7e <_ZNKSt15__new_allocatorINSt7__cxx1112basic_stringIcSt11char_traitsIcESaIcEEEE11_M_max_sizeEv>
    4772:	c9                   	leave
    4773:	c3                   	ret

0000000000004774 <_ZNSt16allocator_traitsISaINSt7__cxx1112basic_stringIcSt11char_traitsIcESaIcEEEEE8allocateERS6_m>:
      allocate(allocator_type& __a, size_type __n)
    4774:	55                   	push   %rbp
    4775:	48 89 e5             	mov    %rsp,%rbp
    4778:	48 83 ec 10          	sub    $0x10,%rsp
    477c:	48 89 7d f8          	mov    %rdi,-0x8(%rbp)
    4780:	48 89 75 f0          	mov    %rsi,-0x10(%rbp)
      { return __a.allocate(__n); }
    4784:	48 8b 4d f0          	mov    -0x10(%rbp),%rcx
    4788:	48 8b 45 f8          	mov    -0x8(%rbp),%rax
    478c:	ba 00 00 00 00       	mov    $0x0,%edx
    4791:	48 89 ce             	mov    %rcx,%rsi
    4794:	48 89 c7             	mov    %rax,%rdi
    4797:	e8 f6 02 00 00       	call   4a92 <_ZNSt15__new_allocatorINSt7__cxx1112basic_stringIcSt11char_traitsIcESaIcEEEE8allocateEmPKv>
    479c:	c9                   	leave
    479d:	c3                   	ret

000000000000479e <_ZNSt27__uninitialized_default_n_1ILb0EE18__uninit_default_nIPNSt7__cxx1112basic_stringIcSt11char_traitsIcESaIcEEEmEET_S9_T0_>:
        __uninit_default_n(_ForwardIterator __first, _Size __n)
    479e:	55                   	push   %rbp
    479f:	48 89 e5             	mov    %rsp,%rbp
    47a2:	48 83 ec 20          	sub    $0x20,%rsp
    47a6:	48 89 7d e8          	mov    %rdi,-0x18(%rbp)
    47aa:	48 89 75 e0          	mov    %rsi,-0x20(%rbp)
	  _ForwardIterator __cur = __first;
    47ae:	48 8b 45 e8          	mov    -0x18(%rbp),%rax
    47b2:	48 89 45 f8          	mov    %rax,-0x8(%rbp)
	      for (; __n > 0; --__n, (void) ++__cur)
    47b6:	eb 1e                	jmp    47d6 <_ZNSt27__uninitialized_default_n_1ILb0EE18__uninit_default_nIPNSt7__cxx1112basic_stringIcSt11char_traitsIcESaIcEEEmEET_S9_T0_+0x38>
		std::_Construct(std::__addressof(*__cur));
    47b8:	48 8b 45 f8          	mov    -0x8(%rbp),%rax
    47bc:	48 89 c7             	mov    %rax,%rdi
    47bf:	e8 1f 00 00 00       	call   47e3 <_ZSt11__addressofINSt7__cxx1112basic_stringIcSt11char_traitsIcESaIcEEEEPT_RS6_>
    47c4:	48 89 c7             	mov    %rax,%rdi
    47c7:	e8 27 03 00 00       	call   4af3 <_ZSt10_ConstructINSt7__cxx1112basic_stringIcSt11char_traitsIcESaIcEEEJEEvPT_DpOT0_>
	      for (; __n > 0; --__n, (void) ++__cur)
    47cc:	48 83 6d e0 01       	subq   $0x1,-0x20(%rbp)
    47d1:	48 83 45 f8 20       	addq   $0x20,-0x8(%rbp)
    47d6:	48 83 7d e0 00       	cmpq   $0x0,-0x20(%rbp)
    47db:	75 db                	jne    47b8 <_ZNSt27__uninitialized_default_n_1ILb0EE18__uninit_default_nIPNSt7__cxx1112basic_stringIcSt11char_traitsIcESaIcEEEmEET_S9_T0_+0x1a>
	      return __cur;
    47dd:	48 8b 45 f8          	mov    -0x8(%rbp),%rax
	}
    47e1:	c9                   	leave
    47e2:	c3                   	ret

00000000000047e3 <_ZSt11__addressofINSt7__cxx1112basic_stringIcSt11char_traitsIcESaIcEEEEPT_RS6_>:
   *  @brief Same as C++11 std::addressof
   *  @ingroup utilities
   */
  template<typename _Tp>
    inline _GLIBCXX_CONSTEXPR _Tp*
    __addressof(_Tp& __r) _GLIBCXX_NOEXCEPT
    47e3:	55                   	push   %rbp
    47e4:	48 89 e5             	mov    %rsp,%rbp
    47e7:	48 89 7d f8          	mov    %rdi,-0x8(%rbp)
    { return __builtin_addressof(__r); }
    47eb:	48 8b 45 f8          	mov    -0x8(%rbp),%rax
    47ef:	5d                   	pop    %rbp
    47f0:	c3                   	ret

00000000000047f1 <_ZSt8_DestroyINSt7__cxx1112basic_stringIcSt11char_traitsIcESaIcEEEEvPT_>:
    _Destroy(_Tp* __pointer)
    47f1:	55                   	push   %rbp
    47f2:	48 89 e5             	mov    %rsp,%rbp
    47f5:	48 83 ec 10          	sub    $0x10,%rsp
    47f9:	48 89 7d f8          	mov    %rdi,-0x8(%rbp)
      __pointer->~_Tp();
    47fd:	48 8b 45 f8          	mov    -0x8(%rbp),%rax
    4801:	48 89 c7             	mov    %rax,%rdi
    4804:	e8 e7 d8 ff ff       	call   20f0 <_ZNSt7__cxx1112basic_stringIcSt11char_traitsIcESaIcEED1Ev@plt>
    }
    4809:	90                   	nop
    480a:	c9                   	leave
    480b:	c3                   	ret

000000000000480c <_ZNKSt15__new_allocatorI17VkLayerPropertiesE8max_sizeEv>:
      max_size() const _GLIBCXX_USE_NOEXCEPT
    480c:	55                   	push   %rbp
    480d:	48 89 e5             	mov    %rsp,%rbp
    4810:	48 83 ec 10          	sub    $0x10,%rsp
    4814:	48 89 7d f8          	mov    %rdi,-0x8(%rbp)
      { return _M_max_size(); }
    4818:	48 8b 45 f8          	mov    -0x8(%rbp),%rax
    481c:	48 89 c7             	mov    %rax,%rdi
    481f:	e8 f8 02 00 00       	call   4b1c <_ZNKSt15__new_allocatorI17VkLayerPropertiesE11_M_max_sizeEv>
    4824:	c9                   	leave
    4825:	c3                   	ret

0000000000004826 <_ZNSt16allocator_traitsISaI17VkLayerPropertiesEE8allocateERS1_m>:
      allocate(allocator_type& __a, size_type __n)
    4826:	55                   	push   %rbp
    4827:	48 89 e5             	mov    %rsp,%rbp
    482a:	48 83 ec 10          	sub    $0x10,%rsp
    482e:	48 89 7d f8          	mov    %rdi,-0x8(%rbp)
    4832:	48 89 75 f0          	mov    %rsi,-0x10(%rbp)
      { return __a.allocate(__n); }
    4836:	48 8b 4d f0          	mov    -0x10(%rbp),%rcx
    483a:	48 8b 45 f8          	mov    -0x8(%rbp),%rax
    483e:	ba 00 00 00 00       	mov    $0x0,%edx
    4843:	48 89 ce             	mov    %rcx,%rsi
    4846:	48 89 c7             	mov    %rax,%rdi
    4849:	e8 e2 02 00 00       	call   4b30 <_ZNSt15__new_allocatorI17VkLayerPropertiesE8allocateEmPKv>
    484e:	c9                   	leave
    484f:	c3                   	ret

0000000000004850 <_ZNSt27__uninitialized_default_n_1ILb1EE18__uninit_default_nIP17VkLayerPropertiesmEET_S4_T0_>:
        __uninit_default_n(_ForwardIterator __first, _Size __n)
    4850:	55                   	push   %rbp
    4851:	48 89 e5             	mov    %rsp,%rbp
    4854:	48 83 ec 20          	sub    $0x20,%rsp
    4858:	48 89 7d e8          	mov    %rdi,-0x18(%rbp)
    485c:	48 89 75 e0          	mov    %rsi,-0x20(%rbp)
	  if (__n > 0)
    4860:	48 83 7d e0 00       	cmpq   $0x0,-0x20(%rbp)
    4865:	74 43                	je     48aa <_ZNSt27__uninitialized_default_n_1ILb1EE18__uninit_default_nIP17VkLayerPropertiesmEET_S4_T0_+0x5a>
		= std::__addressof(*__first);
    4867:	48 8b 45 e8          	mov    -0x18(%rbp),%rax
    486b:	48 89 c7             	mov    %rax,%rdi
    486e:	e8 28 03 00 00       	call   4b9b <_ZSt11__addressofI17VkLayerPropertiesEPT_RS1_>
    4873:	48 89 45 f8          	mov    %rax,-0x8(%rbp)
	      std::_Construct(__val);
    4877:	48 8b 45 f8          	mov    -0x8(%rbp),%rax
    487b:	48 89 c7             	mov    %rax,%rdi
    487e:	e8 26 03 00 00       	call   4ba9 <_ZSt10_ConstructI17VkLayerPropertiesJEEvPT_DpOT0_>
	      ++__first;
    4883:	48 81 45 e8 08 02 00 	addq   $0x208,-0x18(%rbp)
    488a:	00 
	      __first = std::fill_n(__first, __n - 1, *__val);
    488b:	48 8b 45 e0          	mov    -0x20(%rbp),%rax
    488f:	48 8d 48 ff          	lea    -0x1(%rax),%rcx
    4893:	48 8b 55 f8          	mov    -0x8(%rbp),%rdx
    4897:	48 8b 45 e8          	mov    -0x18(%rbp),%rax
    489b:	48 89 ce             	mov    %rcx,%rsi
    489e:	48 89 c7             	mov    %rax,%rdi
    48a1:	e8 5d 03 00 00       	call   4c03 <_ZSt6fill_nIP17VkLayerPropertiesmS0_ET_S2_T0_RKT1_>
    48a6:	48 89 45 e8          	mov    %rax,-0x18(%rbp)
	  return __first;
    48aa:	48 8b 45 e8          	mov    -0x18(%rbp),%rax
	}
    48ae:	c9                   	leave
    48af:	c3                   	ret

00000000000048b0 <_ZNKSt15__new_allocatorIP18VkPhysicalDevice_TE8max_sizeEv>:
      max_size() const _GLIBCXX_USE_NOEXCEPT
    48b0:	55                   	push   %rbp
    48b1:	48 89 e5             	mov    %rsp,%rbp
    48b4:	48 83 ec 10          	sub    $0x10,%rsp
    48b8:	48 89 7d f8          	mov    %rdi,-0x8(%rbp)
      { return _M_max_size(); }
    48bc:	48 8b 45 f8          	mov    -0x8(%rbp),%rax
    48c0:	48 89 c7             	mov    %rax,%rdi
    48c3:	e8 80 03 00 00       	call   4c48 <_ZNKSt15__new_allocatorIP18VkPhysicalDevice_TE11_M_max_sizeEv>
    48c8:	c9                   	leave
    48c9:	c3                   	ret

00000000000048ca <_ZNSt16allocator_traitsISaIP18VkPhysicalDevice_TEE8allocateERS2_m>:
      allocate(allocator_type& __a, size_type __n)
    48ca:	55                   	push   %rbp
    48cb:	48 89 e5             	mov    %rsp,%rbp
    48ce:	48 83 ec 10          	sub    $0x10,%rsp
    48d2:	48 89 7d f8          	mov    %rdi,-0x8(%rbp)
    48d6:	48 89 75 f0          	mov    %rsi,-0x10(%rbp)
      { return __a.allocate(__n); }
    48da:	48 8b 4d f0          	mov    -0x10(%rbp),%rcx
    48de:	48 8b 45 f8          	mov    -0x8(%rbp),%rax
    48e2:	ba 00 00 00 00       	mov    $0x0,%edx
    48e7:	48 89 ce             	mov    %rcx,%rsi
    48ea:	48 89 c7             	mov    %rax,%rdi
    48ed:	e8 6a 03 00 00       	call   4c5c <_ZNSt15__new_allocatorIP18VkPhysicalDevice_TE8allocateEmPKv>
    48f2:	c9                   	leave
    48f3:	c3                   	ret

00000000000048f4 <_ZNSt27__uninitialized_default_n_1ILb1EE18__uninit_default_nIPP18VkPhysicalDevice_TmEET_S5_T0_>:
        __uninit_default_n(_ForwardIterator __first, _Size __n)
    48f4:	55                   	push   %rbp
    48f5:	48 89 e5             	mov    %rsp,%rbp
    48f8:	48 83 ec 20          	sub    $0x20,%rsp
    48fc:	48 89 7d e8          	mov    %rdi,-0x18(%rbp)
    4900:	48 89 75 e0          	mov    %rsi,-0x20(%rbp)
	  if (__n > 0)
    4904:	48 83 7d e0 00       	cmpq   $0x0,-0x20(%rbp)
    4909:	74 40                	je     494b <_ZNSt27__uninitialized_default_n_1ILb1EE18__uninit_default_nIPP18VkPhysicalDevice_TmEET_S5_T0_+0x57>
		= std::__addressof(*__first);
    490b:	48 8b 45 e8          	mov    -0x18(%rbp),%rax
    490f:	48 89 c7             	mov    %rax,%rdi
    4912:	e8 a6 03 00 00       	call   4cbd <_ZSt11__addressofIP18VkPhysicalDevice_TEPT_RS2_>
    4917:	48 89 45 f8          	mov    %rax,-0x8(%rbp)
	      std::_Construct(__val);
    491b:	48 8b 45 f8          	mov    -0x8(%rbp),%rax
    491f:	48 89 c7             	mov    %rax,%rdi
    4922:	e8 a4 03 00 00       	call   4ccb <_ZSt10_ConstructIP18VkPhysicalDevice_TJEEvPT_DpOT0_>
	      ++__first;
    4927:	48 83 45 e8 08       	addq   $0x8,-0x18(%rbp)
	      __first = std::fill_n(__first, __n - 1, *__val);
    492c:	48 8b 45 e0          	mov    -0x20(%rbp),%rax
    4930:	48 8d 48 ff          	lea    -0x1(%rax),%rcx
    4934:	48 8b 55 f8          	mov    -0x8(%rbp),%rdx
    4938:	48 8b 45 e8          	mov    -0x18(%rbp),%rax
    493c:	48 89 ce             	mov    %rcx,%rsi
    493f:	48 89 c7             	mov    %rax,%rdi
    4942:	e8 ab 03 00 00       	call   4cf2 <_ZSt6fill_nIPP18VkPhysicalDevice_TmS1_ET_S3_T0_RKT1_>
    4947:	48 89 45 e8          	mov    %rax,-0x18(%rbp)
	  return __first;
    494b:	48 8b 45 e8          	mov    -0x18(%rbp),%rax
	}
    494f:	c9                   	leave
    4950:	c3                   	ret
    4951:	90                   	nop

0000000000004952 <_ZNKSt15__new_allocatorI21VkExtensionPropertiesE11_M_max_sizeEv>:
	{ return false; }
#endif

    private:
      _GLIBCXX_CONSTEXPR size_type
      _M_max_size() const _GLIBCXX_USE_NOEXCEPT
    4952:	55                   	push   %rbp
    4953:	48 89 e5             	mov    %rsp,%rbp
    4956:	48 89 7d f8          	mov    %rdi,-0x8(%rbp)
      {
#if __PTRDIFF_MAX__ < __SIZE_MAX__
	return std::size_t(__PTRDIFF_MAX__) / sizeof(_Tp);
    495a:	48 b8 7e e0 07 7e e0 	movabs $0x7e07e07e07e07e,%rax
    4961:	07 7e 00 
#else
	return std::size_t(-1) / sizeof(_Tp);
#endif
      }
    4964:	5d                   	pop    %rbp
    4965:	c3                   	ret

0000000000004966 <_ZNSt15__new_allocatorI21VkExtensionPropertiesE8allocateEmPKv>:
      allocate(size_type __n, const void* = static_cast<const void*>(0))
    4966:	55                   	push   %rbp
    4967:	48 89 e5             	mov    %rsp,%rbp
    496a:	48 83 ec 20          	sub    $0x20,%rsp
    496e:	48 89 7d f8          	mov    %rdi,-0x8(%rbp)
    4972:	48 89 75 f0          	mov    %rsi,-0x10(%rbp)
    4976:	48 89 55 e8          	mov    %rdx,-0x18(%rbp)
	if (__builtin_expect(__n > this->_M_max_size(), false))
    497a:	48 8b 45 f8          	mov    -0x8(%rbp),%rax
    497e:	48 89 c7             	mov    %rax,%rdi
    4981:	e8 cc ff ff ff       	call   4952 <_ZNKSt15__new_allocatorI21VkExtensionPropertiesE11_M_max_sizeEv>
    4986:	48 3b 45 f0          	cmp    -0x10(%rbp),%rax
    498a:	0f 92 c0             	setb   %al
    498d:	0f b6 c0             	movzbl %al,%eax
    4990:	48 85 c0             	test   %rax,%rax
    4993:	0f 95 c0             	setne  %al
    4996:	84 c0                	test   %al,%al
    4998:	74 1a                	je     49b4 <_ZNSt15__new_allocatorI21VkExtensionPropertiesE8allocateEmPKv+0x4e>
	    if (__n > (std::size_t(-1) / sizeof(_Tp)))
    499a:	48 b8 fc c0 0f fc c0 	movabs $0xfc0fc0fc0fc0fc,%rax
    49a1:	0f fc 00 
    49a4:	48 3b 45 f0          	cmp    -0x10(%rbp),%rax
    49a8:	73 05                	jae    49af <_ZNSt15__new_allocatorI21VkExtensionPropertiesE8allocateEmPKv+0x49>
	      std::__throw_bad_array_new_length();
    49aa:	e8 91 d7 ff ff       	call   2140 <_ZSt28__throw_bad_array_new_lengthv@plt>
	    std::__throw_bad_alloc();
    49af:	e8 ac d6 ff ff       	call   2060 <_ZSt17__throw_bad_allocv@plt>
	return static_cast<_Tp*>(_GLIBCXX_OPERATOR_NEW(__n * sizeof(_Tp)));
    49b4:	48 8b 55 f0          	mov    -0x10(%rbp),%rdx
    49b8:	48 89 d0             	mov    %rdx,%rax
    49bb:	48 c1 e0 06          	shl    $0x6,%rax
    49bf:	48 01 d0             	add    %rdx,%rax
    49c2:	48 c1 e0 02          	shl    $0x2,%rax
    49c6:	48 89 c7             	mov    %rax,%rdi
    49c9:	e8 02 d8 ff ff       	call   21d0 <_Znwm@plt>
    49ce:	90                   	nop
      }
    49cf:	c9                   	leave
    49d0:	c3                   	ret

00000000000049d1 <_ZSt11__addressofI21VkExtensionPropertiesEPT_RS1_>:
    __addressof(_Tp& __r) _GLIBCXX_NOEXCEPT
    49d1:	55                   	push   %rbp
    49d2:	48 89 e5             	mov    %rsp,%rbp
    49d5:	48 89 7d f8          	mov    %rdi,-0x8(%rbp)
    { return __builtin_addressof(__r); }
    49d9:	48 8b 45 f8          	mov    -0x8(%rbp),%rax
    49dd:	5d                   	pop    %rbp
    49de:	c3                   	ret

00000000000049df <_ZSt10_ConstructI21VkExtensionPropertiesJEEvPT_DpOT0_>:
    _Construct(_Tp* __p, _Args&&... __args)
    49df:	55                   	push   %rbp
    49e0:	48 89 e5             	mov    %rsp,%rbp
    49e3:	48 83 ec 10          	sub    $0x10,%rsp
    49e7:	48 89 7d f8          	mov    %rdi,-0x8(%rbp)
      ::new((void*)__p) _Tp(std::forward<_Args>(__args)...);
    49eb:	48 8b 45 f8          	mov    -0x8(%rbp),%rax
    49ef:	48 89 c6             	mov    %rax,%rsi
    49f2:	bf 04 01 00 00       	mov    $0x104,%edi
    49f7:	e8 03 ea ff ff       	call   33ff <_ZnwmPv>
    49fc:	b9 04 01 00 00       	mov    $0x104,%ecx
    4a01:	be 00 00 00 00       	mov    $0x0,%esi
    4a06:	48 89 30             	mov    %rsi,(%rax)
    4a09:	89 ca                	mov    %ecx,%edx
    4a0b:	48 01 c2             	add    %rax,%rdx
    4a0e:	48 83 c2 08          	add    $0x8,%rdx
    4a12:	48 89 72 f0          	mov    %rsi,-0x10(%rdx)
    4a16:	48 8d 50 08          	lea    0x8(%rax),%rdx
    4a1a:	48 83 e2 f8          	and    $0xfffffffffffffff8,%rdx
    4a1e:	48 29 d0             	sub    %rdx,%rax
    4a21:	01 c1                	add    %eax,%ecx
    4a23:	83 e1 f8             	and    $0xfffffff8,%ecx
    4a26:	89 c8                	mov    %ecx,%eax
    4a28:	c1 e8 03             	shr    $0x3,%eax
    4a2b:	89 c1                	mov    %eax,%ecx
    4a2d:	48 89 d7             	mov    %rdx,%rdi
    4a30:	48 89 f0             	mov    %rsi,%rax
    4a33:	f3 48 ab             	rep stos %rax,%es:(%rdi)
    }
    4a36:	90                   	nop
    4a37:	c9                   	leave
    4a38:	c3                   	ret

0000000000004a39 <_ZSt6fill_nIP21VkExtensionPropertiesmS0_ET_S2_T0_RKT1_>:
  // DR 865. More algorithms that throw away information
  // DR 426. search_n(), fill_n(), and generate_n() with negative n
  template<typename _OI, typename _Size, typename _Tp>
    _GLIBCXX20_CONSTEXPR
    inline _OI
    fill_n(_OI __first, _Size __n, const _Tp& __value)
    4a39:	55                   	push   %rbp
    4a3a:	48 89 e5             	mov    %rsp,%rbp
    4a3d:	48 83 ec 20          	sub    $0x20,%rsp
    4a41:	48 89 7d f8          	mov    %rdi,-0x8(%rbp)
    4a45:	48 89 75 f0          	mov    %rsi,-0x10(%rbp)
    4a49:	48 89 55 e8          	mov    %rdx,-0x18(%rbp)
    {
      // concept requirements
      __glibcxx_function_requires(_OutputIteratorConcept<_OI, const _Tp&>)

      return std::__fill_n_a(__first, std::__size_to_integer(__n), __value,
			       std::__iterator_category(__first));
    4a4d:	48 8d 45 f8          	lea    -0x8(%rbp),%rax
    4a51:	48 89 c7             	mov    %rax,%rdi
    4a54:	e8 dd 02 00 00       	call   4d36 <_ZSt19__iterator_categoryIP21VkExtensionPropertiesENSt15iterator_traitsIT_E17iterator_categoryERKS3_>
      return std::__fill_n_a(__first, std::__size_to_integer(__n), __value,
    4a59:	48 8b 45 f0          	mov    -0x10(%rbp),%rax
    4a5d:	48 89 c7             	mov    %rax,%rdi
    4a60:	e8 ac e9 ff ff       	call   3411 <_ZSt17__size_to_integerm>
    4a65:	48 89 c1             	mov    %rax,%rcx
    4a68:	48 8b 45 f8          	mov    -0x8(%rbp),%rax
    4a6c:	48 8b 55 e8          	mov    -0x18(%rbp),%rdx
    4a70:	48 89 ce             	mov    %rcx,%rsi
    4a73:	48 89 c7             	mov    %rax,%rdi
    4a76:	e8 c6 02 00 00       	call   4d41 <_ZSt10__fill_n_aIP21VkExtensionPropertiesmS0_ET_S2_T0_RKT1_St26random_access_iterator_tag>
    }
    4a7b:	c9                   	leave
    4a7c:	c3                   	ret
    4a7d:	90                   	nop

0000000000004a7e <_ZNKSt15__new_allocatorINSt7__cxx1112basic_stringIcSt11char_traitsIcESaIcEEEE11_M_max_sizeEv>:
      _M_max_size() const _GLIBCXX_USE_NOEXCEPT
    4a7e:	55                   	push   %rbp
    4a7f:	48 89 e5             	mov    %rsp,%rbp
    4a82:	48 89 7d f8          	mov    %rdi,-0x8(%rbp)
	return std::size_t(__PTRDIFF_MAX__) / sizeof(_Tp);
    4a86:	48 b8 ff ff ff ff ff 	movabs $0x3ffffffffffffff,%rax
    4a8d:	ff ff 03 
      }
    4a90:	5d                   	pop    %rbp
    4a91:	c3                   	ret

0000000000004a92 <_ZNSt15__new_allocatorINSt7__cxx1112basic_stringIcSt11char_traitsIcESaIcEEEE8allocateEmPKv>:
      allocate(size_type __n, const void* = static_cast<const void*>(0))
    4a92:	55                   	push   %rbp
    4a93:	48 89 e5             	mov    %rsp,%rbp
    4a96:	48 83 ec 20          	sub    $0x20,%rsp
    4a9a:	48 89 7d f8          	mov    %rdi,-0x8(%rbp)
    4a9e:	48 89 75 f0          	mov    %rsi,-0x10(%rbp)
    4aa2:	48 89 55 e8          	mov    %rdx,-0x18(%rbp)
	if (__builtin_expect(__n > this->_M_max_size(), false))
    4aa6:	48 8b 45 f8          	mov    -0x8(%rbp),%rax
    4aaa:	48 89 c7             	mov    %rax,%rdi
    4aad:	e8 cc ff ff ff       	call   4a7e <_ZNKSt15__new_allocatorINSt7__cxx1112basic_stringIcSt11char_traitsIcESaIcEEEE11_M_max_sizeEv>
    4ab2:	48 3b 45 f0          	cmp    -0x10(%rbp),%rax
    4ab6:	0f 92 c0             	setb   %al
    4ab9:	0f b6 c0             	movzbl %al,%eax
    4abc:	48 85 c0             	test   %rax,%rax
    4abf:	0f 95 c0             	setne  %al
    4ac2:	84 c0                	test   %al,%al
    4ac4:	74 1a                	je     4ae0 <_ZNSt15__new_allocatorINSt7__cxx1112basic_stringIcSt11char_traitsIcESaIcEEEE8allocateEmPKv+0x4e>
	    if (__n > (std::size_t(-1) / sizeof(_Tp)))
    4ac6:	48 b8 ff ff ff ff ff 	movabs $0x7ffffffffffffff,%rax
    4acd:	ff ff 07 
    4ad0:	48 3b 45 f0          	cmp    -0x10(%rbp),%rax
    4ad4:	73 05                	jae    4adb <_ZNSt15__new_allocatorINSt7__cxx1112basic_stringIcSt11char_traitsIcESaIcEEEE8allocateEmPKv+0x49>
	      std::__throw_bad_array_new_length();
    4ad6:	e8 65 d6 ff ff       	call   2140 <_ZSt28__throw_bad_array_new_lengthv@plt>
	    std::__throw_bad_alloc();
    4adb:	e8 80 d5 ff ff       	call   2060 <_ZSt17__throw_bad_allocv@plt>
	return static_cast<_Tp*>(_GLIBCXX_OPERATOR_NEW(__n * sizeof(_Tp)));
    4ae0:	48 8b 45 f0          	mov    -0x10(%rbp),%rax
    4ae4:	48 c1 e0 05          	shl    $0x5,%rax
    4ae8:	48 89 c7             	mov    %rax,%rdi
    4aeb:	e8 e0 d6 ff ff       	call   21d0 <_Znwm@plt>
    4af0:	90                   	nop
      }
    4af1:	c9                   	leave
    4af2:	c3                   	ret

0000000000004af3 <_ZSt10_ConstructINSt7__cxx1112basic_stringIcSt11char_traitsIcESaIcEEEJEEvPT_DpOT0_>:
    _Construct(_Tp* __p, _Args&&... __args)
    4af3:	55                   	push   %rbp
    4af4:	48 89 e5             	mov    %rsp,%rbp
    4af7:	48 83 ec 10          	sub    $0x10,%rsp
    4afb:	48 89 7d f8          	mov    %rdi,-0x8(%rbp)
      ::new((void*)__p) _Tp(std::forward<_Args>(__args)...);
    4aff:	48 8b 45 f8          	mov    -0x8(%rbp),%rax
    4b03:	48 89 c6             	mov    %rax,%rsi
    4b06:	bf 20 00 00 00       	mov    $0x20,%edi
    4b0b:	e8 ef e8 ff ff       	call   33ff <_ZnwmPv>
    4b10:	48 89 c7             	mov    %rax,%rdi
    4b13:	e8 a8 d7 ff ff       	call   22c0 <_ZNSt7__cxx1112basic_stringIcSt11char_traitsIcESaIcEEC1Ev@plt>
    }
    4b18:	90                   	nop
    4b19:	c9                   	leave
    4b1a:	c3                   	ret
    4b1b:	90                   	nop

0000000000004b1c <_ZNKSt15__new_allocatorI17VkLayerPropertiesE11_M_max_sizeEv>:
      _M_max_size() const _GLIBCXX_USE_NOEXCEPT
    4b1c:	55                   	push   %rbp
    4b1d:	48 89 e5             	mov    %rsp,%rbp
    4b20:	48 89 7d f8          	mov    %rdi,-0x8(%rbp)
	return std::size_t(__PTRDIFF_MAX__) / sizeof(_Tp);
    4b24:	48 b8 3f f0 03 3f f0 	movabs $0x3f03f03f03f03f,%rax
    4b2b:	03 3f 00 
      }
    4b2e:	5d                   	pop    %rbp
    4b2f:	c3                   	ret

0000000000004b30 <_ZNSt15__new_allocatorI17VkLayerPropertiesE8allocateEmPKv>:
      allocate(size_type __n, const void* = static_cast<const void*>(0))
    4b30:	55                   	push   %rbp
    4b31:	48 89 e5             	mov    %rsp,%rbp
    4b34:	48 83 ec 20          	sub    $0x20,%rsp
    4b38:	48 89 7d f8          	mov    %rdi,-0x8(%rbp)
    4b3c:	48 89 75 f0          	mov    %rsi,-0x10(%rbp)
    4b40:	48 89 55 e8          	mov    %rdx,-0x18(%rbp)
	if (__builtin_expect(__n > this->_M_max_size(), false))
    4b44:	48 8b 45 f8          	mov    -0x8(%rbp),%rax
    4b48:	48 89 c7             	mov    %rax,%rdi
    4b4b:	e8 cc ff ff ff       	call   4b1c <_ZNKSt15__new_allocatorI17VkLayerPropertiesE11_M_max_sizeEv>
    4b50:	48 3b 45 f0          	cmp    -0x10(%rbp),%rax
    4b54:	0f 92 c0             	setb   %al
    4b57:	0f b6 c0             	movzbl %al,%eax
    4b5a:	48 85 c0             	test   %rax,%rax
    4b5d:	0f 95 c0             	setne  %al
    4b60:	84 c0                	test   %al,%al
    4b62:	74 1a                	je     4b7e <_ZNSt15__new_allocatorI17VkLayerPropertiesE8allocateEmPKv+0x4e>
	    if (__n > (std::size_t(-1) / sizeof(_Tp)))
    4b64:	48 b8 7e e0 07 7e e0 	movabs $0x7e07e07e07e07e,%rax
    4b6b:	07 7e 00 
    4b6e:	48 3b 45 f0          	cmp    -0x10(%rbp),%rax
    4b72:	73 05                	jae    4b79 <_ZNSt15__new_allocatorI17VkLayerPropertiesE8allocateEmPKv+0x49>
	      std::__throw_bad_array_new_length();
    4b74:	e8 c7 d5 ff ff       	call   2140 <_ZSt28__throw_bad_array_new_lengthv@plt>
	    std::__throw_bad_alloc();
    4b79:	e8 e2 d4 ff ff       	call   2060 <_ZSt17__throw_bad_allocv@plt>
	return static_cast<_Tp*>(_GLIBCXX_OPERATOR_NEW(__n * sizeof(_Tp)));
    4b7e:	48 8b 55 f0          	mov    -0x10(%rbp),%rdx
    4b82:	48 89 d0             	mov    %rdx,%rax
    4b85:	48 c1 e0 06          	shl    $0x6,%rax
    4b89:	48 01 d0             	add    %rdx,%rax
    4b8c:	48 c1 e0 03          	shl    $0x3,%rax
    4b90:	48 89 c7             	mov    %rax,%rdi
    4b93:	e8 38 d6 ff ff       	call   21d0 <_Znwm@plt>
    4b98:	90                   	nop
      }
    4b99:	c9                   	leave
    4b9a:	c3                   	ret

0000000000004b9b <_ZSt11__addressofI17VkLayerPropertiesEPT_RS1_>:
    __addressof(_Tp& __r) _GLIBCXX_NOEXCEPT
    4b9b:	55                   	push   %rbp
    4b9c:	48 89 e5             	mov    %rsp,%rbp
    4b9f:	48 89 7d f8          	mov    %rdi,-0x8(%rbp)
    { return __builtin_addressof(__r); }
    4ba3:	48 8b 45 f8          	mov    -0x8(%rbp),%rax
    4ba7:	5d                   	pop    %rbp
    4ba8:	c3                   	ret

0000000000004ba9 <_ZSt10_ConstructI17VkLayerPropertiesJEEvPT_DpOT0_>:
    _Construct(_Tp* __p, _Args&&... __args)
    4ba9:	55                   	push   %rbp
    4baa:	48 89 e5             	mov    %rsp,%rbp
    4bad:	48 83 ec 10          	sub    $0x10,%rsp
    4bb1:	48 89 7d f8          	mov    %rdi,-0x8(%rbp)
      ::new((void*)__p) _Tp(std::forward<_Args>(__args)...);
    4bb5:	48 8b 45 f8          	mov    -0x8(%rbp),%rax
    4bb9:	48 89 c6             	mov    %rax,%rsi
    4bbc:	bf 08 02 00 00       	mov    $0x208,%edi
    4bc1:	e8 39 e8 ff ff       	call   33ff <_ZnwmPv>
    4bc6:	b9 08 02 00 00       	mov    $0x208,%ecx
    4bcb:	be 00 00 00 00       	mov    $0x0,%esi
    4bd0:	48 89 30             	mov    %rsi,(%rax)
    4bd3:	89 ca                	mov    %ecx,%edx
    4bd5:	48 01 c2             	add    %rax,%rdx
    4bd8:	48 83 c2 08          	add    $0x8,%rdx
    4bdc:	48 89 72 f0          	mov    %rsi,-0x10(%rdx)
    4be0:	48 8d 50 08          	lea    0x8(%rax),%rdx
    4be4:	48 83 e2 f8          	and    $0xfffffffffffffff8,%rdx
    4be8:	48 29 d0             	sub    %rdx,%rax
    4beb:	01 c1                	add    %eax,%ecx
    4bed:	83 e1 f8             	and    $0xfffffff8,%ecx
    4bf0:	89 c8                	mov    %ecx,%eax
    4bf2:	c1 e8 03             	shr    $0x3,%eax
    4bf5:	89 c1                	mov    %eax,%ecx
    4bf7:	48 89 d7             	mov    %rdx,%rdi
    4bfa:	48 89 f0             	mov    %rsi,%rax
    4bfd:	f3 48 ab             	rep stos %rax,%es:(%rdi)
    }
    4c00:	90                   	nop
    4c01:	c9                   	leave
    4c02:	c3                   	ret

0000000000004c03 <_ZSt6fill_nIP17VkLayerPropertiesmS0_ET_S2_T0_RKT1_>:
    fill_n(_OI __first, _Size __n, const _Tp& __value)
    4c03:	55                   	push   %rbp
    4c04:	48 89 e5             	mov    %rsp,%rbp
    4c07:	48 83 ec 20          	sub    $0x20,%rsp
    4c0b:	48 89 7d f8          	mov    %rdi,-0x8(%rbp)
    4c0f:	48 89 75 f0          	mov    %rsi,-0x10(%rbp)
    4c13:	48 89 55 e8          	mov    %rdx,-0x18(%rbp)
			       std::__iterator_category(__first));
    4c17:	48 8d 45 f8          	lea    -0x8(%rbp),%rax
    4c1b:	48 89 c7             	mov    %rax,%rdi
    4c1e:	e8 8d 01 00 00       	call   4db0 <_ZSt19__iterator_categoryIP17VkLayerPropertiesENSt15iterator_traitsIT_E17iterator_categoryERKS3_>
      return std::__fill_n_a(__first, std::__size_to_integer(__n), __value,
    4c23:	48 8b 45 f0          	mov    -0x10(%rbp),%rax
    4c27:	48 89 c7             	mov    %rax,%rdi
    4c2a:	e8 e2 e7 ff ff       	call   3411 <_ZSt17__size_to_integerm>
    4c2f:	48 89 c1             	mov    %rax,%rcx
    4c32:	48 8b 45 f8          	mov    -0x8(%rbp),%rax
    4c36:	48 8b 55 e8          	mov    -0x18(%rbp),%rdx
    4c3a:	48 89 ce             	mov    %rcx,%rsi
    4c3d:	48 89 c7             	mov    %rax,%rdi
    4c40:	e8 76 01 00 00       	call   4dbb <_ZSt10__fill_n_aIP17VkLayerPropertiesmS0_ET_S2_T0_RKT1_St26random_access_iterator_tag>
    }
    4c45:	c9                   	leave
    4c46:	c3                   	ret
    4c47:	90                   	nop

0000000000004c48 <_ZNKSt15__new_allocatorIP18VkPhysicalDevice_TE11_M_max_sizeEv>:
      _M_max_size() const _GLIBCXX_USE_NOEXCEPT
    4c48:	55                   	push   %rbp
    4c49:	48 89 e5             	mov    %rsp,%rbp
    4c4c:	48 89 7d f8          	mov    %rdi,-0x8(%rbp)
	return std::size_t(__PTRDIFF_MAX__) / sizeof(_Tp);
    4c50:	48 b8 ff ff ff ff ff 	movabs $0xfffffffffffffff,%rax
    4c57:	ff ff 0f 
      }
    4c5a:	5d                   	pop    %rbp
    4c5b:	c3                   	ret

0000000000004c5c <_ZNSt15__new_allocatorIP18VkPhysicalDevice_TE8allocateEmPKv>:
      allocate(size_type __n, const void* = static_cast<const void*>(0))
    4c5c:	55                   	push   %rbp
    4c5d:	48 89 e5             	mov    %rsp,%rbp
    4c60:	48 83 ec 20          	sub    $0x20,%rsp
    4c64:	48 89 7d f8          	mov    %rdi,-0x8(%rbp)
    4c68:	48 89 75 f0          	mov    %rsi,-0x10(%rbp)
    4c6c:	48 89 55 e8          	mov    %rdx,-0x18(%rbp)
	if (__builtin_expect(__n > this->_M_max_size(), false))
    4c70:	48 8b 45 f8          	mov    -0x8(%rbp),%rax
    4c74:	48 89 c7             	mov    %rax,%rdi
    4c77:	e8 cc ff ff ff       	call   4c48 <_ZNKSt15__new_allocatorIP18VkPhysicalDevice_TE11_M_max_sizeEv>
    4c7c:	48 3b 45 f0          	cmp    -0x10(%rbp),%rax
    4c80:	0f 92 c0             	setb   %al
    4c83:	0f b6 c0             	movzbl %al,%eax
    4c86:	48 85 c0             	test   %rax,%rax
    4c89:	0f 95 c0             	setne  %al
    4c8c:	84 c0                	test   %al,%al
    4c8e:	74 1a                	je     4caa <_ZNSt15__new_allocatorIP18VkPhysicalDevice_TE8allocateEmPKv+0x4e>
	    if (__n > (std::size_t(-1) / sizeof(_Tp)))
    4c90:	48 b8 ff ff ff ff ff 	movabs $0x1fffffffffffffff,%rax
    4c97:	ff ff 1f 
    4c9a:	48 3b 45 f0          	cmp    -0x10(%rbp),%rax
    4c9e:	73 05                	jae    4ca5 <_ZNSt15__new_allocatorIP18VkPhysicalDevice_TE8allocateEmPKv+0x49>
	      std::__throw_bad_array_new_length();
    4ca0:	e8 9b d4 ff ff       	call   2140 <_ZSt28__throw_bad_array_new_lengthv@plt>
	    std::__throw_bad_alloc();
    4ca5:	e8 b6 d3 ff ff       	call   2060 <_ZSt17__throw_bad_allocv@plt>
	return static_cast<_Tp*>(_GLIBCXX_OPERATOR_NEW(__n * sizeof(_Tp)));
    4caa:	48 8b 45 f0          	mov    -0x10(%rbp),%rax
    4cae:	48 c1 e0 03          	shl    $0x3,%rax
    4cb2:	48 89 c7             	mov    %rax,%rdi
    4cb5:	e8 16 d5 ff ff       	call   21d0 <_Znwm@plt>
    4cba:	90                   	nop
      }
    4cbb:	c9                   	leave
    4cbc:	c3                   	ret

0000000000004cbd <_ZSt11__addressofIP18VkPhysicalDevice_TEPT_RS2_>:
    __addressof(_Tp& __r) _GLIBCXX_NOEXCEPT
    4cbd:	55                   	push   %rbp
    4cbe:	48 89 e5             	mov    %rsp,%rbp
    4cc1:	48 89 7d f8          	mov    %rdi,-0x8(%rbp)
    { return __builtin_addressof(__r); }
    4cc5:	48 8b 45 f8          	mov    -0x8(%rbp),%rax
    4cc9:	5d                   	pop    %rbp
    4cca:	c3                   	ret

0000000000004ccb <_ZSt10_ConstructIP18VkPhysicalDevice_TJEEvPT_DpOT0_>:
    _Construct(_Tp* __p, _Args&&... __args)
    4ccb:	55                   	push   %rbp
    4ccc:	48 89 e5             	mov    %rsp,%rbp
    4ccf:	48 83 ec 10          	sub    $0x10,%rsp
    4cd3:	48 89 7d f8          	mov    %rdi,-0x8(%rbp)
      ::new((void*)__p) _Tp(std::forward<_Args>(__args)...);
    4cd7:	48 8b 45 f8          	mov    -0x8(%rbp),%rax
    4cdb:	48 89 c6             	mov    %rax,%rsi
    4cde:	bf 08 00 00 00       	mov    $0x8,%edi
    4ce3:	e8 17 e7 ff ff       	call   33ff <_ZnwmPv>
    4ce8:	48 c7 00 00 00 00 00 	movq   $0x0,(%rax)
    }
    4cef:	90                   	nop
    4cf0:	c9                   	leave
    4cf1:	c3                   	ret

0000000000004cf2 <_ZSt6fill_nIPP18VkPhysicalDevice_TmS1_ET_S3_T0_RKT1_>:
    fill_n(_OI __first, _Size __n, const _Tp& __value)
    4cf2:	55                   	push   %rbp
    4cf3:	48 89 e5             	mov    %rsp,%rbp
    4cf6:	48 83 ec 20          	sub    $0x20,%rsp
    4cfa:	48 89 7d f8          	mov    %rdi,-0x8(%rbp)
    4cfe:	48 89 75 f0          	mov    %rsi,-0x10(%rbp)
    4d02:	48 89 55 e8          	mov    %rdx,-0x18(%rbp)
			       std::__iterator_category(__first));
    4d06:	48 8d 45 f8          	lea    -0x8(%rbp),%rax
    4d0a:	48 89 c7             	mov    %rax,%rdi
    4d0d:	e8 18 01 00 00       	call   4e2a <_ZSt19__iterator_categoryIPP18VkPhysicalDevice_TENSt15iterator_traitsIT_E17iterator_categoryERKS4_>
      return std::__fill_n_a(__first, std::__size_to_integer(__n), __value,
    4d12:	48 8b 45 f0          	mov    -0x10(%rbp),%rax
    4d16:	48 89 c7             	mov    %rax,%rdi
    4d19:	e8 f3 e6 ff ff       	call   3411 <_ZSt17__size_to_integerm>
    4d1e:	48 89 c1             	mov    %rax,%rcx
    4d21:	48 8b 45 f8          	mov    -0x8(%rbp),%rax
    4d25:	48 8b 55 e8          	mov    -0x18(%rbp),%rdx
    4d29:	48 89 ce             	mov    %rcx,%rsi
    4d2c:	48 89 c7             	mov    %rax,%rdi
    4d2f:	e8 01 01 00 00       	call   4e35 <_ZSt10__fill_n_aIPP18VkPhysicalDevice_TmS1_ET_S3_T0_RKT1_St26random_access_iterator_tag>
    }
    4d34:	c9                   	leave
    4d35:	c3                   	ret

0000000000004d36 <_ZSt19__iterator_categoryIP21VkExtensionPropertiesENSt15iterator_traitsIT_E17iterator_categoryERKS3_>:
   *  sugar for internal library use only.
  */
  template<typename _Iter>
    inline _GLIBCXX_CONSTEXPR
    typename iterator_traits<_Iter>::iterator_category
    __iterator_category(const _Iter&)
    4d36:	55                   	push   %rbp
    4d37:	48 89 e5             	mov    %rsp,%rbp
    4d3a:	48 89 7d f8          	mov    %rdi,-0x8(%rbp)
    { return typename iterator_traits<_Iter>::iterator_category(); }
    4d3e:	90                   	nop
    4d3f:	5d                   	pop    %rbp
    4d40:	c3                   	ret

0000000000004d41 <_ZSt10__fill_n_aIP21VkExtensionPropertiesmS0_ET_S2_T0_RKT1_St26random_access_iterator_tag>:
    __fill_n_a(_OutputIterator __first, _Size __n, const _Tp& __value,
    4d41:	55                   	push   %rbp
    4d42:	48 89 e5             	mov    %rsp,%rbp
    4d45:	48 83 ec 20          	sub    $0x20,%rsp
    4d49:	48 89 7d f8          	mov    %rdi,-0x8(%rbp)
    4d4d:	48 89 75 f0          	mov    %rsi,-0x10(%rbp)
    4d51:	48 89 55 e8          	mov    %rdx,-0x18(%rbp)
      if (__n <= 0)
    4d55:	48 83 7d f0 00       	cmpq   $0x0,-0x10(%rbp)
    4d5a:	75 06                	jne    4d62 <_ZSt10__fill_n_aIP21VkExtensionPropertiesmS0_ET_S2_T0_RKT1_St26random_access_iterator_tag+0x21>
	return __first;
    4d5c:	48 8b 45 f8          	mov    -0x8(%rbp),%rax
    4d60:	eb 4c                	jmp    4dae <_ZSt10__fill_n_aIP21VkExtensionPropertiesmS0_ET_S2_T0_RKT1_St26random_access_iterator_tag+0x6d>
      std::__fill_a(__first, __first + __n, __value);
    4d62:	48 8b 55 f0          	mov    -0x10(%rbp),%rdx
    4d66:	48 89 d0             	mov    %rdx,%rax
    4d69:	48 c1 e0 06          	shl    $0x6,%rax
    4d6d:	48 01 d0             	add    %rdx,%rax
    4d70:	48 c1 e0 02          	shl    $0x2,%rax
    4d74:	48 89 c2             	mov    %rax,%rdx
    4d77:	48 8b 45 f8          	mov    -0x8(%rbp),%rax
    4d7b:	48 8d 0c 02          	lea    (%rdx,%rax,1),%rcx
    4d7f:	48 8b 55 e8          	mov    -0x18(%rbp),%rdx
    4d83:	48 8b 45 f8          	mov    -0x8(%rbp),%rax
    4d87:	48 89 ce             	mov    %rcx,%rsi
    4d8a:	48 89 c7             	mov    %rax,%rdi
    4d8d:	e8 00 01 00 00       	call   4e92 <_ZSt8__fill_aIP21VkExtensionPropertiesS0_EvT_S2_RKT0_>
      return __first + __n;
    4d92:	48 8b 55 f0          	mov    -0x10(%rbp),%rdx
    4d96:	48 89 d0             	mov    %rdx,%rax
    4d99:	48 c1 e0 06          	shl    $0x6,%rax
    4d9d:	48 01 d0             	add    %rdx,%rax
    4da0:	48 c1 e0 02          	shl    $0x2,%rax
    4da4:	48 89 c2             	mov    %rax,%rdx
    4da7:	48 8b 45 f8          	mov    -0x8(%rbp),%rax
    4dab:	48 01 d0             	add    %rdx,%rax
    }
    4dae:	c9                   	leave
    4daf:	c3                   	ret

0000000000004db0 <_ZSt19__iterator_categoryIP17VkLayerPropertiesENSt15iterator_traitsIT_E17iterator_categoryERKS3_>:
    __iterator_category(const _Iter&)
    4db0:	55                   	push   %rbp
    4db1:	48 89 e5             	mov    %rsp,%rbp
    4db4:	48 89 7d f8          	mov    %rdi,-0x8(%rbp)
    { return typename iterator_traits<_Iter>::iterator_category(); }
    4db8:	90                   	nop
    4db9:	5d                   	pop    %rbp
    4dba:	c3                   	ret

0000000000004dbb <_ZSt10__fill_n_aIP17VkLayerPropertiesmS0_ET_S2_T0_RKT1_St26random_access_iterator_tag>:
    __fill_n_a(_OutputIterator __first, _Size __n, const _Tp& __value,
    4dbb:	55                   	push   %rbp
    4dbc:	48 89 e5             	mov    %rsp,%rbp
    4dbf:	48 83 ec 20          	sub    $0x20,%rsp
    4dc3:	48 89 7d f8          	mov    %rdi,-0x8(%rbp)
    4dc7:	48 89 75 f0          	mov    %rsi,-0x10(%rbp)
    4dcb:	48 89 55 e8          	mov    %rdx,-0x18(%rbp)
      if (__n <= 0)
    4dcf:	48 83 7d f0 00       	cmpq   $0x0,-0x10(%rbp)
    4dd4:	75 06                	jne    4ddc <_ZSt10__fill_n_aIP17VkLayerPropertiesmS0_ET_S2_T0_RKT1_St26random_access_iterator_tag+0x21>
	return __first;
    4dd6:	48 8b 45 f8          	mov    -0x8(%rbp),%rax
    4dda:	eb 4c                	jmp    4e28 <_ZSt10__fill_n_aIP17VkLayerPropertiesmS0_ET_S2_T0_RKT1_St26random_access_iterator_tag+0x6d>
      std::__fill_a(__first, __first + __n, __value);
    4ddc:	48 8b 55 f0          	mov    -0x10(%rbp),%rdx
    4de0:	48 89 d0             	mov    %rdx,%rax
    4de3:	48 c1 e0 06          	shl    $0x6,%rax
    4de7:	48 01 d0             	add    %rdx,%rax
    4dea:	48 c1 e0 03          	shl    $0x3,%rax
    4dee:	48 89 c2             	mov    %rax,%rdx
    4df1:	48 8b 45 f8          	mov    -0x8(%rbp),%rax
    4df5:	48 8d 0c 02          	lea    (%rdx,%rax,1),%rcx
    4df9:	48 8b 55 e8          	mov    -0x18(%rbp),%rdx
    4dfd:	48 8b 45 f8          	mov    -0x8(%rbp),%rax
    4e01:	48 89 ce             	mov    %rcx,%rsi
    4e04:	48 89 c7             	mov    %rax,%rdi
    4e07:	e8 b4 00 00 00       	call   4ec0 <_ZSt8__fill_aIP17VkLayerPropertiesS0_EvT_S2_RKT0_>
      return __first + __n;
    4e0c:	48 8b 55 f0          	mov    -0x10(%rbp),%rdx
    4e10:	48 89 d0             	mov    %rdx,%rax
    4e13:	48 c1 e0 06          	shl    $0x6,%rax
    4e17:	48 01 d0             	add    %rdx,%rax
    4e1a:	48 c1 e0 03          	shl    $0x3,%rax
    4e1e:	48 89 c2             	mov    %rax,%rdx
    4e21:	48 8b 45 f8          	mov    -0x8(%rbp),%rax
    4e25:	48 01 d0             	add    %rdx,%rax
    }
    4e28:	c9                   	leave
    4e29:	c3                   	ret

0000000000004e2a <_ZSt19__iterator_categoryIPP18VkPhysicalDevice_TENSt15iterator_traitsIT_E17iterator_categoryERKS4_>:
    __iterator_category(const _Iter&)
    4e2a:	55                   	push   %rbp
    4e2b:	48 89 e5             	mov    %rsp,%rbp
    4e2e:	48 89 7d f8          	mov    %rdi,-0x8(%rbp)
    { return typename iterator_traits<_Iter>::iterator_category(); }
    4e32:	90                   	nop
    4e33:	5d                   	pop    %rbp
    4e34:	c3                   	ret

0000000000004e35 <_ZSt10__fill_n_aIPP18VkPhysicalDevice_TmS1_ET_S3_T0_RKT1_St26random_access_iterator_tag>:
    __fill_n_a(_OutputIterator __first, _Size __n, const _Tp& __value,
    4e35:	55                   	push   %rbp
    4e36:	48 89 e5             	mov    %rsp,%rbp
    4e39:	48 83 ec 20          	sub    $0x20,%rsp
    4e3d:	48 89 7d f8          	mov    %rdi,-0x8(%rbp)
    4e41:	48 89 75 f0          	mov    %rsi,-0x10(%rbp)
    4e45:	48 89 55 e8          	mov    %rdx,-0x18(%rbp)
      if (__n <= 0)
    4e49:	48 83 7d f0 00       	cmpq   $0x0,-0x10(%rbp)
    4e4e:	75 06                	jne    4e56 <_ZSt10__fill_n_aIPP18VkPhysicalDevice_TmS1_ET_S3_T0_RKT1_St26random_access_iterator_tag+0x21>
	return __first;
    4e50:	48 8b 45 f8          	mov    -0x8(%rbp),%rax
    4e54:	eb 3a                	jmp    4e90 <_ZSt10__fill_n_aIPP18VkPhysicalDevice_TmS1_ET_S3_T0_RKT1_St26random_access_iterator_tag+0x5b>
      std::__fill_a(__first, __first + __n, __value);
    4e56:	48 8b 45 f0          	mov    -0x10(%rbp),%rax
    4e5a:	48 8d 14 c5 00 00 00 	lea    0x0(,%rax,8),%rdx
    4e61:	00 
    4e62:	48 8b 45 f8          	mov    -0x8(%rbp),%rax
    4e66:	48 8d 0c 02          	lea    (%rdx,%rax,1),%rcx
    4e6a:	48 8b 55 e8          	mov    -0x18(%rbp),%rdx
    4e6e:	48 8b 45 f8          	mov    -0x8(%rbp),%rax
    4e72:	48 89 ce             	mov    %rcx,%rsi
    4e75:	48 89 c7             	mov    %rax,%rdi
    4e78:	e8 71 00 00 00       	call   4eee <_ZSt8__fill_aIPP18VkPhysicalDevice_TS1_EvT_S3_RKT0_>
      return __first + __n;
    4e7d:	48 8b 45 f0          	mov    -0x10(%rbp),%rax
    4e81:	48 8d 14 c5 00 00 00 	lea    0x0(,%rax,8),%rdx
    4e88:	00 
    4e89:	48 8b 45 f8          	mov    -0x8(%rbp),%rax
    4e8d:	48 01 d0             	add    %rdx,%rax
    }
    4e90:	c9                   	leave
    4e91:	c3                   	ret

0000000000004e92 <_ZSt8__fill_aIP21VkExtensionPropertiesS0_EvT_S2_RKT0_>:
    __fill_a(_FIte __first, _FIte __last, const _Tp& __value)
    4e92:	55                   	push   %rbp
    4e93:	48 89 e5             	mov    %rsp,%rbp
    4e96:	48 83 ec 20          	sub    $0x20,%rsp
    4e9a:	48 89 7d f8          	mov    %rdi,-0x8(%rbp)
    4e9e:	48 89 75 f0          	mov    %rsi,-0x10(%rbp)
    4ea2:	48 89 55 e8          	mov    %rdx,-0x18(%rbp)
    { std::__fill_a1(__first, __last, __value); }
    4ea6:	48 8b 55 e8          	mov    -0x18(%rbp),%rdx
    4eaa:	48 8b 4d f0          	mov    -0x10(%rbp),%rcx
    4eae:	48 8b 45 f8          	mov    -0x8(%rbp),%rax
    4eb2:	48 89 ce             	mov    %rcx,%rsi
    4eb5:	48 89 c7             	mov    %rax,%rdi
    4eb8:	e8 5f 00 00 00       	call   4f1c <_ZSt9__fill_a1IP21VkExtensionPropertiesS0_EN9__gnu_cxx11__enable_ifIXntsrSt11__is_scalarIT0_E7__valueEvE6__typeET_S9_RKS5_>
    4ebd:	90                   	nop
    4ebe:	c9                   	leave
    4ebf:	c3                   	ret

0000000000004ec0 <_ZSt8__fill_aIP17VkLayerPropertiesS0_EvT_S2_RKT0_>:
    __fill_a(_FIte __first, _FIte __last, const _Tp& __value)
    4ec0:	55                   	push   %rbp
    4ec1:	48 89 e5             	mov    %rsp,%rbp
    4ec4:	48 83 ec 20          	sub    $0x20,%rsp
    4ec8:	48 89 7d f8          	mov    %rdi,-0x8(%rbp)
    4ecc:	48 89 75 f0          	mov    %rsi,-0x10(%rbp)
    4ed0:	48 89 55 e8          	mov    %rdx,-0x18(%rbp)
    { std::__fill_a1(__first, __last, __value); }
    4ed4:	48 8b 55 e8          	mov    -0x18(%rbp),%rdx
    4ed8:	48 8b 4d f0          	mov    -0x10(%rbp),%rcx
    4edc:	48 8b 45 f8          	mov    -0x8(%rbp),%rax
    4ee0:	48 89 ce             	mov    %rcx,%rsi
    4ee3:	48 89 c7             	mov    %rax,%rdi
    4ee6:	e8 a9 00 00 00       	call   4f94 <_ZSt9__fill_a1IP17VkLayerPropertiesS0_EN9__gnu_cxx11__enable_ifIXntsrSt11__is_scalarIT0_E7__valueEvE6__typeET_S9_RKS5_>
    4eeb:	90                   	nop
    4eec:	c9                   	leave
    4eed:	c3                   	ret

0000000000004eee <_ZSt8__fill_aIPP18VkPhysicalDevice_TS1_EvT_S3_RKT0_>:
    __fill_a(_FIte __first, _FIte __last, const _Tp& __value)
    4eee:	55                   	push   %rbp
    4eef:	48 89 e5             	mov    %rsp,%rbp
    4ef2:	48 83 ec 20          	sub    $0x20,%rsp
    4ef6:	48 89 7d f8          	mov    %rdi,-0x8(%rbp)
    4efa:	48 89 75 f0          	mov    %rsi,-0x10(%rbp)
    4efe:	48 89 55 e8          	mov    %rdx,-0x18(%rbp)
    { std::__fill_a1(__first, __last, __value); }
    4f02:	48 8b 55 e8          	mov    -0x18(%rbp),%rdx
    4f06:	48 8b 4d f0          	mov    -0x10(%rbp),%rcx
    4f0a:	48 8b 45 f8          	mov    -0x8(%rbp),%rax
    4f0e:	48 89 ce             	mov    %rcx,%rsi
    4f11:	48 89 c7             	mov    %rax,%rdi
    4f14:	e8 f3 00 00 00       	call   500c <_ZSt9__fill_a1IPP18VkPhysicalDevice_TS1_EN9__gnu_cxx11__enable_ifIXsrSt11__is_scalarIT0_E7__valueEvE6__typeET_SA_RKS6_>
    4f19:	90                   	nop
    4f1a:	c9                   	leave
    4f1b:	c3                   	ret

0000000000004f1c <_ZSt9__fill_a1IP21VkExtensionPropertiesS0_EN9__gnu_cxx11__enable_ifIXntsrSt11__is_scalarIT0_E7__valueEvE6__typeET_S9_RKS5_>:
    __fill_a1(_ForwardIterator __first, _ForwardIterator __last,
    4f1c:	55                   	push   %rbp
    4f1d:	48 89 e5             	mov    %rsp,%rbp
    4f20:	48 89 7d f8          	mov    %rdi,-0x8(%rbp)
    4f24:	48 89 75 f0          	mov    %rsi,-0x10(%rbp)
    4f28:	48 89 55 e8          	mov    %rdx,-0x18(%rbp)
      for (; __first != __last; ++__first)
    4f2c:	eb 58                	jmp    4f86 <_ZSt9__fill_a1IP21VkExtensionPropertiesS0_EN9__gnu_cxx11__enable_ifIXntsrSt11__is_scalarIT0_E7__valueEvE6__typeET_S9_RKS5_+0x6a>
	*__first = __value;
    4f2e:	48 8b 45 f8          	mov    -0x8(%rbp),%rax
    4f32:	48 8b 55 e8          	mov    -0x18(%rbp),%rdx
    4f36:	b9 04 01 00 00       	mov    $0x104,%ecx
    4f3b:	48 8b 32             	mov    (%rdx),%rsi
    4f3e:	48 89 30             	mov    %rsi,(%rax)
    4f41:	89 ce                	mov    %ecx,%esi
    4f43:	48 01 c6             	add    %rax,%rsi
    4f46:	48 8d 7e 08          	lea    0x8(%rsi),%rdi
    4f4a:	89 ce                	mov    %ecx,%esi
    4f4c:	48 01 d6             	add    %rdx,%rsi
    4f4f:	48 83 c6 08          	add    $0x8,%rsi
    4f53:	48 8b 76 f0          	mov    -0x10(%rsi),%rsi
    4f57:	48 89 77 f0          	mov    %rsi,-0x10(%rdi)
    4f5b:	48 8d 78 08          	lea    0x8(%rax),%rdi
    4f5f:	48 83 e7 f8          	and    $0xfffffffffffffff8,%rdi
    4f63:	48 29 f8             	sub    %rdi,%rax
    4f66:	48 29 c2             	sub    %rax,%rdx
    4f69:	01 c1                	add    %eax,%ecx
    4f6b:	83 e1 f8             	and    $0xfffffff8,%ecx
    4f6e:	89 c8                	mov    %ecx,%eax
    4f70:	c1 e8 03             	shr    $0x3,%eax
    4f73:	89 c0                	mov    %eax,%eax
    4f75:	48 89 d6             	mov    %rdx,%rsi
    4f78:	48 89 c1             	mov    %rax,%rcx
    4f7b:	f3 48 a5             	rep movsq %ds:(%rsi),%es:(%rdi)
      for (; __first != __last; ++__first)
    4f7e:	48 81 45 f8 04 01 00 	addq   $0x104,-0x8(%rbp)
    4f85:	00 
    4f86:	48 8b 45 f8          	mov    -0x8(%rbp),%rax
    4f8a:	48 3b 45 f0          	cmp    -0x10(%rbp),%rax
    4f8e:	75 9e                	jne    4f2e <_ZSt9__fill_a1IP21VkExtensionPropertiesS0_EN9__gnu_cxx11__enable_ifIXntsrSt11__is_scalarIT0_E7__valueEvE6__typeET_S9_RKS5_+0x12>
    }
    4f90:	90                   	nop
    4f91:	90                   	nop
    4f92:	5d                   	pop    %rbp
    4f93:	c3                   	ret

0000000000004f94 <_ZSt9__fill_a1IP17VkLayerPropertiesS0_EN9__gnu_cxx11__enable_ifIXntsrSt11__is_scalarIT0_E7__valueEvE6__typeET_S9_RKS5_>:
    __fill_a1(_ForwardIterator __first, _ForwardIterator __last,
    4f94:	55                   	push   %rbp
    4f95:	48 89 e5             	mov    %rsp,%rbp
    4f98:	48 89 7d f8          	mov    %rdi,-0x8(%rbp)
    4f9c:	48 89 75 f0          	mov    %rsi,-0x10(%rbp)
    4fa0:	48 89 55 e8          	mov    %rdx,-0x18(%rbp)
      for (; __first != __last; ++__first)
    4fa4:	eb 58                	jmp    4ffe <_ZSt9__fill_a1IP17VkLayerPropertiesS0_EN9__gnu_cxx11__enable_ifIXntsrSt11__is_scalarIT0_E7__valueEvE6__typeET_S9_RKS5_+0x6a>
	*__first = __value;
    4fa6:	48 8b 45 f8          	mov    -0x8(%rbp),%rax
    4faa:	48 8b 55 e8          	mov    -0x18(%rbp),%rdx
    4fae:	b9 08 02 00 00       	mov    $0x208,%ecx
    4fb3:	48 8b 32             	mov    (%rdx),%rsi
    4fb6:	48 89 30             	mov    %rsi,(%rax)
    4fb9:	89 ce                	mov    %ecx,%esi
    4fbb:	48 01 c6             	add    %rax,%rsi
    4fbe:	48 8d 7e 08          	lea    0x8(%rsi),%rdi
    4fc2:	89 ce                	mov    %ecx,%esi
    4fc4:	48 01 d6             	add    %rdx,%rsi
    4fc7:	48 83 c6 08          	add    $0x8,%rsi
    4fcb:	48 8b 76 f0          	mov    -0x10(%rsi),%rsi
    4fcf:	48 89 77 f0          	mov    %rsi,-0x10(%rdi)
    4fd3:	48 8d 78 08          	lea    0x8(%rax),%rdi
    4fd7:	48 83 e7 f8          	and    $0xfffffffffffffff8,%rdi
    4fdb:	48 29 f8             	sub    %rdi,%rax
    4fde:	48 29 c2             	sub    %rax,%rdx
    4fe1:	01 c1                	add    %eax,%ecx
    4fe3:	83 e1 f8             	and    $0xfffffff8,%ecx
    4fe6:	89 c8                	mov    %ecx,%eax
    4fe8:	c1 e8 03             	shr    $0x3,%eax
    4feb:	89 c0                	mov    %eax,%eax
    4fed:	48 89 d6             	mov    %rdx,%rsi
    4ff0:	48 89 c1             	mov    %rax,%rcx
    4ff3:	f3 48 a5             	rep movsq %ds:(%rsi),%es:(%rdi)
      for (; __first != __last; ++__first)
    4ff6:	48 81 45 f8 08 02 00 	addq   $0x208,-0x8(%rbp)
    4ffd:	00 
    4ffe:	48 8b 45 f8          	mov    -0x8(%rbp),%rax
    5002:	48 3b 45 f0          	cmp    -0x10(%rbp),%rax
    5006:	75 9e                	jne    4fa6 <_ZSt9__fill_a1IP17VkLayerPropertiesS0_EN9__gnu_cxx11__enable_ifIXntsrSt11__is_scalarIT0_E7__valueEvE6__typeET_S9_RKS5_+0x12>
    }
    5008:	90                   	nop
    5009:	90                   	nop
    500a:	5d                   	pop    %rbp
    500b:	c3                   	ret

000000000000500c <_ZSt9__fill_a1IPP18VkPhysicalDevice_TS1_EN9__gnu_cxx11__enable_ifIXsrSt11__is_scalarIT0_E7__valueEvE6__typeET_SA_RKS6_>:
    __fill_a1(_ForwardIterator __first, _ForwardIterator __last,
    500c:	55                   	push   %rbp
    500d:	48 89 e5             	mov    %rsp,%rbp
    5010:	48 89 7d e8          	mov    %rdi,-0x18(%rbp)
    5014:	48 89 75 e0          	mov    %rsi,-0x20(%rbp)
    5018:	48 89 55 d8          	mov    %rdx,-0x28(%rbp)
      const _Tp __tmp = __value;
    501c:	48 8b 45 d8          	mov    -0x28(%rbp),%rax
    5020:	48 8b 00             	mov    (%rax),%rax
    5023:	48 89 45 f8          	mov    %rax,-0x8(%rbp)
      for (; __first != __last; ++__first)
    5027:	eb 10                	jmp    5039 <_ZSt9__fill_a1IPP18VkPhysicalDevice_TS1_EN9__gnu_cxx11__enable_ifIXsrSt11__is_scalarIT0_E7__valueEvE6__typeET_SA_RKS6_+0x2d>
	*__first = __tmp;
    5029:	48 8b 45 e8          	mov    -0x18(%rbp),%rax
    502d:	48 8b 55 f8          	mov    -0x8(%rbp),%rdx
    5031:	48 89 10             	mov    %rdx,(%rax)
      for (; __first != __last; ++__first)
    5034:	48 83 45 e8 08       	addq   $0x8,-0x18(%rbp)
    5039:	48 8b 45 e8          	mov    -0x18(%rbp),%rax
    503d:	48 3b 45 e0          	cmp    -0x20(%rbp),%rax
    5041:	75 e6                	jne    5029 <_ZSt9__fill_a1IPP18VkPhysicalDevice_TS1_EN9__gnu_cxx11__enable_ifIXsrSt11__is_scalarIT0_E7__valueEvE6__typeET_SA_RKS6_+0x1d>
    }
    5043:	90                   	nop
    5044:	90                   	nop
    5045:	5d                   	pop    %rbp
    5046:	c3                   	ret

0000000000005047 <_ZN3vkh19makeApplicationInfoEPKc>:
#include "make_info.hpp"

namespace vkh {
VkApplicationInfo makeApplicationInfo(const char *pApplicationName) {
    5047:	55                   	push   %rbp
    5048:	48 89 e5             	mov    %rsp,%rbp
    504b:	48 89 7d f8          	mov    %rdi,-0x8(%rbp)
    504f:	48 89 75 f0          	mov    %rsi,-0x10(%rbp)
  VkApplicationInfo appInfo{};
    5053:	48 8b 45 f8          	mov    -0x8(%rbp),%rax
    5057:	66 0f ef c0          	pxor   %xmm0,%xmm0
    505b:	0f 11 00             	movups %xmm0,(%rax)
    505e:	0f 11 40 10          	movups %xmm0,0x10(%rax)
    5062:	0f 11 40 20          	movups %xmm0,0x20(%rax)
  appInfo.sType = VK_STRUCTURE_TYPE_APPLICATION_INFO;
    5066:	48 8b 45 f8          	mov    -0x8(%rbp),%rax
    506a:	c7 00 00 00 00 00    	movl   $0x0,(%rax)
  appInfo.pApplicationName = pApplicationName;
    5070:	48 8b 45 f8          	mov    -0x8(%rbp),%rax
    5074:	48 8b 55 f0          	mov    -0x10(%rbp),%rdx
    5078:	48 89 50 10          	mov    %rdx,0x10(%rax)
  appInfo.applicationVersion = VK_MAKE_VERSION(1, 0, 0);
    507c:	48 8b 45 f8          	mov    -0x8(%rbp),%rax
    5080:	c7 40 18 00 00 40 00 	movl   $0x400000,0x18(%rax)
  appInfo.pEngineName = "No Engine";
    5087:	48 8b 45 f8          	mov    -0x8(%rbp),%rax
    508b:	48 8d 15 fe 2d 00 00 	lea    0x2dfe(%rip),%rdx        # 7e90 <_ZL47VK_FORMAT_FEATURE_2_BOX_FILTER_SAMPLED_BIT_QCOM+0x8>
    5092:	48 89 50 20          	mov    %rdx,0x20(%rax)
  appInfo.engineVersion = VK_MAKE_VERSION(1, 0, 0);
    5096:	48 8b 45 f8          	mov    -0x8(%rbp),%rax
    509a:	c7 40 28 00 00 40 00 	movl   $0x400000,0x28(%rax)
  appInfo.apiVersion = VK_API_VERSION_1_3;
    50a1:	48 8b 45 f8          	mov    -0x8(%rbp),%rax
    50a5:	c7 40 2c 00 30 40 00 	movl   $0x403000,0x2c(%rax)
  return appInfo;
    50ac:	90                   	nop
}
    50ad:	48 8b 45 f8          	mov    -0x8(%rbp),%rax
    50b1:	5d                   	pop    %rbp
    50b2:	c3                   	ret

00000000000050b3 <_ZN3vkh22makeInstanceCreateInfoEPK17VkApplicationInfojPKPKcPKv>:

VkInstanceCreateInfo makeInstanceCreateInfo(
    const VkApplicationInfo *appInfo, uint32_t enabledLayerCount,
    const char *const *ppEnabledLayerNames, const void *pNext) {
    50b3:	55                   	push   %rbp
    50b4:	48 89 e5             	mov    %rsp,%rbp
    50b7:	48 83 ec 40          	sub    $0x40,%rsp
    50bb:	48 89 7d e8          	mov    %rdi,-0x18(%rbp)
    50bf:	48 89 75 e0          	mov    %rsi,-0x20(%rbp)
    50c3:	89 55 dc             	mov    %edx,-0x24(%rbp)
    50c6:	48 89 4d d0          	mov    %rcx,-0x30(%rbp)
    50ca:	4c 89 45 c8          	mov    %r8,-0x38(%rbp)
  VkInstanceCreateInfo createInfo{};
    50ce:	48 8b 45 e8          	mov    -0x18(%rbp),%rax
    50d2:	66 0f ef c0          	pxor   %xmm0,%xmm0
    50d6:	0f 11 00             	movups %xmm0,(%rax)
    50d9:	0f 11 40 10          	movups %xmm0,0x10(%rax)
    50dd:	0f 11 40 20          	movups %xmm0,0x20(%rax)
    50e1:	0f 11 40 30          	movups %xmm0,0x30(%rax)
  createInfo.sType = VK_STRUCTURE_TYPE_INSTANCE_CREATE_INFO;
    50e5:	48 8b 45 e8          	mov    -0x18(%rbp),%rax
    50e9:	c7 00 01 00 00 00    	movl   $0x1,(%rax)
  createInfo.pNext = pNext;
    50ef:	48 8b 45 e8          	mov    -0x18(%rbp),%rax
    50f3:	48 8b 55 c8          	mov    -0x38(%rbp),%rdx
    50f7:	48 89 50 08          	mov    %rdx,0x8(%rax)
  createInfo.pApplicationInfo = appInfo;
    50fb:	48 8b 45 e8          	mov    -0x18(%rbp),%rax
    50ff:	48 8b 55 e0          	mov    -0x20(%rbp),%rdx
    5103:	48 89 50 18          	mov    %rdx,0x18(%rax)
  createInfo.enabledLayerCount = enabledLayerCount;
    5107:	48 8b 45 e8          	mov    -0x18(%rbp),%rax
    510b:	8b 55 dc             	mov    -0x24(%rbp),%edx
    510e:	89 50 20             	mov    %edx,0x20(%rax)
  createInfo.ppEnabledLayerNames = ppEnabledLayerNames;
    5111:	48 8b 45 e8          	mov    -0x18(%rbp),%rax
    5115:	48 8b 55 d0          	mov    -0x30(%rbp),%rdx
    5119:	48 89 50 28          	mov    %rdx,0x28(%rax)

  uint32_t glfwExtensionCount;
  const char **glfwExtensions;
  glfwExtensions = glfwGetRequiredInstanceExtensions(&glfwExtensionCount);
    511d:	48 8d 45 f4          	lea    -0xc(%rbp),%rax
    5121:	48 89 c7             	mov    %rax,%rdi
    5124:	e8 07 d0 ff ff       	call   2130 <glfwGetRequiredInstanceExtensions@plt>
    5129:	48 89 45 f8          	mov    %rax,-0x8(%rbp)

  createInfo.enabledExtensionCount = glfwExtensionCount;
    512d:	8b 55 f4             	mov    -0xc(%rbp),%edx
    5130:	48 8b 45 e8          	mov    -0x18(%rbp),%rax
    5134:	89 50 30             	mov    %edx,0x30(%rax)
  createInfo.ppEnabledExtensionNames = glfwExtensions;
    5137:	48 8b 45 e8          	mov    -0x18(%rbp),%rax
    513b:	48 8b 55 f8          	mov    -0x8(%rbp),%rdx
    513f:	48 89 50 38          	mov    %rdx,0x38(%rax)
  return createInfo;
    5143:	90                   	nop
}
    5144:	48 8b 45 e8          	mov    -0x18(%rbp),%rax
    5148:	c9                   	leave
    5149:	c3                   	ret

000000000000514a <_ZN3vkh20makeDeviceCreateInfoEjPK23VkDeviceQueueCreateInfojPKPKcPK24VkPhysicalDeviceFeaturesjS6_PKv>:
    uint32_t queueCreateInfoCount,
    const VkDeviceQueueCreateInfo *pQueueCreateInfos,
    uint32_t enabledExtensionCount, const char *const *ppEnabledExtensionNames,
    const VkPhysicalDeviceFeatures *pEnabledFeatures,
    uint32_t enabledLayerCount, const char *const *ppEnabledLayerNames,
    const void *pNext) {
    514a:	55                   	push   %rbp
    514b:	48 89 e5             	mov    %rsp,%rbp
    514e:	48 89 7d f8          	mov    %rdi,-0x8(%rbp)
    5152:	89 75 f4             	mov    %esi,-0xc(%rbp)
    5155:	48 89 55 e8          	mov    %rdx,-0x18(%rbp)
    5159:	89 4d f0             	mov    %ecx,-0x10(%rbp)
    515c:	4c 89 45 e0          	mov    %r8,-0x20(%rbp)
    5160:	4c 89 4d d8          	mov    %r9,-0x28(%rbp)
  VkDeviceCreateInfo deviceCreateInfo{};
    5164:	48 8b 45 f8          	mov    -0x8(%rbp),%rax
    5168:	66 0f ef c0          	pxor   %xmm0,%xmm0
    516c:	0f 11 00             	movups %xmm0,(%rax)
    516f:	0f 11 40 10          	movups %xmm0,0x10(%rax)
    5173:	0f 11 40 20          	movups %xmm0,0x20(%rax)
    5177:	0f 11 40 30          	movups %xmm0,0x30(%rax)
    517b:	66 0f d6 40 40       	movq   %xmm0,0x40(%rax)
  deviceCreateInfo.sType = VK_STRUCTURE_TYPE_DEVICE_CREATE_INFO;
    5180:	48 8b 45 f8          	mov    -0x8(%rbp),%rax
    5184:	c7 00 03 00 00 00    	movl   $0x3,(%rax)
  deviceCreateInfo.pNext = pNext;
    518a:	48 8b 45 f8          	mov    -0x8(%rbp),%rax
    518e:	48 8b 55 20          	mov    0x20(%rbp),%rdx
    5192:	48 89 50 08          	mov    %rdx,0x8(%rax)
  deviceCreateInfo.queueCreateInfoCount = queueCreateInfoCount;
    5196:	48 8b 45 f8          	mov    -0x8(%rbp),%rax
    519a:	8b 55 f4             	mov    -0xc(%rbp),%edx
    519d:	89 50 14             	mov    %edx,0x14(%rax)
  deviceCreateInfo.pQueueCreateInfos = pQueueCreateInfos;
    51a0:	48 8b 45 f8          	mov    -0x8(%rbp),%rax
    51a4:	48 8b 55 e8          	mov    -0x18(%rbp),%rdx
    51a8:	48 89 50 18          	mov    %rdx,0x18(%rax)
  deviceCreateInfo.enabledExtensionCount = enabledExtensionCount;
    51ac:	48 8b 45 f8          	mov    -0x8(%rbp),%rax
    51b0:	8b 55 f0             	mov    -0x10(%rbp),%edx
    51b3:	89 50 30             	mov    %edx,0x30(%rax)
  deviceCreateInfo.ppEnabledExtensionNames = ppEnabledExtensionNames;
    51b6:	48 8b 45 f8          	mov    -0x8(%rbp),%rax
    51ba:	48 8b 55 e0          	mov    -0x20(%rbp),%rdx
    51be:	48 89 50 38          	mov    %rdx,0x38(%rax)
  deviceCreateInfo.pEnabledFeatures = pEnabledFeatures;
    51c2:	48 8b 45 f8          	mov    -0x8(%rbp),%rax
    51c6:	48 8b 55 d8          	mov    -0x28(%rbp),%rdx
    51ca:	48 89 50 40          	mov    %rdx,0x40(%rax)
  deviceCreateInfo.enabledLayerCount = enabledLayerCount;
    51ce:	48 8b 45 f8          	mov    -0x8(%rbp),%rax
    51d2:	8b 55 10             	mov    0x10(%rbp),%edx
    51d5:	89 50 20             	mov    %edx,0x20(%rax)
  deviceCreateInfo.ppEnabledLayerNames = ppEnabledLayerNames;
    51d8:	48 8b 45 f8          	mov    -0x8(%rbp),%rax
    51dc:	48 8b 55 18          	mov    0x18(%rbp),%rdx
    51e0:	48 89 50 28          	mov    %rdx,0x28(%rax)
  return deviceCreateInfo;
    51e4:	90                   	nop
}
    51e5:	48 8b 45 f8          	mov    -0x8(%rbp),%rax
    51e9:	5d                   	pop    %rbp
    51ea:	c3                   	ret

00000000000051eb <_ZN3vkh27checkValidationLayerSupportEv>:
#include "validation_layers.hpp"

namespace vkh {
bool checkValidationLayerSupport() {
    51eb:	55                   	push   %rbp
    51ec:	48 89 e5             	mov    %rsp,%rbp
    51ef:	41 57                	push   %r15
    51f1:	41 56                	push   %r14
    51f3:	41 55                	push   %r13
    51f5:	41 54                	push   %r12
    51f7:	53                   	push   %rbx
    51f8:	48 81 ec b8 00 00 00 	sub    $0xb8,%rsp
  uint32_t layerCount;
  vkEnumerateInstanceLayerProperties(&layerCount, nullptr);
    51ff:	48 8d 85 78 ff ff ff 	lea    -0x88(%rbp),%rax
    5206:	be 00 00 00 00       	mov    $0x0,%esi
    520b:	48 89 c7             	mov    %rax,%rdi
    520e:	e8 3d d0 ff ff       	call   2250 <vkEnumerateInstanceLayerProperties@plt>
  std::vector<VkLayerProperties> availableLayers{layerCount};
    5213:	8b 85 78 ff ff ff    	mov    -0x88(%rbp),%eax
    5219:	89 c3                	mov    %eax,%ebx
    521b:	48 8d 85 7f ff ff ff 	lea    -0x81(%rbp),%rax
    5222:	48 89 c7             	mov    %rax,%rdi
    5225:	e8 fc e4 ff ff       	call   3726 <_ZNSaI17VkLayerPropertiesEC1Ev>
    522a:	48 8d 95 7f ff ff ff 	lea    -0x81(%rbp),%rdx
    5231:	48 8d 85 60 ff ff ff 	lea    -0xa0(%rbp),%rax
    5238:	48 89 de             	mov    %rbx,%rsi
    523b:	48 89 c7             	mov    %rax,%rdi
    523e:	e8 ff e4 ff ff       	call   3742 <_ZNSt6vectorI17VkLayerPropertiesSaIS0_EEC1EmRKS1_>
    5243:	48 8d 85 7f ff ff ff 	lea    -0x81(%rbp),%rax
    524a:	48 89 c7             	mov    %rax,%rdi
    524d:	e8 0c d8 ff ff       	call   2a5e <_ZNSaI17VkLayerPropertiesED1Ev>
  vkEnumerateInstanceLayerProperties(&layerCount, availableLayers.data());
    5252:	48 8d 85 60 ff ff ff 	lea    -0xa0(%rbp),%rax
    5259:	48 89 c7             	mov    %rax,%rdi
    525c:	e8 57 e5 ff ff       	call   37b8 <_ZNSt6vectorI17VkLayerPropertiesSaIS0_EE4dataEv>
    5261:	48 89 c2             	mov    %rax,%rdx
    5264:	48 8d 85 78 ff ff ff 	lea    -0x88(%rbp),%rax
    526b:	48 89 d6             	mov    %rdx,%rsi
    526e:	48 89 c7             	mov    %rax,%rdi
    5271:	e8 da cf ff ff       	call   2250 <vkEnumerateInstanceLayerProperties@plt>
    if (!layerFound) {
      return false;
    }
  }
  return true;
}
    5276:	4c 8d 65 80          	lea    -0x80(%rbp),%r12
    527a:	41 bd 00 00 00 00    	mov    $0x0,%r13d
    5280:	4c 89 e3             	mov    %r12,%rbx
    5283:	48 8d 45 a6          	lea    -0x5a(%rbp),%rax
    5287:	48 89 c7             	mov    %rax,%rdi
    528a:	e8 b1 d0 ff ff       	call   2340 <_ZNSaIcEC1Ev@plt>
    528f:	48 8d 45 a6          	lea    -0x5a(%rbp),%rax
    5293:	48 89 c2             	mov    %rax,%rdx
    5296:	48 8d 05 db 31 00 00 	lea    0x31db(%rip),%rax        # 8478 <_ZL47VK_FORMAT_FEATURE_2_BOX_FILTER_SAMPLED_BIT_QCOM+0x8>
    529d:	48 89 c6             	mov    %rax,%rsi
    52a0:	48 89 df             	mov    %rbx,%rdi
    52a3:	e8 a0 03 00 00       	call   5648 <_ZNSt7__cxx1112basic_stringIcSt11char_traitsIcESaIcEEC1IS3_EEPKcRKS3_>
    52a8:	41 bd 00 00 00 00    	mov    $0x0,%r13d
      "VK_LAYER_KHRONOS_validation"};
    52ae:	48 8d 45 80          	lea    -0x80(%rbp),%rax
    52b2:	49 89 c6             	mov    %rax,%r14
    52b5:	41 bf 01 00 00 00    	mov    $0x1,%r15d
    52bb:	48 8d 45 a7          	lea    -0x59(%rbp),%rax
    52bf:	48 89 c7             	mov    %rax,%rdi
    52c2:	e8 ff e2 ff ff       	call   35c6 <_ZNSaINSt7__cxx1112basic_stringIcSt11char_traitsIcESaIcEEEEC1Ev>
    52c7:	48 8d 55 a7          	lea    -0x59(%rbp),%rdx
    52cb:	4c 89 f6             	mov    %r14,%rsi
    52ce:	4c 89 ff             	mov    %r15,%rdi
    52d1:	4c 89 f1             	mov    %r14,%rcx
    52d4:	4c 89 fb             	mov    %r15,%rbx
    52d7:	48 89 df             	mov    %rbx,%rdi
    52da:	48 8d 85 40 ff ff ff 	lea    -0xc0(%rbp),%rax
    52e1:	48 89 d1             	mov    %rdx,%rcx
    52e4:	48 89 fa             	mov    %rdi,%rdx
    52e7:	48 89 c7             	mov    %rax,%rdi
    52ea:	e8 f9 03 00 00       	call   56e8 <_ZNSt6vectorINSt7__cxx1112basic_stringIcSt11char_traitsIcESaIcEEESaIS5_EEC1ESt16initializer_listIS5_ERKS6_>
    52ef:	48 8d 45 a7          	lea    -0x59(%rbp),%rax
    52f3:	48 89 c7             	mov    %rax,%rdi
    52f6:	e8 e7 e2 ff ff       	call   35e2 <_ZNSaINSt7__cxx1112basic_stringIcSt11char_traitsIcESaIcEEEED1Ev>
    52fb:	48 8d 5d 80          	lea    -0x80(%rbp),%rbx
    52ff:	48 83 c3 20          	add    $0x20,%rbx
    5303:	48 8d 45 80          	lea    -0x80(%rbp),%rax
    5307:	48 39 c3             	cmp    %rax,%rbx
    530a:	74 0e                	je     531a <_ZN3vkh27checkValidationLayerSupportEv+0x12f>
    530c:	48 83 eb 20          	sub    $0x20,%rbx
    5310:	48 89 df             	mov    %rbx,%rdi
    5313:	e8 d8 cd ff ff       	call   20f0 <_ZNSt7__cxx1112basic_stringIcSt11char_traitsIcESaIcEED1Ev@plt>
    5318:	eb e9                	jmp    5303 <_ZN3vkh27checkValidationLayerSupportEv+0x118>
}
    531a:	48 8d 45 a6          	lea    -0x5a(%rbp),%rax
    531e:	48 89 c7             	mov    %rax,%rdi
    5321:	e8 fa ce ff ff       	call   2220 <_ZNSaIcED1Ev@plt>
  for (const std::string &layerName : validationLayers) {
    5326:	48 8d 85 40 ff ff ff 	lea    -0xc0(%rbp),%rax
    532d:	48 89 45 c0          	mov    %rax,-0x40(%rbp)
    5331:	48 8b 45 c0          	mov    -0x40(%rbp),%rax
    5335:	48 89 c7             	mov    %rax,%rdi
    5338:	e8 33 04 00 00       	call   5770 <_ZNKSt6vectorINSt7__cxx1112basic_stringIcSt11char_traitsIcESaIcEEESaIS5_EE5beginEv>
    533d:	48 89 85 38 ff ff ff 	mov    %rax,-0xc8(%rbp)
    5344:	48 8b 45 c0          	mov    -0x40(%rbp),%rax
    5348:	48 89 c7             	mov    %rax,%rdi
    534b:	e8 46 04 00 00       	call   5796 <_ZNKSt6vectorINSt7__cxx1112basic_stringIcSt11char_traitsIcESaIcEEESaIS5_EE3endEv>
    5350:	48 89 85 30 ff ff ff 	mov    %rax,-0xd0(%rbp)
    5357:	e9 c7 00 00 00       	jmp    5423 <_ZN3vkh27checkValidationLayerSupportEv+0x238>
    535c:	48 8d 85 38 ff ff ff 	lea    -0xc8(%rbp),%rax
    5363:	48 89 c7             	mov    %rax,%rdi
    5366:	e8 af 04 00 00       	call   581a <_ZNK9__gnu_cxx17__normal_iteratorIPKNSt7__cxx1112basic_stringIcSt11char_traitsIcESaIcEEESt6vectorIS6_SaIS6_EEEdeEv>
    536b:	48 89 45 b8          	mov    %rax,-0x48(%rbp)
    bool layerFound = false;
    536f:	c6 45 cf 00          	movb   $0x0,-0x31(%rbp)
    for (const auto &layerProperties : availableLayers) {
    5373:	48 8d 85 60 ff ff ff 	lea    -0xa0(%rbp),%rax
    537a:	48 89 45 b0          	mov    %rax,-0x50(%rbp)
    537e:	48 8b 45 b0          	mov    -0x50(%rbp),%rax
    5382:	48 89 c7             	mov    %rax,%rdi
    5385:	e8 22 d4 ff ff       	call   27ac <_ZNSt6vectorI17VkLayerPropertiesSaIS0_EE5beginEv>
    538a:	48 89 85 28 ff ff ff 	mov    %rax,-0xd8(%rbp)
    5391:	48 8b 45 b0          	mov    -0x50(%rbp),%rax
    5395:	48 89 c7             	mov    %rax,%rdi
    5398:	e8 35 d4 ff ff       	call   27d2 <_ZNSt6vectorI17VkLayerPropertiesSaIS0_EE3endEv>
    539d:	48 89 85 20 ff ff ff 	mov    %rax,-0xe0(%rbp)
    53a4:	eb 3f                	jmp    53e5 <_ZN3vkh27checkValidationLayerSupportEv+0x1fa>
    53a6:	48 8d 85 28 ff ff ff 	lea    -0xd8(%rbp),%rax
    53ad:	48 89 c7             	mov    %rax,%rdi
    53b0:	e8 a5 d4 ff ff       	call   285a <_ZNK9__gnu_cxx17__normal_iteratorIP17VkLayerPropertiesSt6vectorIS1_SaIS1_EEEdeEv>
    53b5:	48 89 45 a8          	mov    %rax,-0x58(%rbp)
      if (layerName == layerProperties.layerName) {
    53b9:	48 8b 55 a8          	mov    -0x58(%rbp),%rdx
    53bd:	48 8b 45 b8          	mov    -0x48(%rbp),%rax
    53c1:	48 89 d6             	mov    %rdx,%rsi
    53c4:	48 89 c7             	mov    %rax,%rdi
    53c7:	e8 5f 04 00 00       	call   582b <_ZSteqIcSt11char_traitsIcESaIcEEbRKNSt7__cxx1112basic_stringIT_T0_T1_EEPKS5_>
    53cc:	84 c0                	test   %al,%al
    53ce:	74 06                	je     53d6 <_ZN3vkh27checkValidationLayerSupportEv+0x1eb>
        layerFound = true;
    53d0:	c6 45 cf 01          	movb   $0x1,-0x31(%rbp)
        break;
    53d4:	eb 2c                	jmp    5402 <_ZN3vkh27checkValidationLayerSupportEv+0x217>
    for (const auto &layerProperties : availableLayers) {
    53d6:	48 8d 85 28 ff ff ff 	lea    -0xd8(%rbp),%rax
    53dd:	48 89 c7             	mov    %rax,%rdi
    53e0:	e8 51 d4 ff ff       	call   2836 <_ZN9__gnu_cxx17__normal_iteratorIP17VkLayerPropertiesSt6vectorIS1_SaIS1_EEEppEv>
    53e5:	48 8d 95 20 ff ff ff 	lea    -0xe0(%rbp),%rdx
    53ec:	48 8d 85 28 ff ff ff 	lea    -0xd8(%rbp),%rax
    53f3:	48 89 d6             	mov    %rdx,%rsi
    53f6:	48 89 c7             	mov    %rax,%rdi
    53f9:	e8 fd d3 ff ff       	call   27fb <_ZN9__gnu_cxxneIP17VkLayerPropertiesSt6vectorIS1_SaIS1_EEEEbRKNS_17__normal_iteratorIT_T0_EESB_>
    53fe:	84 c0                	test   %al,%al
    5400:	75 a4                	jne    53a6 <_ZN3vkh27checkValidationLayerSupportEv+0x1bb>
    if (!layerFound) {
    5402:	0f b6 45 cf          	movzbl -0x31(%rbp),%eax
    5406:	83 f0 01             	xor    $0x1,%eax
    5409:	84 c0                	test   %al,%al
    540b:	74 07                	je     5414 <_ZN3vkh27checkValidationLayerSupportEv+0x229>
      return false;
    540d:	bb 00 00 00 00       	mov    $0x0,%ebx
    5412:	eb 35                	jmp    5449 <_ZN3vkh27checkValidationLayerSupportEv+0x25e>
  for (const std::string &layerName : validationLayers) {
    5414:	48 8d 85 38 ff ff ff 	lea    -0xc8(%rbp),%rax
    541b:	48 89 c7             	mov    %rax,%rdi
    541e:	e8 d7 03 00 00       	call   57fa <_ZN9__gnu_cxx17__normal_iteratorIPKNSt7__cxx1112basic_stringIcSt11char_traitsIcESaIcEEESt6vectorIS6_SaIS6_EEEppEv>
    5423:	48 8d 95 30 ff ff ff 	lea    -0xd0(%rbp),%rdx
    542a:	48 8d 85 38 ff ff ff 	lea    -0xc8(%rbp),%rax
    5431:	48 89 d6             	mov    %rdx,%rsi
    5434:	48 89 c7             	mov    %rax,%rdi
    5437:	e8 83 03 00 00       	call   57bf <_ZN9__gnu_cxxneIPKNSt7__cxx1112basic_stringIcSt11char_traitsIcESaIcEEESt6vectorIS6_SaIS6_EEEEbRKNS_17__normal_iteratorIT_T0_EESH_>
    543c:	84 c0                	test   %al,%al
    543e:	0f 85 18 ff ff ff    	jne    535c <_ZN3vkh27checkValidationLayerSupportEv+0x171>
  return true;
    5444:	bb 01 00 00 00       	mov    $0x1,%ebx
}
    5449:	48 8d 85 40 ff ff ff 	lea    -0xc0(%rbp),%rax
    5450:	48 89 c7             	mov    %rax,%rdi
    5453:	e8 1c e2 ff ff       	call   3674 <_ZNSt6vectorINSt7__cxx1112basic_stringIcSt11char_traitsIcESaIcEEESaIS5_EED1Ev>
    5458:	48 8d 85 60 ff ff ff 	lea    -0xa0(%rbp),%rax
    545f:	48 89 c7             	mov    %rax,%rdi
    5462:	e8 01 d3 ff ff       	call   2768 <_ZNSt6vectorI17VkLayerPropertiesSaIS0_EED1Ev>
    5467:	89 d8                	mov    %ebx,%eax
    5469:	e9 b2 00 00 00       	jmp    5520 <_ZN3vkh27checkValidationLayerSupportEv+0x335>
  std::vector<VkLayerProperties> availableLayers{layerCount};
    546e:	48 89 c3             	mov    %rax,%rbx
    5471:	48 8d 85 7f ff ff ff 	lea    -0x81(%rbp),%rax
    5478:	48 89 c7             	mov    %rax,%rdi
    547b:	e8 de d5 ff ff       	call   2a5e <_ZNSaI17VkLayerPropertiesED1Ev>
    5480:	48 89 d8             	mov    %rbx,%rax
    5483:	48 89 c7             	mov    %rax,%rdi
    5486:	e8 a5 ce ff ff       	call   2330 <_Unwind_Resume@plt>
      "VK_LAYER_KHRONOS_validation"};
    548b:	48 89 c3             	mov    %rax,%rbx
    548e:	48 8d 45 a7          	lea    -0x59(%rbp),%rax
    5492:	48 89 c7             	mov    %rax,%rdi
    5495:	e8 48 e1 ff ff       	call   35e2 <_ZNSaINSt7__cxx1112basic_stringIcSt11char_traitsIcESaIcEEEED1Ev>
    549a:	49 89 de             	mov    %rbx,%r14
    549d:	48 8d 5d 80          	lea    -0x80(%rbp),%rbx
    54a1:	48 83 c3 20          	add    $0x20,%rbx
    54a5:	48 8d 45 80          	lea    -0x80(%rbp),%rax
    54a9:	48 39 c3             	cmp    %rax,%rbx
    54ac:	74 0e                	je     54bc <_ZN3vkh27checkValidationLayerSupportEv+0x2d1>
    54ae:	48 83 eb 20          	sub    $0x20,%rbx
    54b2:	48 89 df             	mov    %rbx,%rdi
    54b5:	e8 36 cc ff ff       	call   20f0 <_ZNSt7__cxx1112basic_stringIcSt11char_traitsIcESaIcEED1Ev@plt>
    54ba:	eb e9                	jmp    54a5 <_ZN3vkh27checkValidationLayerSupportEv+0x2ba>
    54bc:	4c 89 f3             	mov    %r14,%rbx
    54bf:	eb 03                	jmp    54c4 <_ZN3vkh27checkValidationLayerSupportEv+0x2d9>
}
    54c1:	48 89 c3             	mov    %rax,%rbx
    54c4:	48 8d 45 a6          	lea    -0x5a(%rbp),%rax
    54c8:	48 89 c7             	mov    %rax,%rdi
    54cb:	e8 50 cd ff ff       	call   2220 <_ZNSaIcED1Ev@plt>
    54d0:	49 89 de             	mov    %rbx,%r14
    54d3:	4d 85 e4             	test   %r12,%r12
    54d6:	74 26                	je     54fe <_ZN3vkh27checkValidationLayerSupportEv+0x313>
    54d8:	4c 89 ea             	mov    %r13,%rdx
    54db:	b8 00 00 00 00       	mov    $0x0,%eax
    54e0:	48 29 d0             	sub    %rdx,%rax
    54e3:	48 c1 e0 05          	shl    $0x5,%rax
    54e7:	49 8d 1c 04          	lea    (%r12,%rax,1),%rbx
    54eb:	4c 39 e3             	cmp    %r12,%rbx
    54ee:	74 0e                	je     54fe <_ZN3vkh27checkValidationLayerSupportEv+0x313>
    54f0:	48 83 eb 20          	sub    $0x20,%rbx
    54f4:	48 89 df             	mov    %rbx,%rdi
    54f7:	e8 f4 cb ff ff       	call   20f0 <_ZNSt7__cxx1112basic_stringIcSt11char_traitsIcESaIcEED1Ev@plt>
    54fc:	eb ed                	jmp    54eb <_ZN3vkh27checkValidationLayerSupportEv+0x300>
    54fe:	4c 89 f3             	mov    %r14,%rbx
    5501:	eb 03                	jmp    5506 <_ZN3vkh27checkValidationLayerSupportEv+0x31b>
    5503:	48 89 c3             	mov    %rax,%rbx
    5506:	48 8d 85 60 ff ff ff 	lea    -0xa0(%rbp),%rax
    550d:	48 89 c7             	mov    %rax,%rdi
    5510:	e8 53 d2 ff ff       	call   2768 <_ZNSt6vectorI17VkLayerPropertiesSaIS0_EED1Ev>
    5515:	48 89 d8             	mov    %rbx,%rax
    5518:	48 89 c7             	mov    %rax,%rdi
    551b:	e8 10 ce ff ff       	call   2330 <_Unwind_Resume@plt>
    5520:	48 81 c4 b8 00 00 00 	add    $0xb8,%rsp
    5527:	5b                   	pop    %rbx
    5528:	41 5c                	pop    %r12
    552a:	41 5d                	pop    %r13
    552c:	41 5e                	pop    %r14
    552e:	41 5f                	pop    %r15
    5530:	5d                   	pop    %rbp
    5531:	c3                   	ret

0000000000005532 <_Z41__static_initialization_and_destruction_0ii>:
    5532:	55                   	push   %rbp
    5533:	48 89 e5             	mov    %rsp,%rbp
    5536:	48 83 ec 10          	sub    $0x10,%rsp
    553a:	89 7d fc             	mov    %edi,-0x4(%rbp)
    553d:	89 75 f8             	mov    %esi,-0x8(%rbp)
    5540:	83 7d fc 01          	cmpl   $0x1,-0x4(%rbp)
    5544:	75 3b                	jne    5581 <_Z41__static_initialization_and_destruction_0ii+0x4f>
    5546:	81 7d f8 ff ff 00 00 	cmpl   $0xffff,-0x8(%rbp)
    554d:	75 32                	jne    5581 <_Z41__static_initialization_and_destruction_0ii+0x4f>
    554f:	48 8d 05 9c 6e 00 00 	lea    0x6e9c(%rip),%rax        # c3f2 <_ZStL8__ioinit>
    5556:	48 89 c7             	mov    %rax,%rdi
    5559:	e8 92 cd ff ff       	call   22f0 <_ZNSt8ios_base4InitC1Ev@plt>
    555e:	48 8d 05 43 6c 00 00 	lea    0x6c43(%rip),%rax        # c1a8 <__dso_handle>
    5565:	48 89 c2             	mov    %rax,%rdx
    5568:	48 8d 05 83 6e 00 00 	lea    0x6e83(%rip),%rax        # c3f2 <_ZStL8__ioinit>
    556f:	48 89 c6             	mov    %rax,%rsi
    5572:	48 8b 05 4f 6a 00 00 	mov    0x6a4f(%rip),%rax        # bfc8 <_ZNSt8ios_base4InitD1Ev@GLIBCXX_3.4>
    5579:	48 89 c7             	mov    %rax,%rdi
    557c:	e8 1f cc ff ff       	call   21a0 <__cxa_atexit@plt>
    5581:	90                   	nop
    5582:	c9                   	leave
    5583:	c3                   	ret

0000000000005584 <_GLOBAL__sub_I__ZN3vkh27checkValidationLayerSupportEv>:
    5584:	55                   	push   %rbp
    5585:	48 89 e5             	mov    %rsp,%rbp
    5588:	be ff ff 00 00       	mov    $0xffff,%esi
    558d:	bf 01 00 00 00       	mov    $0x1,%edi
    5592:	e8 9b ff ff ff       	call   5532 <_Z41__static_initialization_and_destruction_0ii>
    5597:	5d                   	pop    %rbp
    5598:	c3                   	ret

0000000000005599 <_ZSt23__is_constant_evaluatedv>:
  // This can be used without checking if the compiler supports the feature.
  // The macro _GLIBCXX_HAVE_IS_CONSTANT_EVALUATED can be used to check if
  // the compiler support is present to make this function work as expected.
  _GLIBCXX_CONSTEXPR inline bool
  __is_constant_evaluated() _GLIBCXX_NOEXCEPT
  {
    5599:	55                   	push   %rbp
    559a:	48 89 e5             	mov    %rsp,%rbp
#if __cpp_if_consteval >= 202106L
# define _GLIBCXX_HAVE_IS_CONSTANT_EVALUATED 1
    if consteval { return true; } else { return false; }
#elif __cplusplus >= 201103L && __has_builtin(__builtin_is_constant_evaluated)
# define _GLIBCXX_HAVE_IS_CONSTANT_EVALUATED 1
    return __builtin_is_constant_evaluated();
    559d:	b8 00 00 00 00       	mov    $0x0,%eax
#else
    return false;
#endif
  }
    55a2:	5d                   	pop    %rbp
    55a3:	c3                   	ret

00000000000055a4 <_ZdlPvS_>:
_GLIBCXX_NODISCARD inline void* operator new[](std::size_t, void* __p) _GLIBCXX_USE_NOEXCEPT
{ return __p; }

// Default placement versions of operator delete.
inline void operator delete  (void*, void*) _GLIBCXX_USE_NOEXCEPT { }
    55a4:	55                   	push   %rbp
    55a5:	48 89 e5             	mov    %rsp,%rbp
    55a8:	48 89 7d f8          	mov    %rdi,-0x8(%rbp)
    55ac:	48 89 75 f0          	mov    %rsi,-0x10(%rbp)
    55b0:	90                   	nop
    55b1:	5d                   	pop    %rbp
    55b2:	c3                   	ret

00000000000055b3 <_ZNSt11char_traitsIcE6lengthEPKc>:
#endif
	return __builtin_memcmp(__s1, __s2, __n);
      }

      static _GLIBCXX17_CONSTEXPR size_t
      length(const char_type* __s)
    55b3:	55                   	push   %rbp
    55b4:	48 89 e5             	mov    %rsp,%rbp
    55b7:	48 83 ec 10          	sub    $0x10,%rsp
    55bb:	48 89 7d f8          	mov    %rdi,-0x8(%rbp)
      {
#if __cplusplus >= 201703L
	if (std::__is_constant_evaluated())
    55bf:	e8 d5 ff ff ff       	call   5599 <_ZSt23__is_constant_evaluatedv>
    55c4:	84 c0                	test   %al,%al
    55c6:	74 0e                	je     55d6 <_ZNSt11char_traitsIcE6lengthEPKc+0x23>
	  return __gnu_cxx::char_traits<char_type>::length(__s);
    55c8:	48 8b 45 f8          	mov    -0x8(%rbp),%rax
    55cc:	48 89 c7             	mov    %rax,%rdi
    55cf:	e8 12 00 00 00       	call   55e6 <_ZN9__gnu_cxx11char_traitsIcE6lengthEPKc>
    55d4:	eb 0d                	jmp    55e3 <_ZNSt11char_traitsIcE6lengthEPKc+0x30>
#endif
	return __builtin_strlen(__s);
    55d6:	48 8b 45 f8          	mov    -0x8(%rbp),%rax
    55da:	48 89 c7             	mov    %rax,%rdi
    55dd:	e8 ce ca ff ff       	call   20b0 <strlen@plt>
    55e2:	90                   	nop
      }
    55e3:	c9                   	leave
    55e4:	c3                   	ret
    55e5:	90                   	nop

00000000000055e6 <_ZN9__gnu_cxx11char_traitsIcE6lengthEPKc>:
    char_traits<_CharT>::
    55e6:	55                   	push   %rbp
    55e7:	48 89 e5             	mov    %rsp,%rbp
    55ea:	48 83 ec 20          	sub    $0x20,%rsp
    55ee:	48 89 7d e8          	mov    %rdi,-0x18(%rbp)
      std::size_t __i = 0;
    55f2:	48 c7 45 f8 00 00 00 	movq   $0x0,-0x8(%rbp)
    55f9:	00 
      while (!eq(__p[__i], char_type()))
    55fa:	eb 05                	jmp    5601 <_ZN9__gnu_cxx11char_traitsIcE6lengthEPKc+0x1b>
        ++__i;
    55fc:	48 83 45 f8 01       	addq   $0x1,-0x8(%rbp)
      while (!eq(__p[__i], char_type()))
    5601:	c6 45 f7 00          	movb   $0x0,-0x9(%rbp)
    5605:	48 8b 55 e8          	mov    -0x18(%rbp),%rdx
    5609:	48 8b 45 f8          	mov    -0x8(%rbp),%rax
    560d:	48 01 c2             	add    %rax,%rdx
    5610:	48 8d 45 f7          	lea    -0x9(%rbp),%rax
    5614:	48 89 c6             	mov    %rax,%rsi
    5617:	48 89 d7             	mov    %rdx,%rdi
    561a:	e8 36 02 00 00       	call   5855 <_ZN9__gnu_cxx11char_traitsIcE2eqERKcS3_>
    561f:	83 f0 01             	xor    $0x1,%eax
    5622:	84 c0                	test   %al,%al
    5624:	75 d6                	jne    55fc <_ZN9__gnu_cxx11char_traitsIcE6lengthEPKc+0x16>
      return __i;
    5626:	48 8b 45 f8          	mov    -0x8(%rbp),%rax
    }
    562a:	c9                   	leave
    562b:	c3                   	ret

000000000000562c <_ZNSt7__cxx1112basic_stringIcSt11char_traitsIcESaIcEE12_Alloc_hiderD1Ev>:
      basic_string(__sv_wrapper __svw, const _Alloc& __a)
      : basic_string(__svw._M_sv.data(), __svw._M_sv.size(), __a) { }
#endif

      // Use empty-base optimization: http://www.cantrip.org/emptyopt.html
      struct _Alloc_hider : allocator_type // TODO check __is_final
    562c:	55                   	push   %rbp
    562d:	48 89 e5             	mov    %rsp,%rbp
    5630:	48 83 ec 10          	sub    $0x10,%rsp
    5634:	48 89 7d f8          	mov    %rdi,-0x8(%rbp)
    5638:	48 8b 45 f8          	mov    -0x8(%rbp),%rax
    563c:	48 89 c7             	mov    %rax,%rdi
    563f:	e8 ec c9 ff ff       	call   2030 <_ZNSaIcED2Ev@plt>
    5644:	90                   	nop
    5645:	c9                   	leave
    5646:	c3                   	ret
    5647:	90                   	nop

0000000000005648 <_ZNSt7__cxx1112basic_stringIcSt11char_traitsIcESaIcEEC1IS3_EEPKcRKS3_>:
      // _GLIBCXX_RESOLVE_LIB_DEFECTS
      // 3076. basic_string CTAD ambiguity
      template<typename = _RequireAllocator<_Alloc>>
#endif
      _GLIBCXX20_CONSTEXPR
      basic_string(const _CharT* __s, const _Alloc& __a = _Alloc())
    5648:	55                   	push   %rbp
    5649:	48 89 e5             	mov    %rsp,%rbp
    564c:	53                   	push   %rbx
    564d:	48 83 ec 38          	sub    $0x38,%rsp
    5651:	48 89 7d d8          	mov    %rdi,-0x28(%rbp)
    5655:	48 89 75 d0          	mov    %rsi,-0x30(%rbp)
    5659:	48 89 55 c8          	mov    %rdx,-0x38(%rbp)
      : _M_dataplus(_M_local_data(), __a)
    565d:	48 8b 5d d8          	mov    -0x28(%rbp),%rbx
    5661:	48 8b 45 d8          	mov    -0x28(%rbp),%rax
    5665:	48 89 c7             	mov    %rax,%rdi
    5668:	e8 e3 ca ff ff       	call   2150 <_ZNSt7__cxx1112basic_stringIcSt11char_traitsIcESaIcEE13_M_local_dataEv@plt>
    566d:	48 89 c1             	mov    %rax,%rcx
    5670:	48 8b 45 c8          	mov    -0x38(%rbp),%rax
    5674:	48 89 c2             	mov    %rax,%rdx
    5677:	48 89 ce             	mov    %rcx,%rsi
    567a:	48 89 df             	mov    %rbx,%rdi
    567d:	e8 8e cb ff ff       	call   2210 <_ZNSt7__cxx1112basic_stringIcSt11char_traitsIcESaIcEE12_Alloc_hiderC1EPcRKS3_@plt>
      {
	// NB: Not required, but considered best practice.
	if (__s == 0)
    5682:	48 83 7d d0 00       	cmpq   $0x0,-0x30(%rbp)
    5687:	75 0f                	jne    5698 <_ZNSt7__cxx1112basic_stringIcSt11char_traitsIcESaIcEEC1IS3_EEPKcRKS3_+0x50>
	  std::__throw_logic_error(__N("basic_string: "
    5689:	48 8d 05 08 2e 00 00 	lea    0x2e08(%rip),%rax        # 8498 <_ZL47VK_FORMAT_FEATURE_2_BOX_FILTER_SAMPLED_BIT_QCOM+0x28>
    5690:	48 89 c7             	mov    %rax,%rdi
    5693:	e8 78 ca ff ff       	call   2110 <_ZSt19__throw_logic_errorPKc@plt>
				       "construction from null is not valid"));
	const _CharT* __end = __s + traits_type::length(__s);
    5698:	48 8b 45 d0          	mov    -0x30(%rbp),%rax
    569c:	48 89 c7             	mov    %rax,%rdi
    569f:	e8 0f ff ff ff       	call   55b3 <_ZNSt11char_traitsIcE6lengthEPKc>
    56a4:	48 8b 55 d0          	mov    -0x30(%rbp),%rdx
    56a8:	48 01 d0             	add    %rdx,%rax
    56ab:	48 89 45 e8          	mov    %rax,-0x18(%rbp)
	_M_construct(__s, __end, forward_iterator_tag());
    56af:	48 8b 55 e8          	mov    -0x18(%rbp),%rdx
    56b3:	48 8b 4d d0          	mov    -0x30(%rbp),%rcx
    56b7:	48 8b 45 d8          	mov    -0x28(%rbp),%rax
    56bb:	48 89 ce             	mov    %rcx,%rsi
    56be:	48 89 c7             	mov    %rax,%rdi
    56c1:	e8 f4 01 00 00       	call   58ba <_ZNSt7__cxx1112basic_stringIcSt11char_traitsIcESaIcEE12_M_constructIPKcEEvT_S8_St20forward_iterator_tag>
      }
    56c6:	eb 1a                	jmp    56e2 <_ZNSt7__cxx1112basic_stringIcSt11char_traitsIcESaIcEEC1IS3_EEPKcRKS3_+0x9a>
    56c8:	48 89 c3             	mov    %rax,%rbx
    56cb:	48 8b 45 d8          	mov    -0x28(%rbp),%rax
    56cf:	48 89 c7             	mov    %rax,%rdi
    56d2:	e8 55 ff ff ff       	call   562c <_ZNSt7__cxx1112basic_stringIcSt11char_traitsIcESaIcEE12_Alloc_hiderD1Ev>
    56d7:	48 89 d8             	mov    %rbx,%rax
    56da:	48 89 c7             	mov    %rax,%rdi
    56dd:	e8 4e cc ff ff       	call   2330 <_Unwind_Resume@plt>
    56e2:	48 8b 5d f8          	mov    -0x8(%rbp),%rbx
    56e6:	c9                   	leave
    56e7:	c3                   	ret

00000000000056e8 <_ZNSt6vectorINSt7__cxx1112basic_stringIcSt11char_traitsIcESaIcEEESaIS5_EEC1ESt16initializer_listIS5_ERKS6_>:
      vector(initializer_list<value_type> __l,
    56e8:	55                   	push   %rbp
    56e9:	48 89 e5             	mov    %rsp,%rbp
    56ec:	53                   	push   %rbx
    56ed:	48 83 ec 38          	sub    $0x38,%rsp
    56f1:	48 89 7d d8          	mov    %rdi,-0x28(%rbp)
    56f5:	48 89 f0             	mov    %rsi,%rax
    56f8:	48 89 d6             	mov    %rdx,%rsi
    56fb:	48 89 f2             	mov    %rsi,%rdx
    56fe:	48 89 45 c0          	mov    %rax,-0x40(%rbp)
    5702:	48 89 55 c8          	mov    %rdx,-0x38(%rbp)
    5706:	48 89 4d d0          	mov    %rcx,-0x30(%rbp)
      : _Base(__a)
    570a:	48 8b 45 d8          	mov    -0x28(%rbp),%rax
    570e:	48 8b 55 d0          	mov    -0x30(%rbp),%rdx
    5712:	48 89 d6             	mov    %rdx,%rsi
    5715:	48 89 c7             	mov    %rax,%rdi
    5718:	e8 85 02 00 00       	call   59a2 <_ZNSt12_Vector_baseINSt7__cxx1112basic_stringIcSt11char_traitsIcESaIcEEESaIS5_EEC1ERKS6_>
	_M_range_initialize(__l.begin(), __l.end(),
    571d:	48 8d 45 c0          	lea    -0x40(%rbp),%rax
    5721:	48 89 c7             	mov    %rax,%rdi
    5724:	e8 b1 02 00 00       	call   59da <_ZNKSt16initializer_listINSt7__cxx1112basic_stringIcSt11char_traitsIcESaIcEEEE3endEv>
    5729:	48 89 c3             	mov    %rax,%rbx
    572c:	48 8d 45 c0          	lea    -0x40(%rbp),%rax
    5730:	48 89 c7             	mov    %rax,%rdi
    5733:	e8 90 02 00 00       	call   59c8 <_ZNKSt16initializer_listINSt7__cxx1112basic_stringIcSt11char_traitsIcESaIcEEEE5beginEv>
    5738:	48 89 c1             	mov    %rax,%rcx
    573b:	48 8b 45 d8          	mov    -0x28(%rbp),%rax
    573f:	48 89 da             	mov    %rbx,%rdx
    5742:	48 89 ce             	mov    %rcx,%rsi
    5745:	48 89 c7             	mov    %rax,%rdi
    5748:	e8 f3 02 00 00       	call   5a40 <_ZNSt6vectorINSt7__cxx1112basic_stringIcSt11char_traitsIcESaIcEEESaIS5_EE19_M_range_initializeIPKS5_EEvT_SB_St20forward_iterator_tag>
      }
    574d:	eb 1a                	jmp    5769 <_ZNSt6vectorINSt7__cxx1112basic_stringIcSt11char_traitsIcESaIcEEESaIS5_EEC1ESt16initializer_listIS5_ERKS6_+0x81>
    574f:	48 89 c3             	mov    %rax,%rbx
    5752:	48 8b 45 d8          	mov    -0x28(%rbp),%rax
    5756:	48 89 c7             	mov    %rax,%rdi
    5759:	e8 7a df ff ff       	call   36d8 <_ZNSt12_Vector_baseINSt7__cxx1112basic_stringIcSt11char_traitsIcESaIcEEESaIS5_EED1Ev>
    575e:	48 89 d8             	mov    %rbx,%rax
    5761:	48 89 c7             	mov    %rax,%rdi
    5764:	e8 c7 cb ff ff       	call   2330 <_Unwind_Resume@plt>
    5769:	48 8b 5d f8          	mov    -0x8(%rbp),%rbx
    576d:	c9                   	leave
    576e:	c3                   	ret
    576f:	90                   	nop

0000000000005770 <_ZNKSt6vectorINSt7__cxx1112basic_stringIcSt11char_traitsIcESaIcEEESaIS5_EE5beginEv>:
      begin() const _GLIBCXX_NOEXCEPT
    5770:	55                   	push   %rbp
    5771:	48 89 e5             	mov    %rsp,%rbp
    5774:	48 83 ec 20          	sub    $0x20,%rsp
    5778:	48 89 7d e8          	mov    %rdi,-0x18(%rbp)
      { return const_iterator(this->_M_impl._M_start); }
    577c:	48 8b 55 e8          	mov    -0x18(%rbp),%rdx
    5780:	48 8d 45 f8          	lea    -0x8(%rbp),%rax
    5784:	48 89 d6             	mov    %rdx,%rsi
    5787:	48 89 c7             	mov    %rax,%rdi
    578a:	e8 61 03 00 00       	call   5af0 <_ZN9__gnu_cxx17__normal_iteratorIPKNSt7__cxx1112basic_stringIcSt11char_traitsIcESaIcEEESt6vectorIS6_SaIS6_EEEC1ERKS8_>
    578f:	48 8b 45 f8          	mov    -0x8(%rbp),%rax
    5793:	c9                   	leave
    5794:	c3                   	ret
    5795:	90                   	nop

0000000000005796 <_ZNKSt6vectorINSt7__cxx1112basic_stringIcSt11char_traitsIcESaIcEEESaIS5_EE3endEv>:
      end() const _GLIBCXX_NOEXCEPT
    5796:	55                   	push   %rbp
    5797:	48 89 e5             	mov    %rsp,%rbp
    579a:	48 83 ec 20          	sub    $0x20,%rsp
    579e:	48 89 7d e8          	mov    %rdi,-0x18(%rbp)
      { return const_iterator(this->_M_impl._M_finish); }
    57a2:	48 8b 45 e8          	mov    -0x18(%rbp),%rax
    57a6:	48 8d 50 08          	lea    0x8(%rax),%rdx
    57aa:	48 8d 45 f8          	lea    -0x8(%rbp),%rax
    57ae:	48 89 d6             	mov    %rdx,%rsi
    57b1:	48 89 c7             	mov    %rax,%rdi
    57b4:	e8 37 03 00 00       	call   5af0 <_ZN9__gnu_cxx17__normal_iteratorIPKNSt7__cxx1112basic_stringIcSt11char_traitsIcESaIcEEESt6vectorIS6_SaIS6_EEEC1ERKS8_>
    57b9:	48 8b 45 f8          	mov    -0x8(%rbp),%rax
    57bd:	c9                   	leave
    57be:	c3                   	ret

00000000000057bf <_ZN9__gnu_cxxneIPKNSt7__cxx1112basic_stringIcSt11char_traitsIcESaIcEEESt6vectorIS6_SaIS6_EEEEbRKNS_17__normal_iteratorIT_T0_EESH_>:
    operator!=(const __normal_iterator<_Iterator, _Container>& __lhs,
    57bf:	55                   	push   %rbp
    57c0:	48 89 e5             	mov    %rsp,%rbp
    57c3:	53                   	push   %rbx
    57c4:	48 83 ec 18          	sub    $0x18,%rsp
    57c8:	48 89 7d e8          	mov    %rdi,-0x18(%rbp)
    57cc:	48 89 75 e0          	mov    %rsi,-0x20(%rbp)
    { return __lhs.base() != __rhs.base(); }
    57d0:	48 8b 45 e8          	mov    -0x18(%rbp),%rax
    57d4:	48 89 c7             	mov    %rax,%rdi
    57d7:	e8 32 03 00 00       	call   5b0e <_ZNK9__gnu_cxx17__normal_iteratorIPKNSt7__cxx1112basic_stringIcSt11char_traitsIcESaIcEEESt6vectorIS6_SaIS6_EEE4baseEv>
    57dc:	48 8b 18             	mov    (%rax),%rbx
    57df:	48 8b 45 e0          	mov    -0x20(%rbp),%rax
    57e3:	48 89 c7             	mov    %rax,%rdi
    57e6:	e8 23 03 00 00       	call   5b0e <_ZNK9__gnu_cxx17__normal_iteratorIPKNSt7__cxx1112basic_stringIcSt11char_traitsIcESaIcEEESt6vectorIS6_SaIS6_EEE4baseEv>
    57eb:	48 8b 00             	mov    (%rax),%rax
    57ee:	48 39 c3             	cmp    %rax,%rbx
    57f1:	0f 95 c0             	setne  %al
    57f4:	48 8b 5d f8          	mov    -0x8(%rbp),%rbx
    57f8:	c9                   	leave
    57f9:	c3                   	ret

00000000000057fa <_ZN9__gnu_cxx17__normal_iteratorIPKNSt7__cxx1112basic_stringIcSt11char_traitsIcESaIcEEESt6vectorIS6_SaIS6_EEEppEv>:
      operator++() _GLIBCXX_NOEXCEPT
    57fa:	55                   	push   %rbp
    57fb:	48 89 e5             	mov    %rsp,%rbp
    57fe:	48 89 7d f8          	mov    %rdi,-0x8(%rbp)
	++_M_current;
    5802:	48 8b 45 f8          	mov    -0x8(%rbp),%rax
    5806:	48 8b 00             	mov    (%rax),%rax
    5809:	48 8d 50 20          	lea    0x20(%rax),%rdx
    580d:	48 8b 45 f8          	mov    -0x8(%rbp),%rax
    5811:	48 89 10             	mov    %rdx,(%rax)
	return *this;
    5814:	48 8b 45 f8          	mov    -0x8(%rbp),%rax
      }
    5818:	5d                   	pop    %rbp
    5819:	c3                   	ret

000000000000581a <_ZNK9__gnu_cxx17__normal_iteratorIPKNSt7__cxx1112basic_stringIcSt11char_traitsIcESaIcEEESt6vectorIS6_SaIS6_EEEdeEv>:
      operator*() const _GLIBCXX_NOEXCEPT
    581a:	55                   	push   %rbp
    581b:	48 89 e5             	mov    %rsp,%rbp
    581e:	48 89 7d f8          	mov    %rdi,-0x8(%rbp)
      { return *_M_current; }
    5822:	48 8b 45 f8          	mov    -0x8(%rbp),%rax
    5826:	48 8b 00             	mov    (%rax),%rax
    5829:	5d                   	pop    %rbp
    582a:	c3                   	ret

000000000000582b <_ZSteqIcSt11char_traitsIcESaIcEEbRKNSt7__cxx1112basic_stringIT_T0_T1_EEPKS5_>:
   *  @return  True if @a __lhs.compare(@a __rhs) == 0.  False otherwise.
   */
  template<typename _CharT, typename _Traits, typename _Alloc>
    _GLIBCXX20_CONSTEXPR
    inline bool
    operator==(const basic_string<_CharT, _Traits, _Alloc>& __lhs,
    582b:	55                   	push   %rbp
    582c:	48 89 e5             	mov    %rsp,%rbp
    582f:	48 83 ec 10          	sub    $0x10,%rsp
    5833:	48 89 7d f8          	mov    %rdi,-0x8(%rbp)
    5837:	48 89 75 f0          	mov    %rsi,-0x10(%rbp)
	       const _CharT* __rhs)
    { return __lhs.compare(__rhs) == 0; }
    583b:	48 8b 55 f0          	mov    -0x10(%rbp),%rdx
    583f:	48 8b 45 f8          	mov    -0x8(%rbp),%rax
    5843:	48 89 d6             	mov    %rdx,%rsi
    5846:	48 89 c7             	mov    %rax,%rdi
    5849:	e8 f2 c7 ff ff       	call   2040 <_ZNKSt7__cxx1112basic_stringIcSt11char_traitsIcESaIcEE7compareEPKc@plt>
    584e:	85 c0                	test   %eax,%eax
    5850:	0f 94 c0             	sete   %al
    5853:	c9                   	leave
    5854:	c3                   	ret

0000000000005855 <_ZN9__gnu_cxx11char_traitsIcE2eqERKcS3_>:
      eq(const char_type& __c1, const char_type& __c2)
    5855:	55                   	push   %rbp
    5856:	48 89 e5             	mov    %rsp,%rbp
    5859:	48 89 7d f8          	mov    %rdi,-0x8(%rbp)
    585d:	48 89 75 f0          	mov    %rsi,-0x10(%rbp)
      { return __c1 == __c2; }
    5861:	48 8b 45 f8          	mov    -0x8(%rbp),%rax
    5865:	0f b6 10             	movzbl (%rax),%edx
    5868:	48 8b 45 f0          	mov    -0x10(%rbp),%rax
    586c:	0f b6 00             	movzbl (%rax),%eax
    586f:	38 c2                	cmp    %al,%dl
    5871:	0f 94 c0             	sete   %al
    5874:	5d                   	pop    %rbp
    5875:	c3                   	ret

0000000000005876 <_ZZNSt7__cxx1112basic_stringIcSt11char_traitsIcESaIcEE12_M_constructIPKcEEvT_S8_St20forward_iterator_tagEN6_GuardC1EPS4_>:

	// Check for out_of_range and length_error exceptions.
	struct _Guard
	{
	  _GLIBCXX20_CONSTEXPR
	  explicit _Guard(basic_string* __s) : _M_guarded(__s) { }
    5876:	55                   	push   %rbp
    5877:	48 89 e5             	mov    %rsp,%rbp
    587a:	48 89 7d f8          	mov    %rdi,-0x8(%rbp)
    587e:	48 89 75 f0          	mov    %rsi,-0x10(%rbp)
    5882:	48 8b 45 f8          	mov    -0x8(%rbp),%rax
    5886:	48 8b 55 f0          	mov    -0x10(%rbp),%rdx
    588a:	48 89 10             	mov    %rdx,(%rax)
    588d:	90                   	nop
    588e:	5d                   	pop    %rbp
    588f:	c3                   	ret

0000000000005890 <_ZZNSt7__cxx1112basic_stringIcSt11char_traitsIcESaIcEE12_M_constructIPKcEEvT_S8_St20forward_iterator_tagEN6_GuardD1Ev>:

	  _GLIBCXX20_CONSTEXPR
	  ~_Guard() { if (_M_guarded) _M_guarded->_M_dispose(); }
    5890:	55                   	push   %rbp
    5891:	48 89 e5             	mov    %rsp,%rbp
    5894:	48 83 ec 10          	sub    $0x10,%rsp
    5898:	48 89 7d f8          	mov    %rdi,-0x8(%rbp)
    589c:	48 8b 45 f8          	mov    -0x8(%rbp),%rax
    58a0:	48 8b 00             	mov    (%rax),%rax
    58a3:	48 85 c0             	test   %rax,%rax
    58a6:	74 0f                	je     58b7 <_ZZNSt7__cxx1112basic_stringIcSt11char_traitsIcESaIcEE12_M_constructIPKcEEvT_S8_St20forward_iterator_tagEN6_GuardD1Ev+0x27>
    58a8:	48 8b 45 f8          	mov    -0x8(%rbp),%rax
    58ac:	48 8b 00             	mov    (%rax),%rax
    58af:	48 89 c7             	mov    %rax,%rdi
    58b2:	e8 d9 c9 ff ff       	call   2290 <_ZNSt7__cxx1112basic_stringIcSt11char_traitsIcESaIcEE10_M_disposeEv@plt>
    58b7:	90                   	nop
    58b8:	c9                   	leave
    58b9:	c3                   	ret

00000000000058ba <_ZNSt7__cxx1112basic_stringIcSt11char_traitsIcESaIcEE12_M_constructIPKcEEvT_S8_St20forward_iterator_tag>:
      basic_string<_CharT, _Traits, _Alloc>::
    58ba:	55                   	push   %rbp
    58bb:	48 89 e5             	mov    %rsp,%rbp
    58be:	48 83 ec 40          	sub    $0x40,%rsp
    58c2:	48 89 7d d8          	mov    %rdi,-0x28(%rbp)
    58c6:	48 89 75 d0          	mov    %rsi,-0x30(%rbp)
    58ca:	48 89 55 c8          	mov    %rdx,-0x38(%rbp)
	size_type __dnew = static_cast<size_type>(std::distance(__beg, __end));
    58ce:	48 8b 55 c8          	mov    -0x38(%rbp),%rdx
    58d2:	48 8b 45 d0          	mov    -0x30(%rbp),%rax
    58d6:	48 89 d6             	mov    %rdx,%rsi
    58d9:	48 89 c7             	mov    %rax,%rdi
    58dc:	e8 3b 02 00 00       	call   5b1c <_ZSt8distanceIPKcENSt15iterator_traitsIT_E15difference_typeES3_S3_>
    58e1:	48 89 45 f0          	mov    %rax,-0x10(%rbp)
	if (__dnew > size_type(_S_local_capacity))
    58e5:	48 8b 45 f0          	mov    -0x10(%rbp),%rax
    58e9:	48 83 f8 0f          	cmp    $0xf,%rax
    58ed:	76 3f                	jbe    592e <_ZNSt7__cxx1112basic_stringIcSt11char_traitsIcESaIcEE12_M_constructIPKcEEvT_S8_St20forward_iterator_tag+0x74>
	    _M_data(_M_create(__dnew, size_type(0)));
    58ef:	48 8d 4d f0          	lea    -0x10(%rbp),%rcx
    58f3:	48 8b 45 d8          	mov    -0x28(%rbp),%rax
    58f7:	ba 00 00 00 00       	mov    $0x0,%edx
    58fc:	48 89 ce             	mov    %rcx,%rsi
    58ff:	48 89 c7             	mov    %rax,%rdi
    5902:	e8 49 ca ff ff       	call   2350 <_ZNSt7__cxx1112basic_stringIcSt11char_traitsIcESaIcEE9_M_createERmm@plt>
    5907:	48 89 c2             	mov    %rax,%rdx
    590a:	48 8b 45 d8          	mov    -0x28(%rbp),%rax
    590e:	48 89 d6             	mov    %rdx,%rsi
    5911:	48 89 c7             	mov    %rax,%rdi
    5914:	e8 67 c8 ff ff       	call   2180 <_ZNSt7__cxx1112basic_stringIcSt11char_traitsIcESaIcEE7_M_dataEPc@plt>
	    _M_capacity(__dnew);
    5919:	48 8b 55 f0          	mov    -0x10(%rbp),%rdx
    591d:	48 8b 45 d8          	mov    -0x28(%rbp),%rax
    5921:	48 89 d6             	mov    %rdx,%rsi
    5924:	48 89 c7             	mov    %rax,%rdi
    5927:	e8 34 ca ff ff       	call   2360 <_ZNSt7__cxx1112basic_stringIcSt11char_traitsIcESaIcEE11_M_capacityEm@plt>
    592c:	eb 15                	jmp    5943 <_ZNSt7__cxx1112basic_stringIcSt11char_traitsIcESaIcEE12_M_constructIPKcEEvT_S8_St20forward_iterator_tag+0x89>
    592e:	48 8b 45 d8          	mov    -0x28(%rbp),%rax
    5932:	48 89 45 f8          	mov    %rax,-0x8(%rbp)
	return _M_local_data();
    5936:	48 8b 45 f8          	mov    -0x8(%rbp),%rax
    593a:	48 89 c7             	mov    %rax,%rdi
    593d:	e8 0e c8 ff ff       	call   2150 <_ZNSt7__cxx1112basic_stringIcSt11char_traitsIcESaIcEE13_M_local_dataEv@plt>
    5942:	90                   	nop

	  basic_string* _M_guarded;
	} __guard(this);
    5943:	48 8b 55 d8          	mov    -0x28(%rbp),%rdx
    5947:	48 8d 45 e8          	lea    -0x18(%rbp),%rax
    594b:	48 89 d6             	mov    %rdx,%rsi
    594e:	48 89 c7             	mov    %rax,%rdi
    5951:	e8 20 ff ff ff       	call   5876 <_ZZNSt7__cxx1112basic_stringIcSt11char_traitsIcESaIcEE12_M_constructIPKcEEvT_S8_St20forward_iterator_tagEN6_GuardC1EPS4_>

	this->_S_copy_chars(_M_data(), __beg, __end);
    5956:	48 8b 45 d8          	mov    -0x28(%rbp),%rax
    595a:	48 89 c7             	mov    %rax,%rdi
    595d:	e8 ce c8 ff ff       	call   2230 <_ZNKSt7__cxx1112basic_stringIcSt11char_traitsIcESaIcEE7_M_dataEv@plt>
    5962:	48 89 c1             	mov    %rax,%rcx
    5965:	48 8b 55 c8          	mov    -0x38(%rbp),%rdx
    5969:	48 8b 45 d0          	mov    -0x30(%rbp),%rax
    596d:	48 89 c6             	mov    %rax,%rsi
    5970:	48 89 cf             	mov    %rcx,%rdi
    5973:	e8 c8 c8 ff ff       	call   2240 <_ZNSt7__cxx1112basic_stringIcSt11char_traitsIcESaIcEE13_S_copy_charsEPcPKcS7_@plt>

	__guard._M_guarded = 0;
    5978:	48 c7 45 e8 00 00 00 	movq   $0x0,-0x18(%rbp)
    597f:	00 

	_M_set_length(__dnew);
    5980:	48 8b 55 f0          	mov    -0x10(%rbp),%rdx
    5984:	48 8b 45 d8          	mov    -0x28(%rbp),%rax
    5988:	48 89 d6             	mov    %rdx,%rsi
    598b:	48 89 c7             	mov    %rax,%rdi
    598e:	e8 6d c7 ff ff       	call   2100 <_ZNSt7__cxx1112basic_stringIcSt11char_traitsIcESaIcEE13_M_set_lengthEm@plt>
      }
    5993:	48 8d 45 e8          	lea    -0x18(%rbp),%rax
    5997:	48 89 c7             	mov    %rax,%rdi
    599a:	e8 f1 fe ff ff       	call   5890 <_ZZNSt7__cxx1112basic_stringIcSt11char_traitsIcESaIcEE12_M_constructIPKcEEvT_S8_St20forward_iterator_tagEN6_GuardD1Ev>
    599f:	c9                   	leave
    59a0:	c3                   	ret
    59a1:	90                   	nop

00000000000059a2 <_ZNSt12_Vector_baseINSt7__cxx1112basic_stringIcSt11char_traitsIcESaIcEEESaIS5_EEC1ERKS6_>:
      _Vector_base(const allocator_type& __a) _GLIBCXX_NOEXCEPT
    59a2:	55                   	push   %rbp
    59a3:	48 89 e5             	mov    %rsp,%rbp
    59a6:	48 83 ec 10          	sub    $0x10,%rsp
    59aa:	48 89 7d f8          	mov    %rdi,-0x8(%rbp)
    59ae:	48 89 75 f0          	mov    %rsi,-0x10(%rbp)
      : _M_impl(__a) { }
    59b2:	48 8b 45 f8          	mov    -0x8(%rbp),%rax
    59b6:	48 8b 55 f0          	mov    -0x10(%rbp),%rdx
    59ba:	48 89 d6             	mov    %rdx,%rsi
    59bd:	48 89 c7             	mov    %rax,%rdi
    59c0:	e8 5b e6 ff ff       	call   4020 <_ZNSt12_Vector_baseINSt7__cxx1112basic_stringIcSt11char_traitsIcESaIcEEESaIS5_EE12_Vector_implC1ERKS6_>
    59c5:	90                   	nop
    59c6:	c9                   	leave
    59c7:	c3                   	ret

00000000000059c8 <_ZNKSt16initializer_listINSt7__cxx1112basic_stringIcSt11char_traitsIcESaIcEEEE5beginEv>:
      constexpr size_type
      size() const noexcept { return _M_len; }

      // First element.
      constexpr const_iterator
      begin() const noexcept { return _M_array; }
    59c8:	55                   	push   %rbp
    59c9:	48 89 e5             	mov    %rsp,%rbp
    59cc:	48 89 7d f8          	mov    %rdi,-0x8(%rbp)
    59d0:	48 8b 45 f8          	mov    -0x8(%rbp),%rax
    59d4:	48 8b 00             	mov    (%rax),%rax
    59d7:	5d                   	pop    %rbp
    59d8:	c3                   	ret
    59d9:	90                   	nop

00000000000059da <_ZNKSt16initializer_listINSt7__cxx1112basic_stringIcSt11char_traitsIcESaIcEEEE3endEv>:

      // One past the last element.
      constexpr const_iterator
      end() const noexcept { return begin() + size(); }
    59da:	55                   	push   %rbp
    59db:	48 89 e5             	mov    %rsp,%rbp
    59de:	53                   	push   %rbx
    59df:	48 83 ec 18          	sub    $0x18,%rsp
    59e3:	48 89 7d e8          	mov    %rdi,-0x18(%rbp)
    59e7:	48 8b 45 e8          	mov    -0x18(%rbp),%rax
    59eb:	48 89 c7             	mov    %rax,%rdi
    59ee:	e8 d5 ff ff ff       	call   59c8 <_ZNKSt16initializer_listINSt7__cxx1112basic_stringIcSt11char_traitsIcESaIcEEEE5beginEv>
    59f3:	48 89 c3             	mov    %rax,%rbx
    59f6:	48 8b 45 e8          	mov    -0x18(%rbp),%rax
    59fa:	48 89 c7             	mov    %rax,%rdi
    59fd:	e8 4c 01 00 00       	call   5b4e <_ZNKSt16initializer_listINSt7__cxx1112basic_stringIcSt11char_traitsIcESaIcEEEE4sizeEv>
    5a02:	48 c1 e0 05          	shl    $0x5,%rax
    5a06:	48 01 d8             	add    %rbx,%rax
    5a09:	48 8b 5d f8          	mov    -0x8(%rbp),%rbx
    5a0d:	c9                   	leave
    5a0e:	c3                   	ret

0000000000005a0f <_ZSt8distanceIPKNSt7__cxx1112basic_stringIcSt11char_traitsIcESaIcEEEENSt15iterator_traitsIT_E15difference_typeES9_S9_>:
  */
  template<typename _InputIterator>
    _GLIBCXX_NODISCARD
    inline _GLIBCXX17_CONSTEXPR
    typename iterator_traits<_InputIterator>::difference_type
    distance(_InputIterator __first, _InputIterator __last)
    5a0f:	55                   	push   %rbp
    5a10:	48 89 e5             	mov    %rsp,%rbp
    5a13:	48 83 ec 10          	sub    $0x10,%rsp
    5a17:	48 89 7d f8          	mov    %rdi,-0x8(%rbp)
    5a1b:	48 89 75 f0          	mov    %rsi,-0x10(%rbp)
    {
      // concept requirements -- taken care of in __distance
      return std::__distance(__first, __last,
			     std::__iterator_category(__first));
    5a1f:	48 8d 45 f8          	lea    -0x8(%rbp),%rax
    5a23:	48 89 c7             	mov    %rax,%rdi
    5a26:	e8 35 01 00 00       	call   5b60 <_ZSt19__iterator_categoryIPKNSt7__cxx1112basic_stringIcSt11char_traitsIcESaIcEEEENSt15iterator_traitsIT_E17iterator_categoryERKS9_>
      return std::__distance(__first, __last,
    5a2b:	48 8b 45 f8          	mov    -0x8(%rbp),%rax
    5a2f:	48 8b 55 f0          	mov    -0x10(%rbp),%rdx
    5a33:	48 89 d6             	mov    %rdx,%rsi
    5a36:	48 89 c7             	mov    %rax,%rdi
    5a39:	e8 2d 01 00 00       	call   5b6b <_ZSt10__distanceIPKNSt7__cxx1112basic_stringIcSt11char_traitsIcESaIcEEEENSt15iterator_traitsIT_E15difference_typeES9_S9_St26random_access_iterator_tag>
    }
    5a3e:	c9                   	leave
    5a3f:	c3                   	ret

0000000000005a40 <_ZNSt6vectorINSt7__cxx1112basic_stringIcSt11char_traitsIcESaIcEEESaIS5_EE19_M_range_initializeIPKS5_EEvT_SB_St20forward_iterator_tag>:
	_M_range_initialize(_ForwardIterator __first, _ForwardIterator __last,
    5a40:	55                   	push   %rbp
    5a41:	48 89 e5             	mov    %rsp,%rbp
    5a44:	53                   	push   %rbx
    5a45:	48 83 ec 38          	sub    $0x38,%rsp
    5a49:	48 89 7d d8          	mov    %rdi,-0x28(%rbp)
    5a4d:	48 89 75 d0          	mov    %rsi,-0x30(%rbp)
    5a51:	48 89 55 c8          	mov    %rdx,-0x38(%rbp)
	  const size_type __n = std::distance(__first, __last);
    5a55:	48 8b 55 c8          	mov    -0x38(%rbp),%rdx
    5a59:	48 8b 45 d0          	mov    -0x30(%rbp),%rax
    5a5d:	48 89 d6             	mov    %rdx,%rsi
    5a60:	48 89 c7             	mov    %rax,%rdi
    5a63:	e8 a7 ff ff ff       	call   5a0f <_ZSt8distanceIPKNSt7__cxx1112basic_stringIcSt11char_traitsIcESaIcEEEENSt15iterator_traitsIT_E15difference_typeES9_S9_>
    5a68:	48 89 45 e8          	mov    %rax,-0x18(%rbp)
	    = this->_M_allocate(_S_check_init_len(__n, _M_get_Tp_allocator()));
    5a6c:	48 8b 5d d8          	mov    -0x28(%rbp),%rbx
    5a70:	48 8b 45 d8          	mov    -0x28(%rbp),%rax
    5a74:	48 89 c7             	mov    %rax,%rdi
    5a77:	e8 e8 e0 ff ff       	call   3b64 <_ZNSt12_Vector_baseINSt7__cxx1112basic_stringIcSt11char_traitsIcESaIcEEESaIS5_EE19_M_get_Tp_allocatorEv>
    5a7c:	48 89 c2             	mov    %rax,%rdx
    5a7f:	48 8b 45 e8          	mov    -0x18(%rbp),%rax
    5a83:	48 89 d6             	mov    %rdx,%rsi
    5a86:	48 89 c7             	mov    %rax,%rdi
    5a89:	e8 d7 df ff ff       	call   3a65 <_ZNSt6vectorINSt7__cxx1112basic_stringIcSt11char_traitsIcESaIcEEESaIS5_EE17_S_check_init_lenEmRKS6_>
    5a8e:	48 89 c6             	mov    %rax,%rsi
    5a91:	48 89 df             	mov    %rbx,%rdi
    5a94:	e8 0f ea ff ff       	call   44a8 <_ZNSt12_Vector_baseINSt7__cxx1112basic_stringIcSt11char_traitsIcESaIcEEESaIS5_EE11_M_allocateEm>
    5a99:	48 8b 55 d8          	mov    -0x28(%rbp),%rdx
    5a9d:	48 89 02             	mov    %rax,(%rdx)
	  this->_M_impl._M_end_of_storage = this->_M_impl._M_start + __n;
    5aa0:	48 8b 45 d8          	mov    -0x28(%rbp),%rax
    5aa4:	48 8b 00             	mov    (%rax),%rax
    5aa7:	48 8b 55 e8          	mov    -0x18(%rbp),%rdx
    5aab:	48 c1 e2 05          	shl    $0x5,%rdx
    5aaf:	48 01 c2             	add    %rax,%rdx
    5ab2:	48 8b 45 d8          	mov    -0x28(%rbp),%rax
    5ab6:	48 89 50 10          	mov    %rdx,0x10(%rax)
					_M_get_Tp_allocator());
    5aba:	48 8b 45 d8          	mov    -0x28(%rbp),%rax
    5abe:	48 89 c7             	mov    %rax,%rdi
    5ac1:	e8 9e e0 ff ff       	call   3b64 <_ZNSt12_Vector_baseINSt7__cxx1112basic_stringIcSt11char_traitsIcESaIcEEESaIS5_EE19_M_get_Tp_allocatorEv>
    5ac6:	48 89 c1             	mov    %rax,%rcx
	    std::__uninitialized_copy_a(__first, __last,
    5ac9:	48 8b 45 d8          	mov    -0x28(%rbp),%rax
    5acd:	48 8b 10             	mov    (%rax),%rdx
    5ad0:	48 8b 75 c8          	mov    -0x38(%rbp),%rsi
    5ad4:	48 8b 45 d0          	mov    -0x30(%rbp),%rax
    5ad8:	48 89 c7             	mov    %rax,%rdi
    5adb:	e8 a5 00 00 00       	call   5b85 <_ZSt22__uninitialized_copy_aIPKNSt7__cxx1112basic_stringIcSt11char_traitsIcESaIcEEEPS5_S5_ET0_T_SA_S9_RSaIT1_E>
	  this->_M_impl._M_finish =
    5ae0:	48 8b 55 d8          	mov    -0x28(%rbp),%rdx
    5ae4:	48 89 42 08          	mov    %rax,0x8(%rdx)
	}
    5ae8:	90                   	nop
    5ae9:	48 8b 5d f8          	mov    -0x8(%rbp),%rbx
    5aed:	c9                   	leave
    5aee:	c3                   	ret
    5aef:	90                   	nop

0000000000005af0 <_ZN9__gnu_cxx17__normal_iteratorIPKNSt7__cxx1112basic_stringIcSt11char_traitsIcESaIcEEESt6vectorIS6_SaIS6_EEEC1ERKS8_>:
      __normal_iterator(const _Iterator& __i) _GLIBCXX_NOEXCEPT
    5af0:	55                   	push   %rbp
    5af1:	48 89 e5             	mov    %rsp,%rbp
    5af4:	48 89 7d f8          	mov    %rdi,-0x8(%rbp)
    5af8:	48 89 75 f0          	mov    %rsi,-0x10(%rbp)
      : _M_current(__i) { }
    5afc:	48 8b 45 f0          	mov    -0x10(%rbp),%rax
    5b00:	48 8b 10             	mov    (%rax),%rdx
    5b03:	48 8b 45 f8          	mov    -0x8(%rbp),%rax
    5b07:	48 89 10             	mov    %rdx,(%rax)
    5b0a:	90                   	nop
    5b0b:	5d                   	pop    %rbp
    5b0c:	c3                   	ret
    5b0d:	90                   	nop

0000000000005b0e <_ZNK9__gnu_cxx17__normal_iteratorIPKNSt7__cxx1112basic_stringIcSt11char_traitsIcESaIcEEESt6vectorIS6_SaIS6_EEE4baseEv>:
      base() const _GLIBCXX_NOEXCEPT
    5b0e:	55                   	push   %rbp
    5b0f:	48 89 e5             	mov    %rsp,%rbp
    5b12:	48 89 7d f8          	mov    %rdi,-0x8(%rbp)
      { return _M_current; }
    5b16:	48 8b 45 f8          	mov    -0x8(%rbp),%rax
    5b1a:	5d                   	pop    %rbp
    5b1b:	c3                   	ret

0000000000005b1c <_ZSt8distanceIPKcENSt15iterator_traitsIT_E15difference_typeES3_S3_>:
    distance(_InputIterator __first, _InputIterator __last)
    5b1c:	55                   	push   %rbp
    5b1d:	48 89 e5             	mov    %rsp,%rbp
    5b20:	48 83 ec 10          	sub    $0x10,%rsp
    5b24:	48 89 7d f8          	mov    %rdi,-0x8(%rbp)
    5b28:	48 89 75 f0          	mov    %rsi,-0x10(%rbp)
			     std::__iterator_category(__first));
    5b2c:	48 8d 45 f8          	lea    -0x8(%rbp),%rax
    5b30:	48 89 c7             	mov    %rax,%rdi
    5b33:	e8 7e 00 00 00       	call   5bb6 <_ZSt19__iterator_categoryIPKcENSt15iterator_traitsIT_E17iterator_categoryERKS3_>
      return std::__distance(__first, __last,
    5b38:	48 8b 45 f8          	mov    -0x8(%rbp),%rax
    5b3c:	48 8b 55 f0          	mov    -0x10(%rbp),%rdx
    5b40:	48 89 d6             	mov    %rdx,%rsi
    5b43:	48 89 c7             	mov    %rax,%rdi
    5b46:	e8 76 00 00 00       	call   5bc1 <_ZSt10__distanceIPKcENSt15iterator_traitsIT_E15difference_typeES3_S3_St26random_access_iterator_tag>
    }
    5b4b:	c9                   	leave
    5b4c:	c3                   	ret
    5b4d:	90                   	nop

0000000000005b4e <_ZNKSt16initializer_listINSt7__cxx1112basic_stringIcSt11char_traitsIcESaIcEEEE4sizeEv>:
      size() const noexcept { return _M_len; }
    5b4e:	55                   	push   %rbp
    5b4f:	48 89 e5             	mov    %rsp,%rbp
    5b52:	48 89 7d f8          	mov    %rdi,-0x8(%rbp)
    5b56:	48 8b 45 f8          	mov    -0x8(%rbp),%rax
    5b5a:	48 8b 40 08          	mov    0x8(%rax),%rax
    5b5e:	5d                   	pop    %rbp
    5b5f:	c3                   	ret

0000000000005b60 <_ZSt19__iterator_categoryIPKNSt7__cxx1112basic_stringIcSt11char_traitsIcESaIcEEEENSt15iterator_traitsIT_E17iterator_categoryERKS9_>:
    __iterator_category(const _Iter&)
    5b60:	55                   	push   %rbp
    5b61:	48 89 e5             	mov    %rsp,%rbp
    5b64:	48 89 7d f8          	mov    %rdi,-0x8(%rbp)
    { return typename iterator_traits<_Iter>::iterator_category(); }
    5b68:	90                   	nop
    5b69:	5d                   	pop    %rbp
    5b6a:	c3                   	ret

0000000000005b6b <_ZSt10__distanceIPKNSt7__cxx1112basic_stringIcSt11char_traitsIcESaIcEEEENSt15iterator_traitsIT_E15difference_typeES9_S9_St26random_access_iterator_tag>:
    __distance(_RandomAccessIterator __first, _RandomAccessIterator __last,
    5b6b:	55                   	push   %rbp
    5b6c:	48 89 e5             	mov    %rsp,%rbp
    5b6f:	48 89 7d f8          	mov    %rdi,-0x8(%rbp)
    5b73:	48 89 75 f0          	mov    %rsi,-0x10(%rbp)
      return __last - __first;
    5b77:	48 8b 45 f0          	mov    -0x10(%rbp),%rax
    5b7b:	48 2b 45 f8          	sub    -0x8(%rbp),%rax
    5b7f:	48 c1 f8 05          	sar    $0x5,%rax
    }
    5b83:	5d                   	pop    %rbp
    5b84:	c3                   	ret

0000000000005b85 <_ZSt22__uninitialized_copy_aIPKNSt7__cxx1112basic_stringIcSt11char_traitsIcESaIcEEEPS5_S5_ET0_T_SA_S9_RSaIT1_E>:
    __uninitialized_copy_a(_InputIterator __first, _InputIterator __last,
    5b85:	55                   	push   %rbp
    5b86:	48 89 e5             	mov    %rsp,%rbp
    5b89:	48 83 ec 20          	sub    $0x20,%rsp
    5b8d:	48 89 7d f8          	mov    %rdi,-0x8(%rbp)
    5b91:	48 89 75 f0          	mov    %rsi,-0x10(%rbp)
    5b95:	48 89 55 e8          	mov    %rdx,-0x18(%rbp)
    5b99:	48 89 4d e0          	mov    %rcx,-0x20(%rbp)
      return std::uninitialized_copy(__first, __last, __result);
    5b9d:	48 8b 55 e8          	mov    -0x18(%rbp),%rdx
    5ba1:	48 8b 4d f0          	mov    -0x10(%rbp),%rcx
    5ba5:	48 8b 45 f8          	mov    -0x8(%rbp),%rax
    5ba9:	48 89 ce             	mov    %rcx,%rsi
    5bac:	48 89 c7             	mov    %rax,%rdi
    5baf:	e8 23 00 00 00       	call   5bd7 <_ZSt18uninitialized_copyIPKNSt7__cxx1112basic_stringIcSt11char_traitsIcESaIcEEEPS5_ET0_T_SA_S9_>
    }
    5bb4:	c9                   	leave
    5bb5:	c3                   	ret

0000000000005bb6 <_ZSt19__iterator_categoryIPKcENSt15iterator_traitsIT_E17iterator_categoryERKS3_>:
    __iterator_category(const _Iter&)
    5bb6:	55                   	push   %rbp
    5bb7:	48 89 e5             	mov    %rsp,%rbp
    5bba:	48 89 7d f8          	mov    %rdi,-0x8(%rbp)
    { return typename iterator_traits<_Iter>::iterator_category(); }
    5bbe:	90                   	nop
    5bbf:	5d                   	pop    %rbp
    5bc0:	c3                   	ret

0000000000005bc1 <_ZSt10__distanceIPKcENSt15iterator_traitsIT_E15difference_typeES3_S3_St26random_access_iterator_tag>:
    __distance(_RandomAccessIterator __first, _RandomAccessIterator __last,
    5bc1:	55                   	push   %rbp
    5bc2:	48 89 e5             	mov    %rsp,%rbp
    5bc5:	48 89 7d f8          	mov    %rdi,-0x8(%rbp)
    5bc9:	48 89 75 f0          	mov    %rsi,-0x10(%rbp)
      return __last - __first;
    5bcd:	48 8b 45 f0          	mov    -0x10(%rbp),%rax
    5bd1:	48 2b 45 f8          	sub    -0x8(%rbp),%rax
    }
    5bd5:	5d                   	pop    %rbp
    5bd6:	c3                   	ret

0000000000005bd7 <_ZSt18uninitialized_copyIPKNSt7__cxx1112basic_stringIcSt11char_traitsIcESaIcEEEPS5_ET0_T_SA_S9_>:
    uninitialized_copy(_InputIterator __first, _InputIterator __last,
    5bd7:	55                   	push   %rbp
    5bd8:	48 89 e5             	mov    %rsp,%rbp
    5bdb:	48 83 ec 30          	sub    $0x30,%rsp
    5bdf:	48 89 7d e8          	mov    %rdi,-0x18(%rbp)
    5be3:	48 89 75 e0          	mov    %rsi,-0x20(%rbp)
    5be7:	48 89 55 d8          	mov    %rdx,-0x28(%rbp)
      const bool __can_memmove = __is_trivial(_ValueType1);
    5beb:	c6 45 ff 00          	movb   $0x0,-0x1(%rbp)
      const bool __assignable
    5bef:	c6 45 fe 00          	movb   $0x0,-0x2(%rbp)
	__uninit_copy(__first, __last, __result);
    5bf3:	48 8b 55 d8          	mov    -0x28(%rbp),%rdx
    5bf7:	48 8b 4d e0          	mov    -0x20(%rbp),%rcx
    5bfb:	48 8b 45 e8          	mov    -0x18(%rbp),%rax
    5bff:	48 89 ce             	mov    %rcx,%rsi
    5c02:	48 89 c7             	mov    %rax,%rdi
    5c05:	e8 02 00 00 00       	call   5c0c <_ZNSt20__uninitialized_copyILb0EE13__uninit_copyIPKNSt7__cxx1112basic_stringIcSt11char_traitsIcESaIcEEEPS7_EET0_T_SC_SB_>
    }
    5c0a:	c9                   	leave
    5c0b:	c3                   	ret

0000000000005c0c <_ZNSt20__uninitialized_copyILb0EE13__uninit_copyIPKNSt7__cxx1112basic_stringIcSt11char_traitsIcESaIcEEEPS7_EET0_T_SC_SB_>:
        __uninit_copy(_InputIterator __first, _InputIterator __last,
    5c0c:	55                   	push   %rbp
    5c0d:	48 89 e5             	mov    %rsp,%rbp
    5c10:	48 83 ec 20          	sub    $0x20,%rsp
    5c14:	48 89 7d f8          	mov    %rdi,-0x8(%rbp)
    5c18:	48 89 75 f0          	mov    %rsi,-0x10(%rbp)
    5c1c:	48 89 55 e8          	mov    %rdx,-0x18(%rbp)
	{ return std::__do_uninit_copy(__first, __last, __result); }
    5c20:	48 8b 55 e8          	mov    -0x18(%rbp),%rdx
    5c24:	48 8b 4d f0          	mov    -0x10(%rbp),%rcx
    5c28:	48 8b 45 f8          	mov    -0x8(%rbp),%rax
    5c2c:	48 89 ce             	mov    %rcx,%rsi
    5c2f:	48 89 c7             	mov    %rax,%rdi
    5c32:	e8 02 00 00 00       	call   5c39 <_ZSt16__do_uninit_copyIPKNSt7__cxx1112basic_stringIcSt11char_traitsIcESaIcEEEPS5_ET0_T_SA_S9_>
    5c37:	c9                   	leave
    5c38:	c3                   	ret

0000000000005c39 <_ZSt16__do_uninit_copyIPKNSt7__cxx1112basic_stringIcSt11char_traitsIcESaIcEEEPS5_ET0_T_SA_S9_>:
    __do_uninit_copy(_InputIterator __first, _InputIterator __last,
    5c39:	55                   	push   %rbp
    5c3a:	48 89 e5             	mov    %rsp,%rbp
    5c3d:	53                   	push   %rbx
    5c3e:	48 83 ec 38          	sub    $0x38,%rsp
    5c42:	48 89 7d d8          	mov    %rdi,-0x28(%rbp)
    5c46:	48 89 75 d0          	mov    %rsi,-0x30(%rbp)
    5c4a:	48 89 55 c8          	mov    %rdx,-0x38(%rbp)
      _ForwardIterator __cur = __result;
    5c4e:	48 8b 45 c8          	mov    -0x38(%rbp),%rax
    5c52:	48 89 45 e8          	mov    %rax,-0x18(%rbp)
	  for (; __first != __last; ++__first, (void)++__cur)
    5c56:	eb 28                	jmp    5c80 <_ZSt16__do_uninit_copyIPKNSt7__cxx1112basic_stringIcSt11char_traitsIcESaIcEEEPS5_ET0_T_SA_S9_+0x47>
	    std::_Construct(std::__addressof(*__cur), *__first);
    5c58:	48 8b 45 e8          	mov    -0x18(%rbp),%rax
    5c5c:	48 89 c7             	mov    %rax,%rdi
    5c5f:	e8 7f eb ff ff       	call   47e3 <_ZSt11__addressofINSt7__cxx1112basic_stringIcSt11char_traitsIcESaIcEEEEPT_RS6_>
    5c64:	48 89 c2             	mov    %rax,%rdx
    5c67:	48 8b 45 d8          	mov    -0x28(%rbp),%rax
    5c6b:	48 89 c6             	mov    %rax,%rsi
    5c6e:	48 89 d7             	mov    %rdx,%rdi
    5c71:	e8 53 00 00 00       	call   5cc9 <_ZSt10_ConstructINSt7__cxx1112basic_stringIcSt11char_traitsIcESaIcEEEJRKS5_EEvPT_DpOT0_>
	  for (; __first != __last; ++__first, (void)++__cur)
    5c76:	48 83 45 d8 20       	addq   $0x20,-0x28(%rbp)
    5c7b:	48 83 45 e8 20       	addq   $0x20,-0x18(%rbp)
    5c80:	48 8b 45 d8          	mov    -0x28(%rbp),%rax
    5c84:	48 3b 45 d0          	cmp    -0x30(%rbp),%rax
    5c88:	75 ce                	jne    5c58 <_ZSt16__do_uninit_copyIPKNSt7__cxx1112basic_stringIcSt11char_traitsIcESaIcEEEPS5_ET0_T_SA_S9_+0x1f>
	  return __cur;
    5c8a:	48 8b 45 e8          	mov    -0x18(%rbp),%rax
    5c8e:	eb 33                	jmp    5cc3 <_ZSt16__do_uninit_copyIPKNSt7__cxx1112basic_stringIcSt11char_traitsIcESaIcEEEPS5_ET0_T_SA_S9_+0x8a>
      __catch(...)
    5c90:	48 89 c7             	mov    %rax,%rdi
    5c93:	e8 f8 c3 ff ff       	call   2090 <__cxa_begin_catch@plt>
	  std::_Destroy(__result, __cur);
    5c98:	48 8b 55 e8          	mov    -0x18(%rbp),%rdx
    5c9c:	48 8b 45 c8          	mov    -0x38(%rbp),%rax
    5ca0:	48 89 d6             	mov    %rdx,%rsi
    5ca3:	48 89 c7             	mov    %rax,%rdi
    5ca6:	e8 26 e4 ff ff       	call   40d1 <_ZSt8_DestroyIPNSt7__cxx1112basic_stringIcSt11char_traitsIcESaIcEEEEvT_S7_>
	  __throw_exception_again;
    5cab:	e8 20 c6 ff ff       	call   22d0 <__cxa_rethrow@plt>
      __catch(...)
    5cb0:	48 89 c3             	mov    %rax,%rbx
    5cb3:	e8 58 c6 ff ff       	call   2310 <__cxa_end_catch@plt>
    5cb8:	48 89 d8             	mov    %rbx,%rax
    5cbb:	48 89 c7             	mov    %rax,%rdi
    5cbe:	e8 6d c6 ff ff       	call   2330 <_Unwind_Resume@plt>
    }
    5cc3:	48 8b 5d f8          	mov    -0x8(%rbp),%rbx
    5cc7:	c9                   	leave
    5cc8:	c3                   	ret

0000000000005cc9 <_ZSt10_ConstructINSt7__cxx1112basic_stringIcSt11char_traitsIcESaIcEEEJRKS5_EEvPT_DpOT0_>:
    _Construct(_Tp* __p, _Args&&... __args)
    5cc9:	55                   	push   %rbp
    5cca:	48 89 e5             	mov    %rsp,%rbp
    5ccd:	41 56                	push   %r14
    5ccf:	41 55                	push   %r13
    5cd1:	41 54                	push   %r12
    5cd3:	53                   	push   %rbx
    5cd4:	48 83 ec 10          	sub    $0x10,%rsp
    5cd8:	48 89 7d d8          	mov    %rdi,-0x28(%rbp)
    5cdc:	48 89 75 d0          	mov    %rsi,-0x30(%rbp)
      ::new((void*)__p) _Tp(std::forward<_Args>(__args)...);
    5ce0:	48 8b 5d d8          	mov    -0x28(%rbp),%rbx
    5ce4:	48 89 de             	mov    %rbx,%rsi
    5ce7:	bf 20 00 00 00       	mov    $0x20,%edi
    5cec:	e8 0e d7 ff ff       	call   33ff <_ZnwmPv>
    5cf1:	49 89 c4             	mov    %rax,%r12
    5cf4:	41 be 01 00 00 00    	mov    $0x1,%r14d
    5cfa:	48 8b 45 d0          	mov    -0x30(%rbp),%rax
    5cfe:	48 89 c7             	mov    %rax,%rdi
    5d01:	e8 38 00 00 00       	call   5d3e <_ZSt7forwardIRKNSt7__cxx1112basic_stringIcSt11char_traitsIcESaIcEEEEOT_RNSt16remove_referenceIS8_E4typeE>
    5d06:	48 89 c6             	mov    %rax,%rsi
    5d09:	4c 89 e7             	mov    %r12,%rdi
    5d0c:	e8 8f c3 ff ff       	call   20a0 <_ZNSt7__cxx1112basic_stringIcSt11char_traitsIcESaIcEEC1ERKS4_@plt>
    }
    5d11:	eb 1e                	jmp    5d31 <_ZSt10_ConstructINSt7__cxx1112basic_stringIcSt11char_traitsIcESaIcEEEJRKS5_EEvPT_DpOT0_+0x68>
      ::new((void*)__p) _Tp(std::forward<_Args>(__args)...);
    5d13:	49 89 c5             	mov    %rax,%r13
    5d16:	45 84 f6             	test   %r14b,%r14b
    5d19:	74 0b                	je     5d26 <_ZSt10_ConstructINSt7__cxx1112basic_stringIcSt11char_traitsIcESaIcEEEJRKS5_EEvPT_DpOT0_+0x5d>
    5d1b:	48 89 de             	mov    %rbx,%rsi
    5d1e:	4c 89 e7             	mov    %r12,%rdi
    5d21:	e8 7e f8 ff ff       	call   55a4 <_ZdlPvS_>
    5d26:	4c 89 e8             	mov    %r13,%rax
    5d29:	48 89 c7             	mov    %rax,%rdi
    5d2c:	e8 ff c5 ff ff       	call   2330 <_Unwind_Resume@plt>
    }
    5d31:	48 83 c4 10          	add    $0x10,%rsp
    5d35:	5b                   	pop    %rbx
    5d36:	41 5c                	pop    %r12
    5d38:	41 5d                	pop    %r13
    5d3a:	41 5e                	pop    %r14
    5d3c:	5d                   	pop    %rbp
    5d3d:	c3                   	ret

0000000000005d3e <_ZSt7forwardIRKNSt7__cxx1112basic_stringIcSt11char_traitsIcESaIcEEEEOT_RNSt16remove_referenceIS8_E4typeE>:
   *  This function is used to implement "perfect forwarding".
   */
  template<typename _Tp>
    _GLIBCXX_NODISCARD
    constexpr _Tp&&
    forward(typename std::remove_reference<_Tp>::type& __t) noexcept
    5d3e:	55                   	push   %rbp
    5d3f:	48 89 e5             	mov    %rsp,%rbp
    5d42:	48 89 7d f8          	mov    %rdi,-0x8(%rbp)
    { return static_cast<_Tp&&>(__t); }
    5d46:	48 8b 45 f8          	mov    -0x8(%rbp),%rax
    5d4a:	5d                   	pop    %rbp
    5d4b:	c3                   	ret

Disassembly of section .fini:

0000000000005d4c <_fini>:
    5d4c:	48 83 ec 08          	sub    $0x8,%rsp
    5d50:	48 83 c4 08          	add    $0x8,%rsp
    5d54:	c3                   	ret
