
build/Application:     file format elf64-x86-64


Disassembly of section .init:

0000000000003000 <_init>:
    3000:	48 83 ec 08          	sub    $0x8,%rsp
    3004:	48 8b 05 ad 7f 01 00 	mov    0x17fad(%rip),%rax        # 1afb8 <__gmon_start__@Base>
    300b:	48 85 c0             	test   %rax,%rax
    300e:	74 02                	je     3012 <_init+0x12>
    3010:	ff d0                	call   *%rax
    3012:	48 83 c4 08          	add    $0x8,%rsp
    3016:	c3                   	ret

Disassembly of section .plt:

0000000000003020 <_ZNKSt7__cxx1112basic_stringIcSt11char_traitsIcESaIcEE7compareERKS4_@plt-0x10>:
    3020:	ff 35 ca 7f 01 00    	push   0x17fca(%rip)        # 1aff0 <_GLOBAL_OFFSET_TABLE_+0x8>
    3026:	ff 25 cc 7f 01 00    	jmp    *0x17fcc(%rip)        # 1aff8 <_GLOBAL_OFFSET_TABLE_+0x10>
    302c:	0f 1f 40 00          	nopl   0x0(%rax)

0000000000003030 <_ZNKSt7__cxx1112basic_stringIcSt11char_traitsIcESaIcEE7compareERKS4_@plt>:
    3030:	ff 25 ca 7f 01 00    	jmp    *0x17fca(%rip)        # 1b000 <_ZNKSt7__cxx1112basic_stringIcSt11char_traitsIcESaIcEE7compareERKS4_@GLIBCXX_3.4.21>
    3036:	68 00 00 00 00       	push   $0x0
    303b:	e9 e0 ff ff ff       	jmp    3020 <_init+0x20>

0000000000003040 <_ZSt29_Rb_tree_insert_and_rebalancebPSt18_Rb_tree_node_baseS0_RS_@plt>:
    3040:	ff 25 c2 7f 01 00    	jmp    *0x17fc2(%rip)        # 1b008 <_ZSt29_Rb_tree_insert_and_rebalancebPSt18_Rb_tree_node_baseS0_RS_@GLIBCXX_3.4>
    3046:	68 01 00 00 00       	push   $0x1
    304b:	e9 d0 ff ff ff       	jmp    3020 <_init+0x20>

0000000000003050 <_ZNSaIcED2Ev@plt>:
    3050:	ff 25 ba 7f 01 00    	jmp    *0x17fba(%rip)        # 1b010 <_ZNSaIcED2Ev@GLIBCXX_3.4>
    3056:	68 02 00 00 00       	push   $0x2
    305b:	e9 c0 ff ff ff       	jmp    3020 <_init+0x20>

0000000000003060 <vkDeviceWaitIdle@plt>:
    3060:	ff 25 b2 7f 01 00    	jmp    *0x17fb2(%rip)        # 1b018 <vkDeviceWaitIdle@Base>
    3066:	68 03 00 00 00       	push   $0x3
    306b:	e9 b0 ff ff ff       	jmp    3020 <_init+0x20>

0000000000003070 <vkDestroySwapchainKHR@plt>:
    3070:	ff 25 aa 7f 01 00    	jmp    *0x17faa(%rip)        # 1b020 <vkDestroySwapchainKHR@Base>
    3076:	68 04 00 00 00       	push   $0x4
    307b:	e9 a0 ff ff ff       	jmp    3020 <_init+0x20>

0000000000003080 <glfwDestroyWindow@plt>:
    3080:	ff 25 a2 7f 01 00    	jmp    *0x17fa2(%rip)        # 1b028 <glfwDestroyWindow@Base>
    3086:	68 05 00 00 00       	push   $0x5
    308b:	e9 90 ff ff ff       	jmp    3020 <_init+0x20>

0000000000003090 <_ZSt17__throw_bad_allocv@plt>:
    3090:	ff 25 9a 7f 01 00    	jmp    *0x17f9a(%rip)        # 1b030 <_ZSt17__throw_bad_allocv@GLIBCXX_3.4>
    3096:	68 06 00 00 00       	push   $0x6
    309b:	e9 80 ff ff ff       	jmp    3020 <_init+0x20>

00000000000030a0 <_ZNSt13runtime_errorC1EPKc@plt>:
    30a0:	ff 25 92 7f 01 00    	jmp    *0x17f92(%rip)        # 1b038 <_ZNSt13runtime_errorC1EPKc@GLIBCXX_3.4.21>
    30a6:	68 07 00 00 00       	push   $0x7
    30ab:	e9 70 ff ff ff       	jmp    3020 <_init+0x20>

00000000000030b0 <vkGetPhysicalDeviceProperties@plt>:
    30b0:	ff 25 8a 7f 01 00    	jmp    *0x17f8a(%rip)        # 1b040 <vkGetPhysicalDeviceProperties@Base>
    30b6:	68 08 00 00 00       	push   $0x8
    30bb:	e9 60 ff ff ff       	jmp    3020 <_init+0x20>

00000000000030c0 <__cxa_begin_catch@plt>:
    30c0:	ff 25 82 7f 01 00    	jmp    *0x17f82(%rip)        # 1b048 <__cxa_begin_catch@CXXABI_1.3>
    30c6:	68 09 00 00 00       	push   $0x9
    30cb:	e9 50 ff ff ff       	jmp    3020 <_init+0x20>

00000000000030d0 <strlen@plt>:
    30d0:	ff 25 7a 7f 01 00    	jmp    *0x17f7a(%rip)        # 1b050 <strlen@GLIBC_2.2.5>
    30d6:	68 0a 00 00 00       	push   $0xa
    30db:	e9 40 ff ff ff       	jmp    3020 <_init+0x20>

00000000000030e0 <memcmp@plt>:
    30e0:	ff 25 72 7f 01 00    	jmp    *0x17f72(%rip)        # 1b058 <memcmp@GLIBC_2.2.5>
    30e6:	68 0b 00 00 00       	push   $0xb
    30eb:	e9 30 ff ff ff       	jmp    3020 <_init+0x20>

00000000000030f0 <__cxa_allocate_exception@plt>:
    30f0:	ff 25 6a 7f 01 00    	jmp    *0x17f6a(%rip)        # 1b060 <__cxa_allocate_exception@CXXABI_1.3>
    30f6:	68 0c 00 00 00       	push   $0xc
    30fb:	e9 20 ff ff ff       	jmp    3020 <_init+0x20>

0000000000003100 <_ZSt20__throw_length_errorPKc@plt>:
    3100:	ff 25 62 7f 01 00    	jmp    *0x17f62(%rip)        # 1b068 <_ZSt20__throw_length_errorPKc@GLIBCXX_3.4>
    3106:	68 0d 00 00 00       	push   $0xd
    310b:	e9 10 ff ff ff       	jmp    3020 <_init+0x20>

0000000000003110 <vkEnumeratePhysicalDevices@plt>:
    3110:	ff 25 5a 7f 01 00    	jmp    *0x17f5a(%rip)        # 1b070 <vkEnumeratePhysicalDevices@Base>
    3116:	68 0e 00 00 00       	push   $0xe
    311b:	e9 00 ff ff ff       	jmp    3020 <_init+0x20>

0000000000003120 <_ZNSt7__cxx1112basic_stringIcSt11char_traitsIcESaIcEEC1EOS4_@plt>:
    3120:	ff 25 52 7f 01 00    	jmp    *0x17f52(%rip)        # 1b078 <_ZNSt7__cxx1112basic_stringIcSt11char_traitsIcESaIcEEC1EOS4_@GLIBCXX_3.4.21>
    3126:	68 0f 00 00 00       	push   $0xf
    312b:	e9 f0 fe ff ff       	jmp    3020 <_init+0x20>

0000000000003130 <_ZNSt7__cxx1112basic_stringIcSt11char_traitsIcESaIcEED1Ev@plt>:
    3130:	ff 25 4a 7f 01 00    	jmp    *0x17f4a(%rip)        # 1b080 <_ZNSt7__cxx1112basic_stringIcSt11char_traitsIcESaIcEED1Ev@GLIBCXX_3.4.21>
    3136:	68 10 00 00 00       	push   $0x10
    313b:	e9 e0 fe ff ff       	jmp    3020 <_init+0x20>

0000000000003140 <_ZNSt7__cxx1112basic_stringIcSt11char_traitsIcESaIcEE13_M_set_lengthEm@plt>:
    3140:	ff 25 42 7f 01 00    	jmp    *0x17f42(%rip)        # 1b088 <_ZNSt7__cxx1112basic_stringIcSt11char_traitsIcESaIcEE13_M_set_lengthEm@GLIBCXX_3.4.21>
    3146:	68 11 00 00 00       	push   $0x11
    314b:	e9 d0 fe ff ff       	jmp    3020 <_init+0x20>

0000000000003150 <_ZSt18_Rb_tree_incrementPSt18_Rb_tree_node_base@plt>:
    3150:	ff 25 3a 7f 01 00    	jmp    *0x17f3a(%rip)        # 1b090 <_ZSt18_Rb_tree_incrementPSt18_Rb_tree_node_base@GLIBCXX_3.4>
    3156:	68 12 00 00 00       	push   $0x12
    315b:	e9 c0 fe ff ff       	jmp    3020 <_init+0x20>

0000000000003160 <_ZSt19__throw_logic_errorPKc@plt>:
    3160:	ff 25 32 7f 01 00    	jmp    *0x17f32(%rip)        # 1b098 <_ZSt19__throw_logic_errorPKc@GLIBCXX_3.4>
    3166:	68 13 00 00 00       	push   $0x13
    316b:	e9 b0 fe ff ff       	jmp    3020 <_init+0x20>

0000000000003170 <__cxa_free_exception@plt>:
    3170:	ff 25 2a 7f 01 00    	jmp    *0x17f2a(%rip)        # 1b0a0 <__cxa_free_exception@CXXABI_1.3>
    3176:	68 14 00 00 00       	push   $0x14
    317b:	e9 a0 fe ff ff       	jmp    3020 <_init+0x20>

0000000000003180 <vkGetPhysicalDeviceQueueFamilyProperties@plt>:
    3180:	ff 25 22 7f 01 00    	jmp    *0x17f22(%rip)        # 1b0a8 <vkGetPhysicalDeviceQueueFamilyProperties@Base>
    3186:	68 15 00 00 00       	push   $0x15
    318b:	e9 90 fe ff ff       	jmp    3020 <_init+0x20>

0000000000003190 <glfwGetRequiredInstanceExtensions@plt>:
    3190:	ff 25 1a 7f 01 00    	jmp    *0x17f1a(%rip)        # 1b0b0 <glfwGetRequiredInstanceExtensions@Base>
    3196:	68 16 00 00 00       	push   $0x16
    319b:	e9 80 fe ff ff       	jmp    3020 <_init+0x20>

00000000000031a0 <_ZSt28__throw_bad_array_new_lengthv@plt>:
    31a0:	ff 25 12 7f 01 00    	jmp    *0x17f12(%rip)        # 1b0b8 <_ZSt28__throw_bad_array_new_lengthv@GLIBCXX_3.4.29>
    31a6:	68 17 00 00 00       	push   $0x17
    31ab:	e9 70 fe ff ff       	jmp    3020 <_init+0x20>

00000000000031b0 <_ZNSt7__cxx1112basic_stringIcSt11char_traitsIcESaIcEE13_M_local_dataEv@plt>:
    31b0:	ff 25 0a 7f 01 00    	jmp    *0x17f0a(%rip)        # 1b0c0 <_ZNSt7__cxx1112basic_stringIcSt11char_traitsIcESaIcEE13_M_local_dataEv@GLIBCXX_3.4.21>
    31b6:	68 18 00 00 00       	push   $0x18
    31bb:	e9 60 fe ff ff       	jmp    3020 <_init+0x20>

00000000000031c0 <vkDestroyDevice@plt>:
    31c0:	ff 25 02 7f 01 00    	jmp    *0x17f02(%rip)        # 1b0c8 <vkDestroyDevice@Base>
    31c6:	68 19 00 00 00       	push   $0x19
    31cb:	e9 50 fe ff ff       	jmp    3020 <_init+0x20>

00000000000031d0 <vkEnumerateInstanceExtensionProperties@plt>:
    31d0:	ff 25 fa 7e 01 00    	jmp    *0x17efa(%rip)        # 1b0d0 <vkEnumerateInstanceExtensionProperties@Base>
    31d6:	68 1a 00 00 00       	push   $0x1a
    31db:	e9 40 fe ff ff       	jmp    3020 <_init+0x20>

00000000000031e0 <_ZNSt7__cxx1112basic_stringIcSt11char_traitsIcESaIcEE7_M_dataEPc@plt>:
    31e0:	ff 25 f2 7e 01 00    	jmp    *0x17ef2(%rip)        # 1b0d8 <_ZNSt7__cxx1112basic_stringIcSt11char_traitsIcESaIcEE7_M_dataEPc@GLIBCXX_3.4.21>
    31e6:	68 1b 00 00 00       	push   $0x1b
    31eb:	e9 30 fe ff ff       	jmp    3020 <_init+0x20>

00000000000031f0 <glfwWindowHint@plt>:
    31f0:	ff 25 ea 7e 01 00    	jmp    *0x17eea(%rip)        # 1b0e0 <glfwWindowHint@Base>
    31f6:	68 1c 00 00 00       	push   $0x1c
    31fb:	e9 20 fe ff ff       	jmp    3020 <_init+0x20>

0000000000003200 <vkGetPhysicalDeviceSurfaceCapabilitiesKHR@plt>:
    3200:	ff 25 e2 7e 01 00    	jmp    *0x17ee2(%rip)        # 1b0e8 <vkGetPhysicalDeviceSurfaceCapabilitiesKHR@Base>
    3206:	68 1d 00 00 00       	push   $0x1d
    320b:	e9 10 fe ff ff       	jmp    3020 <_init+0x20>

0000000000003210 <__cxa_atexit@plt>:
    3210:	ff 25 da 7e 01 00    	jmp    *0x17eda(%rip)        # 1b0f0 <__cxa_atexit@GLIBC_2.2.5>
    3216:	68 1e 00 00 00       	push   $0x1e
    321b:	e9 00 fe ff ff       	jmp    3020 <_init+0x20>

0000000000003220 <vkGetPhysicalDeviceProperties2@plt>:
    3220:	ff 25 d2 7e 01 00    	jmp    *0x17ed2(%rip)        # 1b0f8 <vkGetPhysicalDeviceProperties2@Base>
    3226:	68 1f 00 00 00       	push   $0x1f
    322b:	e9 f0 fd ff ff       	jmp    3020 <_init+0x20>

0000000000003230 <vkGetInstanceProcAddr@plt>:
    3230:	ff 25 ca 7e 01 00    	jmp    *0x17eca(%rip)        # 1b100 <vkGetInstanceProcAddr@Base>
    3236:	68 20 00 00 00       	push   $0x20
    323b:	e9 e0 fd ff ff       	jmp    3020 <_init+0x20>

0000000000003240 <glfwPollEvents@plt>:
    3240:	ff 25 c2 7e 01 00    	jmp    *0x17ec2(%rip)        # 1b108 <glfwPollEvents@Base>
    3246:	68 21 00 00 00       	push   $0x21
    324b:	e9 d0 fd ff ff       	jmp    3020 <_init+0x20>

0000000000003250 <_ZStlsISt11char_traitsIcEERSt13basic_ostreamIcT_ES5_PKc@plt>:
    3250:	ff 25 ba 7e 01 00    	jmp    *0x17eba(%rip)        # 1b110 <_ZStlsISt11char_traitsIcEERSt13basic_ostreamIcT_ES5_PKc@GLIBCXX_3.4>
    3256:	68 22 00 00 00       	push   $0x22
    325b:	e9 c0 fd ff ff       	jmp    3020 <_init+0x20>

0000000000003260 <_Znwm@plt>:
    3260:	ff 25 b2 7e 01 00    	jmp    *0x17eb2(%rip)        # 1b118 <_Znwm@GLIBCXX_3.4>
    3266:	68 23 00 00 00       	push   $0x23
    326b:	e9 b0 fd ff ff       	jmp    3020 <_init+0x20>

0000000000003270 <_ZdlPvm@plt>:
    3270:	ff 25 aa 7e 01 00    	jmp    *0x17eaa(%rip)        # 1b120 <_ZdlPvm@CXXABI_1.3.9>
    3276:	68 24 00 00 00       	push   $0x24
    327b:	e9 a0 fd ff ff       	jmp    3020 <_init+0x20>

0000000000003280 <vkDestroyInstance@plt>:
    3280:	ff 25 a2 7e 01 00    	jmp    *0x17ea2(%rip)        # 1b128 <vkDestroyInstance@Base>
    3286:	68 25 00 00 00       	push   $0x25
    328b:	e9 90 fd ff ff       	jmp    3020 <_init+0x20>

0000000000003290 <glfwTerminate@plt>:
    3290:	ff 25 9a 7e 01 00    	jmp    *0x17e9a(%rip)        # 1b130 <glfwTerminate@Base>
    3296:	68 26 00 00 00       	push   $0x26
    329b:	e9 80 fd ff ff       	jmp    3020 <_init+0x20>

00000000000032a0 <_ZSt18_Rb_tree_decrementPSt18_Rb_tree_node_base@plt>:
    32a0:	ff 25 92 7e 01 00    	jmp    *0x17e92(%rip)        # 1b138 <_ZSt18_Rb_tree_decrementPSt18_Rb_tree_node_base@GLIBCXX_3.4>
    32a6:	68 27 00 00 00       	push   $0x27
    32ab:	e9 70 fd ff ff       	jmp    3020 <_init+0x20>

00000000000032b0 <_ZNSolsEPFRSoS_E@plt>:
    32b0:	ff 25 8a 7e 01 00    	jmp    *0x17e8a(%rip)        # 1b140 <_ZNSolsEPFRSoS_E@GLIBCXX_3.4>
    32b6:	68 28 00 00 00       	push   $0x28
    32bb:	e9 60 fd ff ff       	jmp    3020 <_init+0x20>

00000000000032c0 <_ZNSt7__cxx1112basic_stringIcSt11char_traitsIcESaIcEE12_Alloc_hiderC1EPcRKS3_@plt>:
    32c0:	ff 25 82 7e 01 00    	jmp    *0x17e82(%rip)        # 1b148 <_ZNSt7__cxx1112basic_stringIcSt11char_traitsIcESaIcEE12_Alloc_hiderC1EPcRKS3_@GLIBCXX_3.4.21>
    32c6:	68 29 00 00 00       	push   $0x29
    32cb:	e9 50 fd ff ff       	jmp    3020 <_init+0x20>

00000000000032d0 <vkGetPhysicalDeviceSurfaceSupportKHR@plt>:
    32d0:	ff 25 7a 7e 01 00    	jmp    *0x17e7a(%rip)        # 1b150 <vkGetPhysicalDeviceSurfaceSupportKHR@Base>
    32d6:	68 2a 00 00 00       	push   $0x2a
    32db:	e9 40 fd ff ff       	jmp    3020 <_init+0x20>

00000000000032e0 <_ZNSaIcED1Ev@plt>:
    32e0:	ff 25 72 7e 01 00    	jmp    *0x17e72(%rip)        # 1b158 <_ZNSaIcED1Ev@GLIBCXX_3.4>
    32e6:	68 2b 00 00 00       	push   $0x2b
    32eb:	e9 30 fd ff ff       	jmp    3020 <_init+0x20>

00000000000032f0 <_ZNKSt7__cxx1112basic_stringIcSt11char_traitsIcESaIcEE7_M_dataEv@plt>:
    32f0:	ff 25 6a 7e 01 00    	jmp    *0x17e6a(%rip)        # 1b160 <_ZNKSt7__cxx1112basic_stringIcSt11char_traitsIcESaIcEE7_M_dataEv@GLIBCXX_3.4.21>
    32f6:	68 2c 00 00 00       	push   $0x2c
    32fb:	e9 20 fd ff ff       	jmp    3020 <_init+0x20>

0000000000003300 <_ZNSt7__cxx1112basic_stringIcSt11char_traitsIcESaIcEE13_S_copy_charsEPcPKcS7_@plt>:
    3300:	ff 25 62 7e 01 00    	jmp    *0x17e62(%rip)        # 1b168 <_ZNSt7__cxx1112basic_stringIcSt11char_traitsIcESaIcEE13_S_copy_charsEPcPKcS7_@GLIBCXX_3.4.21>
    3306:	68 2d 00 00 00       	push   $0x2d
    330b:	e9 10 fd ff ff       	jmp    3020 <_init+0x20>

0000000000003310 <vkEnumerateInstanceLayerProperties@plt>:
    3310:	ff 25 5a 7e 01 00    	jmp    *0x17e5a(%rip)        # 1b170 <vkEnumerateInstanceLayerProperties@Base>
    3316:	68 2e 00 00 00       	push   $0x2e
    331b:	e9 00 fd ff ff       	jmp    3020 <_init+0x20>

0000000000003320 <glfwInit@plt>:
    3320:	ff 25 52 7e 01 00    	jmp    *0x17e52(%rip)        # 1b178 <glfwInit@Base>
    3326:	68 2f 00 00 00       	push   $0x2f
    332b:	e9 f0 fc ff ff       	jmp    3020 <_init+0x20>

0000000000003330 <_ZStlsISt11char_traitsIcEERSt13basic_ostreamIcT_ES5_c@plt>:
    3330:	ff 25 4a 7e 01 00    	jmp    *0x17e4a(%rip)        # 1b180 <_ZStlsISt11char_traitsIcEERSt13basic_ostreamIcT_ES5_c@GLIBCXX_3.4>
    3336:	68 30 00 00 00       	push   $0x30
    333b:	e9 e0 fc ff ff       	jmp    3020 <_init+0x20>

0000000000003340 <vkCreateSwapchainKHR@plt>:
    3340:	ff 25 42 7e 01 00    	jmp    *0x17e42(%rip)        # 1b188 <vkCreateSwapchainKHR@Base>
    3346:	68 31 00 00 00       	push   $0x31
    334b:	e9 d0 fc ff ff       	jmp    3020 <_init+0x20>

0000000000003350 <vkCreateInstance@plt>:
    3350:	ff 25 3a 7e 01 00    	jmp    *0x17e3a(%rip)        # 1b190 <vkCreateInstance@Base>
    3356:	68 32 00 00 00       	push   $0x32
    335b:	e9 c0 fc ff ff       	jmp    3020 <_init+0x20>

0000000000003360 <_ZNSt7__cxx1112basic_stringIcSt11char_traitsIcESaIcEE10_M_disposeEv@plt>:
    3360:	ff 25 32 7e 01 00    	jmp    *0x17e32(%rip)        # 1b198 <_ZNSt7__cxx1112basic_stringIcSt11char_traitsIcESaIcEE10_M_disposeEv@GLIBCXX_3.4.21>
    3366:	68 33 00 00 00       	push   $0x33
    336b:	e9 b0 fc ff ff       	jmp    3020 <_init+0x20>

0000000000003370 <vkGetPhysicalDeviceSurfaceFormatsKHR@plt>:
    3370:	ff 25 2a 7e 01 00    	jmp    *0x17e2a(%rip)        # 1b1a0 <vkGetPhysicalDeviceSurfaceFormatsKHR@Base>
    3376:	68 34 00 00 00       	push   $0x34
    337b:	e9 a0 fc ff ff       	jmp    3020 <_init+0x20>

0000000000003380 <vkGetPhysicalDeviceSurfacePresentModesKHR@plt>:
    3380:	ff 25 22 7e 01 00    	jmp    *0x17e22(%rip)        # 1b1a8 <vkGetPhysicalDeviceSurfacePresentModesKHR@Base>
    3386:	68 35 00 00 00       	push   $0x35
    338b:	e9 90 fc ff ff       	jmp    3020 <_init+0x20>

0000000000003390 <_ZNSt6chrono3_V212steady_clock3nowEv@plt>:
    3390:	ff 25 1a 7e 01 00    	jmp    *0x17e1a(%rip)        # 1b1b0 <_ZNSt6chrono3_V212steady_clock3nowEv@GLIBCXX_3.4.19>
    3396:	68 36 00 00 00       	push   $0x36
    339b:	e9 80 fc ff ff       	jmp    3020 <_init+0x20>

00000000000033a0 <vkGetDeviceQueue@plt>:
    33a0:	ff 25 12 7e 01 00    	jmp    *0x17e12(%rip)        # 1b1b8 <vkGetDeviceQueue@Base>
    33a6:	68 37 00 00 00       	push   $0x37
    33ab:	e9 70 fc ff ff       	jmp    3020 <_init+0x20>

00000000000033b0 <_ZNSt7__cxx1112basic_stringIcSt11char_traitsIcESaIcEEaSEPKc@plt>:
    33b0:	ff 25 0a 7e 01 00    	jmp    *0x17e0a(%rip)        # 1b1c0 <_ZNSt7__cxx1112basic_stringIcSt11char_traitsIcESaIcEEaSEPKc@GLIBCXX_3.4.21>
    33b6:	68 38 00 00 00       	push   $0x38
    33bb:	e9 60 fc ff ff       	jmp    3020 <_init+0x20>

00000000000033c0 <vkEnumerateDeviceExtensionProperties@plt>:
    33c0:	ff 25 02 7e 01 00    	jmp    *0x17e02(%rip)        # 1b1c8 <vkEnumerateDeviceExtensionProperties@Base>
    33c6:	68 39 00 00 00       	push   $0x39
    33cb:	e9 50 fc ff ff       	jmp    3020 <_init+0x20>

00000000000033d0 <_ZNSt7__cxx1112basic_stringIcSt11char_traitsIcESaIcEEC1Ev@plt>:
    33d0:	ff 25 fa 7d 01 00    	jmp    *0x17dfa(%rip)        # 1b1d0 <_ZNSt7__cxx1112basic_stringIcSt11char_traitsIcESaIcEEC1Ev@GLIBCXX_3.4.21>
    33d6:	68 3a 00 00 00       	push   $0x3a
    33db:	e9 40 fc ff ff       	jmp    3020 <_init+0x20>

00000000000033e0 <__cxa_rethrow@plt>:
    33e0:	ff 25 f2 7d 01 00    	jmp    *0x17df2(%rip)        # 1b1d8 <__cxa_rethrow@CXXABI_1.3>
    33e6:	68 3b 00 00 00       	push   $0x3b
    33eb:	e9 30 fc ff ff       	jmp    3020 <_init+0x20>

00000000000033f0 <vkCreateDevice@plt>:
    33f0:	ff 25 ea 7d 01 00    	jmp    *0x17dea(%rip)        # 1b1e0 <vkCreateDevice@Base>
    33f6:	68 3c 00 00 00       	push   $0x3c
    33fb:	e9 20 fc ff ff       	jmp    3020 <_init+0x20>

0000000000003400 <_ZNSt8ios_base4InitC1Ev@plt>:
    3400:	ff 25 e2 7d 01 00    	jmp    *0x17de2(%rip)        # 1b1e8 <_ZNSt8ios_base4InitC1Ev@GLIBCXX_3.4>
    3406:	68 3d 00 00 00       	push   $0x3d
    340b:	e9 10 fc ff ff       	jmp    3020 <_init+0x20>

0000000000003410 <glfwCreateWindowSurface@plt>:
    3410:	ff 25 da 7d 01 00    	jmp    *0x17dda(%rip)        # 1b1f0 <glfwCreateWindowSurface@Base>
    3416:	68 3e 00 00 00       	push   $0x3e
    341b:	e9 00 fc ff ff       	jmp    3020 <_init+0x20>

0000000000003420 <glfwCreateWindow@plt>:
    3420:	ff 25 d2 7d 01 00    	jmp    *0x17dd2(%rip)        # 1b1f8 <glfwCreateWindow@Base>
    3426:	68 3f 00 00 00       	push   $0x3f
    342b:	e9 f0 fb ff ff       	jmp    3020 <_init+0x20>

0000000000003430 <memmove@plt>:
    3430:	ff 25 ca 7d 01 00    	jmp    *0x17dca(%rip)        # 1b200 <memmove@GLIBC_2.2.5>
    3436:	68 40 00 00 00       	push   $0x40
    343b:	e9 e0 fb ff ff       	jmp    3020 <_init+0x20>

0000000000003440 <__cxa_end_catch@plt>:
    3440:	ff 25 c2 7d 01 00    	jmp    *0x17dc2(%rip)        # 1b208 <__cxa_end_catch@CXXABI_1.3>
    3446:	68 41 00 00 00       	push   $0x41
    344b:	e9 d0 fb ff ff       	jmp    3020 <_init+0x20>

0000000000003450 <__cxa_throw@plt>:
    3450:	ff 25 ba 7d 01 00    	jmp    *0x17dba(%rip)        # 1b210 <__cxa_throw@CXXABI_1.3>
    3456:	68 42 00 00 00       	push   $0x42
    345b:	e9 c0 fb ff ff       	jmp    3020 <_init+0x20>

0000000000003460 <vkDestroySurfaceKHR@plt>:
    3460:	ff 25 b2 7d 01 00    	jmp    *0x17db2(%rip)        # 1b218 <vkDestroySurfaceKHR@Base>
    3466:	68 43 00 00 00       	push   $0x43
    346b:	e9 b0 fb ff ff       	jmp    3020 <_init+0x20>

0000000000003470 <_Unwind_Resume@plt>:
    3470:	ff 25 aa 7d 01 00    	jmp    *0x17daa(%rip)        # 1b220 <_Unwind_Resume@GCC_3.0>
    3476:	68 44 00 00 00       	push   $0x44
    347b:	e9 a0 fb ff ff       	jmp    3020 <_init+0x20>

0000000000003480 <_ZNSaIcEC1Ev@plt>:
    3480:	ff 25 a2 7d 01 00    	jmp    *0x17da2(%rip)        # 1b228 <_ZNSaIcEC1Ev@GLIBCXX_3.4>
    3486:	68 45 00 00 00       	push   $0x45
    348b:	e9 90 fb ff ff       	jmp    3020 <_init+0x20>

0000000000003490 <_ZNSt7__cxx1112basic_stringIcSt11char_traitsIcESaIcEE9_M_createERmm@plt>:
    3490:	ff 25 9a 7d 01 00    	jmp    *0x17d9a(%rip)        # 1b230 <_ZNSt7__cxx1112basic_stringIcSt11char_traitsIcESaIcEE9_M_createERmm@GLIBCXX_3.4.21>
    3496:	68 46 00 00 00       	push   $0x46
    349b:	e9 80 fb ff ff       	jmp    3020 <_init+0x20>

00000000000034a0 <_ZNSt9exceptionD2Ev@plt>:
    34a0:	ff 25 92 7d 01 00    	jmp    *0x17d92(%rip)        # 1b238 <_ZNSt9exceptionD2Ev@GLIBCXX_3.4>
    34a6:	68 47 00 00 00       	push   $0x47
    34ab:	e9 70 fb ff ff       	jmp    3020 <_init+0x20>

00000000000034b0 <glfwWindowShouldClose@plt>:
    34b0:	ff 25 8a 7d 01 00    	jmp    *0x17d8a(%rip)        # 1b240 <glfwWindowShouldClose@Base>
    34b6:	68 48 00 00 00       	push   $0x48
    34bb:	e9 60 fb ff ff       	jmp    3020 <_init+0x20>

00000000000034c0 <_ZNSolsEd@plt>:
    34c0:	ff 25 82 7d 01 00    	jmp    *0x17d82(%rip)        # 1b248 <_ZNSolsEd@GLIBCXX_3.4>
    34c6:	68 49 00 00 00       	push   $0x49
    34cb:	e9 50 fb ff ff       	jmp    3020 <_init+0x20>

00000000000034d0 <_ZNSt7__cxx1112basic_stringIcSt11char_traitsIcESaIcEE11_M_capacityEm@plt>:
    34d0:	ff 25 7a 7d 01 00    	jmp    *0x17d7a(%rip)        # 1b250 <_ZNSt7__cxx1112basic_stringIcSt11char_traitsIcESaIcEE11_M_capacityEm@GLIBCXX_3.4.21>
    34d6:	68 4a 00 00 00       	push   $0x4a
    34db:	e9 40 fb ff ff       	jmp    3020 <_init+0x20>

Disassembly of section .plt.got:

00000000000034e0 <__cxa_finalize@plt>:
    34e0:	ff 25 aa 7a 01 00    	jmp    *0x17aaa(%rip)        # 1af90 <__cxa_finalize@GLIBC_2.2.5>
    34e6:	66 90                	xchg   %ax,%ax

Disassembly of section .text:

00000000000034f0 <_start>:
    34f0:	31 ed                	xor    %ebp,%ebp
    34f2:	49 89 d1             	mov    %rdx,%r9
    34f5:	5e                   	pop    %rsi
    34f6:	48 89 e2             	mov    %rsp,%rdx
    34f9:	48 83 e4 f0          	and    $0xfffffffffffffff0,%rsp
    34fd:	50                   	push   %rax
    34fe:	54                   	push   %rsp
    34ff:	45 31 c0             	xor    %r8d,%r8d
    3502:	31 c9                	xor    %ecx,%ecx
    3504:	48 8d 3d 33 01 00 00 	lea    0x133(%rip),%rdi        # 363e <main>
    350b:	ff 15 8f 7a 01 00    	call   *0x17a8f(%rip)        # 1afa0 <__libc_start_main@GLIBC_2.34>
    3511:	f4                   	hlt
    3512:	66 2e 0f 1f 84 00 00 	cs nopw 0x0(%rax,%rax,1)
    3519:	00 00 00 
    351c:	0f 1f 40 00          	nopl   0x0(%rax)

0000000000003520 <deregister_tm_clones>:
    3520:	48 8d 3d 51 7d 01 00 	lea    0x17d51(%rip),%rdi        # 1b278 <__TMC_END__>
    3527:	48 8d 05 4a 7d 01 00 	lea    0x17d4a(%rip),%rax        # 1b278 <__TMC_END__>
    352e:	48 39 f8             	cmp    %rdi,%rax
    3531:	74 15                	je     3548 <deregister_tm_clones+0x28>
    3533:	48 8b 05 76 7a 01 00 	mov    0x17a76(%rip),%rax        # 1afb0 <_ITM_deregisterTMCloneTable@Base>
    353a:	48 85 c0             	test   %rax,%rax
    353d:	74 09                	je     3548 <deregister_tm_clones+0x28>
    353f:	ff e0                	jmp    *%rax
    3541:	0f 1f 80 00 00 00 00 	nopl   0x0(%rax)
    3548:	c3                   	ret
    3549:	0f 1f 80 00 00 00 00 	nopl   0x0(%rax)

0000000000003550 <register_tm_clones>:
    3550:	48 8d 3d 21 7d 01 00 	lea    0x17d21(%rip),%rdi        # 1b278 <__TMC_END__>
    3557:	48 8d 35 1a 7d 01 00 	lea    0x17d1a(%rip),%rsi        # 1b278 <__TMC_END__>
    355e:	48 29 fe             	sub    %rdi,%rsi
    3561:	48 89 f0             	mov    %rsi,%rax
    3564:	48 c1 ee 3f          	shr    $0x3f,%rsi
    3568:	48 c1 f8 03          	sar    $0x3,%rax
    356c:	48 01 c6             	add    %rax,%rsi
    356f:	48 d1 fe             	sar    %rsi
    3572:	74 14                	je     3588 <register_tm_clones+0x38>
    3574:	48 8b 05 45 7a 01 00 	mov    0x17a45(%rip),%rax        # 1afc0 <_ITM_registerTMCloneTable@Base>
    357b:	48 85 c0             	test   %rax,%rax
    357e:	74 08                	je     3588 <register_tm_clones+0x38>
    3580:	ff e0                	jmp    *%rax
    3582:	66 0f 1f 44 00 00    	nopw   0x0(%rax,%rax,1)
    3588:	c3                   	ret
    3589:	0f 1f 80 00 00 00 00 	nopl   0x0(%rax)

0000000000003590 <__do_global_dtors_aux>:
    3590:	f3 0f 1e fa          	endbr64
    3594:	80 3d 15 7f 01 00 00 	cmpb   $0x0,0x17f15(%rip)        # 1b4b0 <completed.0>
    359b:	75 2b                	jne    35c8 <__do_global_dtors_aux+0x38>
    359d:	55                   	push   %rbp
    359e:	48 83 3d ea 79 01 00 	cmpq   $0x0,0x179ea(%rip)        # 1af90 <__cxa_finalize@GLIBC_2.2.5>
    35a5:	00 
    35a6:	48 89 e5             	mov    %rsp,%rbp
    35a9:	74 0c                	je     35b7 <__do_global_dtors_aux+0x27>
    35ab:	48 8b 3d ae 7c 01 00 	mov    0x17cae(%rip),%rdi        # 1b260 <__dso_handle>
    35b2:	e8 29 ff ff ff       	call   34e0 <__cxa_finalize@plt>
    35b7:	e8 64 ff ff ff       	call   3520 <deregister_tm_clones>
    35bc:	c6 05 ed 7e 01 00 01 	movb   $0x1,0x17eed(%rip)        # 1b4b0 <completed.0>
    35c3:	5d                   	pop    %rbp
    35c4:	c3                   	ret
    35c5:	0f 1f 00             	nopl   (%rax)
    35c8:	c3                   	ret
    35c9:	0f 1f 80 00 00 00 00 	nopl   0x0(%rax)

00000000000035d0 <frame_dummy>:
    35d0:	f3 0f 1e fa          	endbr64
    35d4:	e9 77 ff ff ff       	jmp    3550 <register_tm_clones>

00000000000035d9 <_Z14protected_mainv>:
#include <vkh.hpp>

#include <iostream>
#include <typeinfo>

int protected_main() {
    35d9:	55                   	push   %rbp
    35da:	48 89 e5             	mov    %rsp,%rbp
    35dd:	53                   	push   %rbx
    35de:	48 81 ec 98 00 00 00 	sub    $0x98,%rsp
  VulkanApp app;
    35e5:	48 8d 85 60 ff ff ff 	lea    -0xa0(%rbp),%rax
    35ec:	48 89 c7             	mov    %rax,%rdi
    35ef:	e8 9e 76 00 00       	call   ac92 <_ZN9VulkanAppC1Ev>
  app.run();
    35f4:	48 8d 85 60 ff ff ff 	lea    -0xa0(%rbp),%rax
    35fb:	48 89 c7             	mov    %rax,%rdi
    35fe:	e8 07 79 00 00       	call   af0a <_ZN9VulkanApp3runEv>
  return EXIT_SUCCESS;
    3603:	bb 00 00 00 00       	mov    $0x0,%ebx
}
    3608:	48 8d 85 60 ff ff ff 	lea    -0xa0(%rbp),%rax
    360f:	48 89 c7             	mov    %rax,%rdi
    3612:	e8 15 78 00 00       	call   ae2c <_ZN9VulkanAppD1Ev>
  return EXIT_SUCCESS;
    3617:	89 d8                	mov    %ebx,%eax
    3619:	eb 1d                	jmp    3638 <_Z14protected_mainv+0x5f>
}
    361b:	48 89 c3             	mov    %rax,%rbx
    361e:	48 8d 85 60 ff ff ff 	lea    -0xa0(%rbp),%rax
    3625:	48 89 c7             	mov    %rax,%rdi
    3628:	e8 ff 77 00 00       	call   ae2c <_ZN9VulkanAppD1Ev>
    362d:	48 89 d8             	mov    %rbx,%rax
    3630:	48 89 c7             	mov    %rax,%rdi
    3633:	e8 38 fe ff ff       	call   3470 <_Unwind_Resume@plt>
    3638:	48 8b 5d f8          	mov    -0x8(%rbp),%rbx
    363c:	c9                   	leave
    363d:	c3                   	ret

000000000000363e <main>:

int main() {
    363e:	55                   	push   %rbp
    363f:	48 89 e5             	mov    %rsp,%rbp
    3642:	53                   	push   %rbx
    3643:	48 83 ec 18          	sub    $0x18,%rsp
  try {
    return protected_main();
    3647:	e8 8d ff ff ff       	call   35d9 <_Z14protected_mainv>
    364c:	e9 aa 00 00 00       	jmp    36fb <main+0xbd>
  } catch (const std::exception &e) {
    std::cerr << e.what() << '\n';
  } catch (...) {
    std::cerr << "Uncaught exception.\n";
  }
  return EXIT_FAILURE;
    3651:	b8 01 00 00 00       	mov    $0x1,%eax
    3656:	e9 a0 00 00 00       	jmp    36fb <main+0xbd>
  } catch (const std::exception &e) {
    365b:	48 83 fa 01          	cmp    $0x1,%rdx
    365f:	75 49                	jne    36aa <main+0x6c>
    3661:	48 89 c7             	mov    %rax,%rdi
    3664:	e8 57 fa ff ff       	call   30c0 <__cxa_begin_catch@plt>
    3669:	48 89 45 e8          	mov    %rax,-0x18(%rbp)
    std::cerr << e.what() << '\n';
    366d:	48 8b 45 e8          	mov    -0x18(%rbp),%rax
    3671:	48 8b 00             	mov    (%rax),%rax
    3674:	48 83 c0 10          	add    $0x10,%rax
    3678:	48 8b 10             	mov    (%rax),%rdx
    367b:	48 8b 45 e8          	mov    -0x18(%rbp),%rax
    367f:	48 89 c7             	mov    %rax,%rdi
    3682:	ff d2                	call   *%rdx
    3684:	48 89 c6             	mov    %rax,%rsi
    3687:	48 8d 05 12 7d 01 00 	lea    0x17d12(%rip),%rax        # 1b3a0 <_ZSt4cerr@GLIBCXX_3.4>
    368e:	48 89 c7             	mov    %rax,%rdi
    3691:	e8 ba fb ff ff       	call   3250 <_ZStlsISt11char_traitsIcEERSt13basic_ostreamIcT_ES5_PKc@plt>
    3696:	be 0a 00 00 00       	mov    $0xa,%esi
    369b:	48 89 c7             	mov    %rax,%rdi
    369e:	e8 8d fc ff ff       	call   3330 <_ZStlsISt11char_traitsIcEERSt13basic_ostreamIcT_ES5_c@plt>
  } catch (...) {
    36a3:	e8 98 fd ff ff       	call   3440 <__cxa_end_catch@plt>
    36a8:	eb a7                	jmp    3651 <main+0x13>
    36aa:	48 89 c7             	mov    %rax,%rdi
    36ad:	e8 0e fa ff ff       	call   30c0 <__cxa_begin_catch@plt>
    std::cerr << "Uncaught exception.\n";
    36b2:	48 8d 05 2f bf 00 00 	lea    0xbf2f(%rip),%rax        # f5e8 <_ZN6__pstl9execution2v1L5unseqE+0x1>
    36b9:	48 89 c6             	mov    %rax,%rsi
    36bc:	48 8d 05 dd 7c 01 00 	lea    0x17cdd(%rip),%rax        # 1b3a0 <_ZSt4cerr@GLIBCXX_3.4>
    36c3:	48 89 c7             	mov    %rax,%rdi
    36c6:	e8 85 fb ff ff       	call   3250 <_ZStlsISt11char_traitsIcEERSt13basic_ostreamIcT_ES5_PKc@plt>
  }
    36cb:	e8 70 fd ff ff       	call   3440 <__cxa_end_catch@plt>
    36d0:	e9 7c ff ff ff       	jmp    3651 <main+0x13>
  } catch (...) {
    36d5:	48 89 c3             	mov    %rax,%rbx
    36d8:	e8 63 fd ff ff       	call   3440 <__cxa_end_catch@plt>
    36dd:	48 89 d8             	mov    %rbx,%rax
    36e0:	48 89 c7             	mov    %rax,%rdi
    36e3:	e8 88 fd ff ff       	call   3470 <_Unwind_Resume@plt>
  }
    36e8:	48 89 c3             	mov    %rax,%rbx
    36eb:	e8 50 fd ff ff       	call   3440 <__cxa_end_catch@plt>
    36f0:	48 89 d8             	mov    %rbx,%rax
    36f3:	48 89 c7             	mov    %rax,%rdi
    36f6:	e8 75 fd ff ff       	call   3470 <_Unwind_Resume@plt>
    36fb:	48 8b 5d f8          	mov    -0x8(%rbp),%rbx
    36ff:	c9                   	leave
    3700:	c3                   	ret

0000000000003701 <_Z41__static_initialization_and_destruction_0ii>:
    3701:	55                   	push   %rbp
    3702:	48 89 e5             	mov    %rsp,%rbp
    3705:	48 83 ec 10          	sub    $0x10,%rsp
    3709:	89 7d fc             	mov    %edi,-0x4(%rbp)
    370c:	89 75 f8             	mov    %esi,-0x8(%rbp)
    370f:	83 7d fc 01          	cmpl   $0x1,-0x4(%rbp)
    3713:	75 3b                	jne    3750 <_Z41__static_initialization_and_destruction_0ii+0x4f>
    3715:	81 7d f8 ff ff 00 00 	cmpl   $0xffff,-0x8(%rbp)
    371c:	75 32                	jne    3750 <_Z41__static_initialization_and_destruction_0ii+0x4f>
  extern wostream wclog;	/// Linked to standard error (buffered)
#endif
  ///@}

  // For construction of filebuffers for cout, cin, cerr, clog et. al.
  static ios_base::Init __ioinit;
    371e:	48 8d 05 8c 7d 01 00 	lea    0x17d8c(%rip),%rax        # 1b4b1 <_ZStL8__ioinit>
    3725:	48 89 c7             	mov    %rax,%rdi
    3728:	e8 d3 fc ff ff       	call   3400 <_ZNSt8ios_base4InitC1Ev@plt>
    372d:	48 8d 05 2c 7b 01 00 	lea    0x17b2c(%rip),%rax        # 1b260 <__dso_handle>
    3734:	48 89 c2             	mov    %rax,%rdx
    3737:	48 8d 05 73 7d 01 00 	lea    0x17d73(%rip),%rax        # 1b4b1 <_ZStL8__ioinit>
    373e:	48 89 c6             	mov    %rax,%rsi
    3741:	48 8b 05 80 78 01 00 	mov    0x17880(%rip),%rax        # 1afc8 <_ZNSt8ios_base4InitD1Ev@GLIBCXX_3.4>
    3748:	48 89 c7             	mov    %rax,%rdi
    374b:	e8 c0 fa ff ff       	call   3210 <__cxa_atexit@plt>
    3750:	90                   	nop
    3751:	c9                   	leave
    3752:	c3                   	ret

0000000000003753 <_GLOBAL__sub_I__Z14protected_mainv>:
    3753:	55                   	push   %rbp
    3754:	48 89 e5             	mov    %rsp,%rbp
    3757:	be ff ff 00 00       	mov    $0xffff,%esi
    375c:	bf 01 00 00 00       	mov    $0x1,%edi
    3761:	e8 9b ff ff ff       	call   3701 <_Z41__static_initialization_and_destruction_0ii>
    3766:	5d                   	pop    %rbp
    3767:	c3                   	ret

0000000000003768 <_ZN3vkh12createWindowEiiPKcP11GLFWmonitorP10GLFWwindow>:
#include "create_object.hpp"

namespace vkh {
GLFWwindow *createWindow(int width, int height, const char *title,
                         GLFWmonitor *monitor, GLFWwindow *share) {
    3768:	55                   	push   %rbp
    3769:	48 89 e5             	mov    %rsp,%rbp
    376c:	48 83 ec 20          	sub    $0x20,%rsp
    3770:	89 7d fc             	mov    %edi,-0x4(%rbp)
    3773:	89 75 f8             	mov    %esi,-0x8(%rbp)
    3776:	48 89 55 f0          	mov    %rdx,-0x10(%rbp)
    377a:	48 89 4d e8          	mov    %rcx,-0x18(%rbp)
    377e:	4c 89 45 e0          	mov    %r8,-0x20(%rbp)
  glfwWindowHint(GLFW_CLIENT_API, GLFW_NO_API);
    3782:	be 00 00 00 00       	mov    $0x0,%esi
    3787:	bf 01 20 02 00       	mov    $0x22001,%edi
    378c:	e8 5f fa ff ff       	call   31f0 <glfwWindowHint@plt>
  glfwWindowHint(GLFW_RESIZABLE, GLFW_FALSE);
    3791:	be 00 00 00 00       	mov    $0x0,%esi
    3796:	bf 03 00 02 00       	mov    $0x20003,%edi
    379b:	e8 50 fa ff ff       	call   31f0 <glfwWindowHint@plt>
  return glfwCreateWindow(width, height, title, monitor, share);
    37a0:	48 8b 7d e0          	mov    -0x20(%rbp),%rdi
    37a4:	48 8b 4d e8          	mov    -0x18(%rbp),%rcx
    37a8:	48 8b 55 f0          	mov    -0x10(%rbp),%rdx
    37ac:	8b 75 f8             	mov    -0x8(%rbp),%esi
    37af:	8b 45 fc             	mov    -0x4(%rbp),%eax
    37b2:	49 89 f8             	mov    %rdi,%r8
    37b5:	89 c7                	mov    %eax,%edi
    37b7:	e8 64 fc ff ff       	call   3420 <glfwCreateWindow@plt>
}
    37bc:	c9                   	leave
    37bd:	c3                   	ret

00000000000037be <_ZN3vkh14createInstanceEPK20VkInstanceCreateInfoPK21VkAllocationCallbacks>:

VkInstance createInstance(const VkInstanceCreateInfo *pCreateInfo,
                          const VkAllocationCallbacks *pAllocator) {
    37be:	55                   	push   %rbp
    37bf:	48 89 e5             	mov    %rsp,%rbp
    37c2:	41 54                	push   %r12
    37c4:	53                   	push   %rbx
    37c5:	48 83 ec 20          	sub    $0x20,%rsp
    37c9:	48 89 7d d8          	mov    %rdi,-0x28(%rbp)
    37cd:	48 89 75 d0          	mov    %rsi,-0x30(%rbp)
  VkInstance instance;
  if (vkCreateInstance(pCreateInfo, pAllocator, &instance) != VK_SUCCESS) {
    37d1:	48 8d 55 e8          	lea    -0x18(%rbp),%rdx
    37d5:	48 8b 4d d0          	mov    -0x30(%rbp),%rcx
    37d9:	48 8b 45 d8          	mov    -0x28(%rbp),%rax
    37dd:	48 89 ce             	mov    %rcx,%rsi
    37e0:	48 89 c7             	mov    %rax,%rdi
    37e3:	e8 68 fb ff ff       	call   3350 <vkCreateInstance@plt>
    37e8:	85 c0                	test   %eax,%eax
    37ea:	0f 95 c0             	setne  %al
    37ed:	84 c0                	test   %al,%al
    37ef:	74 3b                	je     382c <_ZN3vkh14createInstanceEPK20VkInstanceCreateInfoPK21VkAllocationCallbacks+0x6e>
    throw std::runtime_error("Failed to create an instance.");
    37f1:	bf 10 00 00 00       	mov    $0x10,%edi
    37f6:	e8 f5 f8 ff ff       	call   30f0 <__cxa_allocate_exception@plt>
    37fb:	48 89 c3             	mov    %rax,%rbx
    37fe:	48 8d 05 d3 c3 00 00 	lea    0xc3d3(%rip),%rax        # fbd8 <_ZL47VK_FORMAT_FEATURE_2_BOX_FILTER_SAMPLED_BIT_QCOM+0x8>
    3805:	48 89 c6             	mov    %rax,%rsi
    3808:	48 89 df             	mov    %rbx,%rdi
    380b:	e8 90 f8 ff ff       	call   30a0 <_ZNSt13runtime_errorC1EPKc@plt>
    3810:	48 8b 05 91 77 01 00 	mov    0x17791(%rip),%rax        # 1afa8 <_ZNSt13runtime_errorD1Ev@GLIBCXX_3.4>
    3817:	48 89 c2             	mov    %rax,%rdx
    381a:	48 8d 05 1f 75 01 00 	lea    0x1751f(%rip),%rax        # 1ad40 <_ZTISt13runtime_error@GLIBCXX_3.4>
    3821:	48 89 c6             	mov    %rax,%rsi
    3824:	48 89 df             	mov    %rbx,%rdi
    3827:	e8 24 fc ff ff       	call   3450 <__cxa_throw@plt>
  }
  return instance;
    382c:	48 8b 45 e8          	mov    -0x18(%rbp),%rax
    3830:	eb 16                	jmp    3848 <_ZN3vkh14createInstanceEPK20VkInstanceCreateInfoPK21VkAllocationCallbacks+0x8a>
    throw std::runtime_error("Failed to create an instance.");
    3832:	49 89 c4             	mov    %rax,%r12
    3835:	48 89 df             	mov    %rbx,%rdi
    3838:	e8 33 f9 ff ff       	call   3170 <__cxa_free_exception@plt>
    383d:	4c 89 e0             	mov    %r12,%rax
    3840:	48 89 c7             	mov    %rax,%rdi
    3843:	e8 28 fc ff ff       	call   3470 <_Unwind_Resume@plt>
}
    3848:	48 83 c4 20          	add    $0x20,%rsp
    384c:	5b                   	pop    %rbx
    384d:	41 5c                	pop    %r12
    384f:	5d                   	pop    %rbp
    3850:	c3                   	ret

0000000000003851 <_ZN3vkh12createDeviceEP18VkPhysicalDevice_TPK18VkDeviceCreateInfoPK21VkAllocationCallbacks>:

VkDevice createDevice(VkPhysicalDevice physicalDevice,
                      const VkDeviceCreateInfo *pCreateInfo,
                      const VkAllocationCallbacks *pAllocator) {
    3851:	55                   	push   %rbp
    3852:	48 89 e5             	mov    %rsp,%rbp
    3855:	41 54                	push   %r12
    3857:	53                   	push   %rbx
    3858:	48 83 ec 30          	sub    $0x30,%rsp
    385c:	48 89 7d d8          	mov    %rdi,-0x28(%rbp)
    3860:	48 89 75 d0          	mov    %rsi,-0x30(%rbp)
    3864:	48 89 55 c8          	mov    %rdx,-0x38(%rbp)
  VkDevice device;
  if (vkCreateDevice(physicalDevice, pCreateInfo, pAllocator, &device) !=
    3868:	48 8d 4d e8          	lea    -0x18(%rbp),%rcx
    386c:	48 8b 55 c8          	mov    -0x38(%rbp),%rdx
    3870:	48 8b 75 d0          	mov    -0x30(%rbp),%rsi
    3874:	48 8b 45 d8          	mov    -0x28(%rbp),%rax
    3878:	48 89 c7             	mov    %rax,%rdi
    387b:	e8 70 fb ff ff       	call   33f0 <vkCreateDevice@plt>
    3880:	85 c0                	test   %eax,%eax
    3882:	0f 95 c0             	setne  %al
    3885:	84 c0                	test   %al,%al
    3887:	74 3b                	je     38c4 <_ZN3vkh12createDeviceEP18VkPhysicalDevice_TPK18VkDeviceCreateInfoPK21VkAllocationCallbacks+0x73>
      VK_SUCCESS) {
    throw std::runtime_error("Failed to create logical device.");
    3889:	bf 10 00 00 00       	mov    $0x10,%edi
    388e:	e8 5d f8 ff ff       	call   30f0 <__cxa_allocate_exception@plt>
    3893:	48 89 c3             	mov    %rax,%rbx
    3896:	48 8d 05 5b c3 00 00 	lea    0xc35b(%rip),%rax        # fbf8 <_ZL47VK_FORMAT_FEATURE_2_BOX_FILTER_SAMPLED_BIT_QCOM+0x28>
    389d:	48 89 c6             	mov    %rax,%rsi
    38a0:	48 89 df             	mov    %rbx,%rdi
    38a3:	e8 f8 f7 ff ff       	call   30a0 <_ZNSt13runtime_errorC1EPKc@plt>
    38a8:	48 8b 05 f9 76 01 00 	mov    0x176f9(%rip),%rax        # 1afa8 <_ZNSt13runtime_errorD1Ev@GLIBCXX_3.4>
    38af:	48 89 c2             	mov    %rax,%rdx
    38b2:	48 8d 05 87 74 01 00 	lea    0x17487(%rip),%rax        # 1ad40 <_ZTISt13runtime_error@GLIBCXX_3.4>
    38b9:	48 89 c6             	mov    %rax,%rsi
    38bc:	48 89 df             	mov    %rbx,%rdi
    38bf:	e8 8c fb ff ff       	call   3450 <__cxa_throw@plt>
  }
  return device;
    38c4:	48 8b 45 e8          	mov    -0x18(%rbp),%rax
    38c8:	eb 16                	jmp    38e0 <_ZN3vkh12createDeviceEP18VkPhysicalDevice_TPK18VkDeviceCreateInfoPK21VkAllocationCallbacks+0x8f>
    throw std::runtime_error("Failed to create logical device.");
    38ca:	49 89 c4             	mov    %rax,%r12
    38cd:	48 89 df             	mov    %rbx,%rdi
    38d0:	e8 9b f8 ff ff       	call   3170 <__cxa_free_exception@plt>
    38d5:	4c 89 e0             	mov    %r12,%rax
    38d8:	48 89 c7             	mov    %rax,%rdi
    38db:	e8 90 fb ff ff       	call   3470 <_Unwind_Resume@plt>
}
    38e0:	48 83 c4 30          	add    $0x30,%rsp
    38e4:	5b                   	pop    %rbx
    38e5:	41 5c                	pop    %r12
    38e7:	5d                   	pop    %rbp
    38e8:	c3                   	ret

00000000000038e9 <_ZN3vkh13createSurfaceEP12VkInstance_TP10GLFWwindowPK21VkAllocationCallbacks>:

VkSurfaceKHR createSurface(VkInstance instance, GLFWwindow *window,
                           const VkAllocationCallbacks *allocator) {
    38e9:	55                   	push   %rbp
    38ea:	48 89 e5             	mov    %rsp,%rbp
    38ed:	41 54                	push   %r12
    38ef:	53                   	push   %rbx
    38f0:	48 83 ec 30          	sub    $0x30,%rsp
    38f4:	48 89 7d d8          	mov    %rdi,-0x28(%rbp)
    38f8:	48 89 75 d0          	mov    %rsi,-0x30(%rbp)
    38fc:	48 89 55 c8          	mov    %rdx,-0x38(%rbp)
  VkSurfaceKHR surface;
  if (glfwCreateWindowSurface(instance, window, allocator, &surface) !=
    3900:	48 8d 4d e8          	lea    -0x18(%rbp),%rcx
    3904:	48 8b 55 c8          	mov    -0x38(%rbp),%rdx
    3908:	48 8b 75 d0          	mov    -0x30(%rbp),%rsi
    390c:	48 8b 45 d8          	mov    -0x28(%rbp),%rax
    3910:	48 89 c7             	mov    %rax,%rdi
    3913:	e8 f8 fa ff ff       	call   3410 <glfwCreateWindowSurface@plt>
    3918:	85 c0                	test   %eax,%eax
    391a:	0f 95 c0             	setne  %al
    391d:	84 c0                	test   %al,%al
    391f:	74 3b                	je     395c <_ZN3vkh13createSurfaceEP12VkInstance_TP10GLFWwindowPK21VkAllocationCallbacks+0x73>
      VK_SUCCESS) {
    throw std::runtime_error("Failed to create window surface.");
    3921:	bf 10 00 00 00       	mov    $0x10,%edi
    3926:	e8 c5 f7 ff ff       	call   30f0 <__cxa_allocate_exception@plt>
    392b:	48 89 c3             	mov    %rax,%rbx
    392e:	48 8d 05 eb c2 00 00 	lea    0xc2eb(%rip),%rax        # fc20 <_ZL47VK_FORMAT_FEATURE_2_BOX_FILTER_SAMPLED_BIT_QCOM+0x50>
    3935:	48 89 c6             	mov    %rax,%rsi
    3938:	48 89 df             	mov    %rbx,%rdi
    393b:	e8 60 f7 ff ff       	call   30a0 <_ZNSt13runtime_errorC1EPKc@plt>
    3940:	48 8b 05 61 76 01 00 	mov    0x17661(%rip),%rax        # 1afa8 <_ZNSt13runtime_errorD1Ev@GLIBCXX_3.4>
    3947:	48 89 c2             	mov    %rax,%rdx
    394a:	48 8d 05 ef 73 01 00 	lea    0x173ef(%rip),%rax        # 1ad40 <_ZTISt13runtime_error@GLIBCXX_3.4>
    3951:	48 89 c6             	mov    %rax,%rsi
    3954:	48 89 df             	mov    %rbx,%rdi
    3957:	e8 f4 fa ff ff       	call   3450 <__cxa_throw@plt>
  }
  return surface;
    395c:	48 8b 45 e8          	mov    -0x18(%rbp),%rax
    3960:	eb 16                	jmp    3978 <_ZN3vkh13createSurfaceEP12VkInstance_TP10GLFWwindowPK21VkAllocationCallbacks+0x8f>
    throw std::runtime_error("Failed to create window surface.");
    3962:	49 89 c4             	mov    %rax,%r12
    3965:	48 89 df             	mov    %rbx,%rdi
    3968:	e8 03 f8 ff ff       	call   3170 <__cxa_free_exception@plt>
    396d:	4c 89 e0             	mov    %r12,%rax
    3970:	48 89 c7             	mov    %rax,%rdi
    3973:	e8 f8 fa ff ff       	call   3470 <_Unwind_Resume@plt>
}
    3978:	48 83 c4 30          	add    $0x30,%rsp
    397c:	5b                   	pop    %rbx
    397d:	41 5c                	pop    %r12
    397f:	5d                   	pop    %rbp
    3980:	c3                   	ret

0000000000003981 <_ZN3vkh15createSwapchainEP10VkDevice_TPK24VkSwapchainCreateInfoKHRPK21VkAllocationCallbacks>:

VkSwapchainKHR createSwapchain(VkDevice device,
                               const VkSwapchainCreateInfoKHR *pCreateInfo,
                               const VkAllocationCallbacks *pAllocator) {
    3981:	55                   	push   %rbp
    3982:	48 89 e5             	mov    %rsp,%rbp
    3985:	41 54                	push   %r12
    3987:	53                   	push   %rbx
    3988:	48 83 ec 30          	sub    $0x30,%rsp
    398c:	48 89 7d d8          	mov    %rdi,-0x28(%rbp)
    3990:	48 89 75 d0          	mov    %rsi,-0x30(%rbp)
    3994:	48 89 55 c8          	mov    %rdx,-0x38(%rbp)
  VkSwapchainKHR swapchain{};
    3998:	48 c7 45 e8 00 00 00 	movq   $0x0,-0x18(%rbp)
    399f:	00 
  if (vkCreateSwapchainKHR(device, pCreateInfo, pAllocator, &swapchain) !=
    39a0:	48 8d 4d e8          	lea    -0x18(%rbp),%rcx
    39a4:	48 8b 55 c8          	mov    -0x38(%rbp),%rdx
    39a8:	48 8b 75 d0          	mov    -0x30(%rbp),%rsi
    39ac:	48 8b 45 d8          	mov    -0x28(%rbp),%rax
    39b0:	48 89 c7             	mov    %rax,%rdi
    39b3:	e8 88 f9 ff ff       	call   3340 <vkCreateSwapchainKHR@plt>
    39b8:	85 c0                	test   %eax,%eax
    39ba:	0f 95 c0             	setne  %al
    39bd:	84 c0                	test   %al,%al
    39bf:	74 3b                	je     39fc <_ZN3vkh15createSwapchainEP10VkDevice_TPK24VkSwapchainCreateInfoKHRPK21VkAllocationCallbacks+0x7b>
      VK_SUCCESS) {
    throw std::runtime_error("Failed to create a swapchain.");
    39c1:	bf 10 00 00 00       	mov    $0x10,%edi
    39c6:	e8 25 f7 ff ff       	call   30f0 <__cxa_allocate_exception@plt>
    39cb:	48 89 c3             	mov    %rax,%rbx
    39ce:	48 8d 05 6c c2 00 00 	lea    0xc26c(%rip),%rax        # fc41 <_ZL47VK_FORMAT_FEATURE_2_BOX_FILTER_SAMPLED_BIT_QCOM+0x71>
    39d5:	48 89 c6             	mov    %rax,%rsi
    39d8:	48 89 df             	mov    %rbx,%rdi
    39db:	e8 c0 f6 ff ff       	call   30a0 <_ZNSt13runtime_errorC1EPKc@plt>
    39e0:	48 8b 05 c1 75 01 00 	mov    0x175c1(%rip),%rax        # 1afa8 <_ZNSt13runtime_errorD1Ev@GLIBCXX_3.4>
    39e7:	48 89 c2             	mov    %rax,%rdx
    39ea:	48 8d 05 4f 73 01 00 	lea    0x1734f(%rip),%rax        # 1ad40 <_ZTISt13runtime_error@GLIBCXX_3.4>
    39f1:	48 89 c6             	mov    %rax,%rsi
    39f4:	48 89 df             	mov    %rbx,%rdi
    39f7:	e8 54 fa ff ff       	call   3450 <__cxa_throw@plt>
  }
  return swapchain;
    39fc:	48 8b 45 e8          	mov    -0x18(%rbp),%rax
    3a00:	eb 16                	jmp    3a18 <_ZN3vkh15createSwapchainEP10VkDevice_TPK24VkSwapchainCreateInfoKHRPK21VkAllocationCallbacks+0x97>
    throw std::runtime_error("Failed to create a swapchain.");
    3a02:	49 89 c4             	mov    %rax,%r12
    3a05:	48 89 df             	mov    %rbx,%rdi
    3a08:	e8 63 f7 ff ff       	call   3170 <__cxa_free_exception@plt>
    3a0d:	4c 89 e0             	mov    %r12,%rax
    3a10:	48 89 c7             	mov    %rax,%rdi
    3a13:	e8 58 fa ff ff       	call   3470 <_Unwind_Resume@plt>
}
    3a18:	48 83 c4 30          	add    $0x30,%rsp
    3a1c:	5b                   	pop    %rbx
    3a1d:	41 5c                	pop    %r12
    3a1f:	5d                   	pop    %rbp
    3a20:	c3                   	ret

0000000000003a21 <_ZN3vkh13destroyWindowEP10GLFWwindow>:
#include "destroy_object.hpp"

namespace vkh {

void destroyWindow(GLFWwindow *window) { glfwDestroyWindow(window); }
    3a21:	55                   	push   %rbp
    3a22:	48 89 e5             	mov    %rsp,%rbp
    3a25:	48 83 ec 10          	sub    $0x10,%rsp
    3a29:	48 89 7d f8          	mov    %rdi,-0x8(%rbp)
    3a2d:	48 8b 45 f8          	mov    -0x8(%rbp),%rax
    3a31:	48 89 c7             	mov    %rax,%rdi
    3a34:	e8 47 f6 ff ff       	call   3080 <glfwDestroyWindow@plt>
    3a39:	90                   	nop
    3a3a:	c9                   	leave
    3a3b:	c3                   	ret

0000000000003a3c <_ZN3vkh15destroyInstanceEP12VkInstance_TPK21VkAllocationCallbacks>:

void destroyInstance(VkInstance instance,
                     const VkAllocationCallbacks *pAllocator) {
    3a3c:	55                   	push   %rbp
    3a3d:	48 89 e5             	mov    %rsp,%rbp
    3a40:	48 83 ec 10          	sub    $0x10,%rsp
    3a44:	48 89 7d f8          	mov    %rdi,-0x8(%rbp)
    3a48:	48 89 75 f0          	mov    %rsi,-0x10(%rbp)
  vkDestroyInstance(instance, pAllocator);
    3a4c:	48 8b 55 f0          	mov    -0x10(%rbp),%rdx
    3a50:	48 8b 45 f8          	mov    -0x8(%rbp),%rax
    3a54:	48 89 d6             	mov    %rdx,%rsi
    3a57:	48 89 c7             	mov    %rax,%rdi
    3a5a:	e8 21 f8 ff ff       	call   3280 <vkDestroyInstance@plt>
}
    3a5f:	90                   	nop
    3a60:	c9                   	leave
    3a61:	c3                   	ret

0000000000003a62 <_ZN3vkh13destroyDeviceEP10VkDevice_TPK21VkAllocationCallbacks>:

void destroyDevice(VkDevice device, const VkAllocationCallbacks *pAllocator) {
    3a62:	55                   	push   %rbp
    3a63:	48 89 e5             	mov    %rsp,%rbp
    3a66:	48 83 ec 10          	sub    $0x10,%rsp
    3a6a:	48 89 7d f8          	mov    %rdi,-0x8(%rbp)
    3a6e:	48 89 75 f0          	mov    %rsi,-0x10(%rbp)
  vkDestroyDevice(device, pAllocator);
    3a72:	48 8b 55 f0          	mov    -0x10(%rbp),%rdx
    3a76:	48 8b 45 f8          	mov    -0x8(%rbp),%rax
    3a7a:	48 89 d6             	mov    %rdx,%rsi
    3a7d:	48 89 c7             	mov    %rax,%rdi
    3a80:	e8 3b f7 ff ff       	call   31c0 <vkDestroyDevice@plt>
}
    3a85:	90                   	nop
    3a86:	c9                   	leave
    3a87:	c3                   	ret

0000000000003a88 <_ZN3vkh14destroySurfaceEP12VkInstance_TP14VkSurfaceKHR_TPK21VkAllocationCallbacks>:

void destroySurface(VkInstance instance, VkSurfaceKHR surface,
                    const VkAllocationCallbacks *pAllocator) {
    3a88:	55                   	push   %rbp
    3a89:	48 89 e5             	mov    %rsp,%rbp
    3a8c:	48 83 ec 20          	sub    $0x20,%rsp
    3a90:	48 89 7d f8          	mov    %rdi,-0x8(%rbp)
    3a94:	48 89 75 f0          	mov    %rsi,-0x10(%rbp)
    3a98:	48 89 55 e8          	mov    %rdx,-0x18(%rbp)
  vkDestroySurfaceKHR(instance, surface, pAllocator);
    3a9c:	48 8b 55 e8          	mov    -0x18(%rbp),%rdx
    3aa0:	48 8b 4d f0          	mov    -0x10(%rbp),%rcx
    3aa4:	48 8b 45 f8          	mov    -0x8(%rbp),%rax
    3aa8:	48 89 ce             	mov    %rcx,%rsi
    3aab:	48 89 c7             	mov    %rax,%rdi
    3aae:	e8 ad f9 ff ff       	call   3460 <vkDestroySurfaceKHR@plt>
}
    3ab3:	90                   	nop
    3ab4:	c9                   	leave
    3ab5:	c3                   	ret

0000000000003ab6 <_ZN3vkh16destroySwapchainEP10VkDevice_TP16VkSwapchainKHR_TPK21VkAllocationCallbacks>:

void destroySwapchain(VkDevice device, VkSwapchainKHR swapchain,
                      const VkAllocationCallbacks *pAllocator) {
    3ab6:	55                   	push   %rbp
    3ab7:	48 89 e5             	mov    %rsp,%rbp
    3aba:	48 83 ec 20          	sub    $0x20,%rsp
    3abe:	48 89 7d f8          	mov    %rdi,-0x8(%rbp)
    3ac2:	48 89 75 f0          	mov    %rsi,-0x10(%rbp)
    3ac6:	48 89 55 e8          	mov    %rdx,-0x18(%rbp)
  vkDestroySwapchainKHR(device, swapchain, pAllocator);
    3aca:	48 8b 55 e8          	mov    -0x18(%rbp),%rdx
    3ace:	48 8b 4d f0          	mov    -0x10(%rbp),%rcx
    3ad2:	48 8b 45 f8          	mov    -0x8(%rbp),%rax
    3ad6:	48 89 ce             	mov    %rcx,%rsi
    3ad9:	48 89 c7             	mov    %rax,%rdi
    3adc:	e8 8f f5 ff ff       	call   3070 <vkDestroySwapchainKHR@plt>
}
    3ae1:	90                   	nop
    3ae2:	c9                   	leave
    3ae3:	c3                   	ret

0000000000003ae4 <_ZN3vkh33getAvailableInstanceExtensionListEPKc>:
#include "get_list.hpp"

namespace vkh {

std::vector<VkExtensionProperties>
getAvailableInstanceExtensionList(const char *pLayerName) {
    3ae4:	55                   	push   %rbp
    3ae5:	48 89 e5             	mov    %rsp,%rbp
    3ae8:	41 54                	push   %r12
    3aea:	53                   	push   %rbx
    3aeb:	48 83 ec 20          	sub    $0x20,%rsp
    3aef:	48 89 7d d8          	mov    %rdi,-0x28(%rbp)
    3af3:	48 89 75 d0          	mov    %rsi,-0x30(%rbp)
  uint32_t propertyCount;
  if (vkEnumerateInstanceExtensionProperties(pLayerName, &propertyCount,
    3af7:	48 8d 4d e8          	lea    -0x18(%rbp),%rcx
    3afb:	48 8b 45 d0          	mov    -0x30(%rbp),%rax
    3aff:	ba 00 00 00 00       	mov    $0x0,%edx
    3b04:	48 89 ce             	mov    %rcx,%rsi
    3b07:	48 89 c7             	mov    %rax,%rdi
    3b0a:	e8 c1 f6 ff ff       	call   31d0 <vkEnumerateInstanceExtensionProperties@plt>
                                             nullptr) != VK_SUCCESS) {
    3b0f:	85 c0                	test   %eax,%eax
    3b11:	0f 95 c0             	setne  %al
  if (vkEnumerateInstanceExtensionProperties(pLayerName, &propertyCount,
    3b14:	84 c0                	test   %al,%al
    3b16:	74 3b                	je     3b53 <_ZN3vkh33getAvailableInstanceExtensionListEPKc+0x6f>
    throw std::runtime_error("Failed to get instance extension list.");
    3b18:	bf 10 00 00 00       	mov    $0x10,%edi
    3b1d:	e8 ce f5 ff ff       	call   30f0 <__cxa_allocate_exception@plt>
    3b22:	48 89 c3             	mov    %rax,%rbx
    3b25:	48 8d 05 e4 cc 00 00 	lea    0xcce4(%rip),%rax        # 10810 <_ZL47VK_FORMAT_FEATURE_2_BOX_FILTER_SAMPLED_BIT_QCOM+0x8>
    3b2c:	48 89 c6             	mov    %rax,%rsi
    3b2f:	48 89 df             	mov    %rbx,%rdi
    3b32:	e8 69 f5 ff ff       	call   30a0 <_ZNSt13runtime_errorC1EPKc@plt>
    3b37:	48 8b 05 6a 74 01 00 	mov    0x1746a(%rip),%rax        # 1afa8 <_ZNSt13runtime_errorD1Ev@GLIBCXX_3.4>
    3b3e:	48 89 c2             	mov    %rax,%rdx
    3b41:	48 8d 05 f8 71 01 00 	lea    0x171f8(%rip),%rax        # 1ad40 <_ZTISt13runtime_error@GLIBCXX_3.4>
    3b48:	48 89 c6             	mov    %rax,%rsi
    3b4b:	48 89 df             	mov    %rbx,%rdi
    3b4e:	e8 fd f8 ff ff       	call   3450 <__cxa_throw@plt>
  }
  std::vector<VkExtensionProperties> instanceExtensions{propertyCount};
    3b53:	8b 45 e8             	mov    -0x18(%rbp),%eax
    3b56:	89 c3                	mov    %eax,%ebx
    3b58:	48 8d 45 ef          	lea    -0x11(%rbp),%rax
    3b5c:	48 89 c7             	mov    %rax,%rdi
    3b5f:	e8 26 0f 00 00       	call   4a8a <_ZNSaI21VkExtensionPropertiesEC1Ev>
    3b64:	48 8d 55 ef          	lea    -0x11(%rbp),%rdx
    3b68:	48 8b 45 d8          	mov    -0x28(%rbp),%rax
    3b6c:	48 89 de             	mov    %rbx,%rsi
    3b6f:	48 89 c7             	mov    %rax,%rdi
    3b72:	e8 4b 0f 00 00       	call   4ac2 <_ZNSt6vectorI21VkExtensionPropertiesSaIS0_EEC1EmRKS1_>
    3b77:	48 8d 45 ef          	lea    -0x11(%rbp),%rax
    3b7b:	48 89 c7             	mov    %rax,%rdi
    3b7e:	e8 23 0f 00 00       	call   4aa6 <_ZNSaI21VkExtensionPropertiesED1Ev>
  if (vkEnumerateInstanceExtensionProperties(pLayerName, &propertyCount,
    3b83:	48 8b 45 d8          	mov    -0x28(%rbp),%rax
    3b87:	48 89 c7             	mov    %rax,%rdi
    3b8a:	e8 ed 0f 00 00       	call   4b7c <_ZNSt6vectorI21VkExtensionPropertiesSaIS0_EE4dataEv>
    3b8f:	48 89 c2             	mov    %rax,%rdx
    3b92:	48 8d 4d e8          	lea    -0x18(%rbp),%rcx
    3b96:	48 8b 45 d0          	mov    -0x30(%rbp),%rax
    3b9a:	48 89 ce             	mov    %rcx,%rsi
    3b9d:	48 89 c7             	mov    %rax,%rdi
    3ba0:	e8 2b f6 ff ff       	call   31d0 <vkEnumerateInstanceExtensionProperties@plt>
                                             instanceExtensions.data()) !=
    3ba5:	85 c0                	test   %eax,%eax
    3ba7:	0f 95 c0             	setne  %al
  if (vkEnumerateInstanceExtensionProperties(pLayerName, &propertyCount,
    3baa:	84 c0                	test   %al,%al
    3bac:	0f 84 95 00 00 00    	je     3c47 <_ZN3vkh33getAvailableInstanceExtensionListEPKc+0x163>
      VK_SUCCESS) {
    throw std::runtime_error("Failed to get instance extension list.");
    3bb2:	bf 10 00 00 00       	mov    $0x10,%edi
    3bb7:	e8 34 f5 ff ff       	call   30f0 <__cxa_allocate_exception@plt>
    3bbc:	48 89 c3             	mov    %rax,%rbx
    3bbf:	48 8d 05 4a cc 00 00 	lea    0xcc4a(%rip),%rax        # 10810 <_ZL47VK_FORMAT_FEATURE_2_BOX_FILTER_SAMPLED_BIT_QCOM+0x8>
    3bc6:	48 89 c6             	mov    %rax,%rsi
    3bc9:	48 89 df             	mov    %rbx,%rdi
    3bcc:	e8 cf f4 ff ff       	call   30a0 <_ZNSt13runtime_errorC1EPKc@plt>
    3bd1:	48 8b 05 d0 73 01 00 	mov    0x173d0(%rip),%rax        # 1afa8 <_ZNSt13runtime_errorD1Ev@GLIBCXX_3.4>
    3bd8:	48 89 c2             	mov    %rax,%rdx
    3bdb:	48 8d 05 5e 71 01 00 	lea    0x1715e(%rip),%rax        # 1ad40 <_ZTISt13runtime_error@GLIBCXX_3.4>
    3be2:	48 89 c6             	mov    %rax,%rsi
    3be5:	48 89 df             	mov    %rbx,%rdi
    3be8:	e8 63 f8 ff ff       	call   3450 <__cxa_throw@plt>
    throw std::runtime_error("Failed to get instance extension list.");
    3bed:	49 89 c4             	mov    %rax,%r12
    3bf0:	48 89 df             	mov    %rbx,%rdi
    3bf3:	e8 78 f5 ff ff       	call   3170 <__cxa_free_exception@plt>
    3bf8:	4c 89 e0             	mov    %r12,%rax
    3bfb:	48 89 c7             	mov    %rax,%rdi
    3bfe:	e8 6d f8 ff ff       	call   3470 <_Unwind_Resume@plt>
  std::vector<VkExtensionProperties> instanceExtensions{propertyCount};
    3c03:	48 89 c3             	mov    %rax,%rbx
    3c06:	48 8d 45 ef          	lea    -0x11(%rbp),%rax
    3c0a:	48 89 c7             	mov    %rax,%rdi
    3c0d:	e8 94 0e 00 00       	call   4aa6 <_ZNSaI21VkExtensionPropertiesED1Ev>
    3c12:	48 89 d8             	mov    %rbx,%rax
    3c15:	48 89 c7             	mov    %rax,%rdi
    3c18:	e8 53 f8 ff ff       	call   3470 <_Unwind_Resume@plt>
    throw std::runtime_error("Failed to get instance extension list.");
    3c1d:	49 89 c4             	mov    %rax,%r12
    3c20:	48 89 df             	mov    %rbx,%rdi
    3c23:	e8 48 f5 ff ff       	call   3170 <__cxa_free_exception@plt>
    3c28:	4c 89 e3             	mov    %r12,%rbx
    3c2b:	eb 03                	jmp    3c30 <_ZN3vkh33getAvailableInstanceExtensionListEPKc+0x14c>
  }
  return instanceExtensions;
}
    3c2d:	48 89 c3             	mov    %rax,%rbx
    3c30:	48 8b 45 d8          	mov    -0x28(%rbp),%rax
    3c34:	48 89 c7             	mov    %rax,%rdi
    3c37:	e8 fc 0e 00 00       	call   4b38 <_ZNSt6vectorI21VkExtensionPropertiesSaIS0_EED1Ev>
    3c3c:	48 89 d8             	mov    %rbx,%rax
    3c3f:	48 89 c7             	mov    %rax,%rdi
    3c42:	e8 29 f8 ff ff       	call   3470 <_Unwind_Resume@plt>
  return instanceExtensions;
    3c47:	90                   	nop
}
    3c48:	48 8b 45 d8          	mov    -0x28(%rbp),%rax
    3c4c:	48 83 c4 20          	add    $0x20,%rsp
    3c50:	5b                   	pop    %rbx
    3c51:	41 5c                	pop    %r12
    3c53:	5d                   	pop    %rbp
    3c54:	c3                   	ret

0000000000003c55 <_ZN3vkh31getAvailableDeviceExtensionListEP18VkPhysicalDevice_TPKc>:

std::vector<VkExtensionProperties>
getAvailableDeviceExtensionList(VkPhysicalDevice physicalDevice,
                                const char *pLayerName) {
    3c55:	55                   	push   %rbp
    3c56:	48 89 e5             	mov    %rsp,%rbp
    3c59:	41 54                	push   %r12
    3c5b:	53                   	push   %rbx
    3c5c:	48 83 ec 30          	sub    $0x30,%rsp
    3c60:	48 89 7d d8          	mov    %rdi,-0x28(%rbp)
    3c64:	48 89 75 d0          	mov    %rsi,-0x30(%rbp)
    3c68:	48 89 55 c8          	mov    %rdx,-0x38(%rbp)
  uint32_t propertyCount;
  if (vkEnumerateDeviceExtensionProperties(
    3c6c:	48 8d 55 e8          	lea    -0x18(%rbp),%rdx
    3c70:	48 8b 75 c8          	mov    -0x38(%rbp),%rsi
    3c74:	48 8b 45 d0          	mov    -0x30(%rbp),%rax
    3c78:	b9 00 00 00 00       	mov    $0x0,%ecx
    3c7d:	48 89 c7             	mov    %rax,%rdi
    3c80:	e8 3b f7 ff ff       	call   33c0 <vkEnumerateDeviceExtensionProperties@plt>
          physicalDevice, pLayerName, &propertyCount, nullptr) != VK_SUCCESS) {
    3c85:	85 c0                	test   %eax,%eax
    3c87:	0f 95 c0             	setne  %al
  if (vkEnumerateDeviceExtensionProperties(
    3c8a:	84 c0                	test   %al,%al
    3c8c:	74 3b                	je     3cc9 <_ZN3vkh31getAvailableDeviceExtensionListEP18VkPhysicalDevice_TPKc+0x74>
    throw std::runtime_error("Failed to get device extension list.");
    3c8e:	bf 10 00 00 00       	mov    $0x10,%edi
    3c93:	e8 58 f4 ff ff       	call   30f0 <__cxa_allocate_exception@plt>
    3c98:	48 89 c3             	mov    %rax,%rbx
    3c9b:	48 8d 05 96 cb 00 00 	lea    0xcb96(%rip),%rax        # 10838 <_ZL47VK_FORMAT_FEATURE_2_BOX_FILTER_SAMPLED_BIT_QCOM+0x30>
    3ca2:	48 89 c6             	mov    %rax,%rsi
    3ca5:	48 89 df             	mov    %rbx,%rdi
    3ca8:	e8 f3 f3 ff ff       	call   30a0 <_ZNSt13runtime_errorC1EPKc@plt>
    3cad:	48 8b 05 f4 72 01 00 	mov    0x172f4(%rip),%rax        # 1afa8 <_ZNSt13runtime_errorD1Ev@GLIBCXX_3.4>
    3cb4:	48 89 c2             	mov    %rax,%rdx
    3cb7:	48 8d 05 82 70 01 00 	lea    0x17082(%rip),%rax        # 1ad40 <_ZTISt13runtime_error@GLIBCXX_3.4>
    3cbe:	48 89 c6             	mov    %rax,%rsi
    3cc1:	48 89 df             	mov    %rbx,%rdi
    3cc4:	e8 87 f7 ff ff       	call   3450 <__cxa_throw@plt>
  }
  std::vector<VkExtensionProperties> deviceExtensions{propertyCount};
    3cc9:	8b 45 e8             	mov    -0x18(%rbp),%eax
    3ccc:	89 c3                	mov    %eax,%ebx
    3cce:	48 8d 45 ef          	lea    -0x11(%rbp),%rax
    3cd2:	48 89 c7             	mov    %rax,%rdi
    3cd5:	e8 b0 0d 00 00       	call   4a8a <_ZNSaI21VkExtensionPropertiesEC1Ev>
    3cda:	48 8d 55 ef          	lea    -0x11(%rbp),%rdx
    3cde:	48 8b 45 d8          	mov    -0x28(%rbp),%rax
    3ce2:	48 89 de             	mov    %rbx,%rsi
    3ce5:	48 89 c7             	mov    %rax,%rdi
    3ce8:	e8 d5 0d 00 00       	call   4ac2 <_ZNSt6vectorI21VkExtensionPropertiesSaIS0_EEC1EmRKS1_>
    3ced:	48 8d 45 ef          	lea    -0x11(%rbp),%rax
    3cf1:	48 89 c7             	mov    %rax,%rdi
    3cf4:	e8 ad 0d 00 00       	call   4aa6 <_ZNSaI21VkExtensionPropertiesED1Ev>
  if (vkEnumerateDeviceExtensionProperties(
    3cf9:	48 8b 45 d8          	mov    -0x28(%rbp),%rax
    3cfd:	48 89 c7             	mov    %rax,%rdi
    3d00:	e8 77 0e 00 00       	call   4b7c <_ZNSt6vectorI21VkExtensionPropertiesSaIS0_EE4dataEv>
    3d05:	48 89 c1             	mov    %rax,%rcx
    3d08:	48 8d 55 e8          	lea    -0x18(%rbp),%rdx
    3d0c:	48 8b 75 c8          	mov    -0x38(%rbp),%rsi
    3d10:	48 8b 45 d0          	mov    -0x30(%rbp),%rax
    3d14:	48 89 c7             	mov    %rax,%rdi
    3d17:	e8 a4 f6 ff ff       	call   33c0 <vkEnumerateDeviceExtensionProperties@plt>
          physicalDevice, pLayerName, &propertyCount,
          deviceExtensions.data()) != VK_SUCCESS) {
    3d1c:	85 c0                	test   %eax,%eax
    3d1e:	0f 95 c0             	setne  %al
  if (vkEnumerateDeviceExtensionProperties(
    3d21:	84 c0                	test   %al,%al
    3d23:	0f 84 95 00 00 00    	je     3dbe <_ZN3vkh31getAvailableDeviceExtensionListEP18VkPhysicalDevice_TPKc+0x169>
    throw std::runtime_error("Failed to get device extension list.");
    3d29:	bf 10 00 00 00       	mov    $0x10,%edi
    3d2e:	e8 bd f3 ff ff       	call   30f0 <__cxa_allocate_exception@plt>
    3d33:	48 89 c3             	mov    %rax,%rbx
    3d36:	48 8d 05 fb ca 00 00 	lea    0xcafb(%rip),%rax        # 10838 <_ZL47VK_FORMAT_FEATURE_2_BOX_FILTER_SAMPLED_BIT_QCOM+0x30>
    3d3d:	48 89 c6             	mov    %rax,%rsi
    3d40:	48 89 df             	mov    %rbx,%rdi
    3d43:	e8 58 f3 ff ff       	call   30a0 <_ZNSt13runtime_errorC1EPKc@plt>
    3d48:	48 8b 05 59 72 01 00 	mov    0x17259(%rip),%rax        # 1afa8 <_ZNSt13runtime_errorD1Ev@GLIBCXX_3.4>
    3d4f:	48 89 c2             	mov    %rax,%rdx
    3d52:	48 8d 05 e7 6f 01 00 	lea    0x16fe7(%rip),%rax        # 1ad40 <_ZTISt13runtime_error@GLIBCXX_3.4>
    3d59:	48 89 c6             	mov    %rax,%rsi
    3d5c:	48 89 df             	mov    %rbx,%rdi
    3d5f:	e8 ec f6 ff ff       	call   3450 <__cxa_throw@plt>
    throw std::runtime_error("Failed to get device extension list.");
    3d64:	49 89 c4             	mov    %rax,%r12
    3d67:	48 89 df             	mov    %rbx,%rdi
    3d6a:	e8 01 f4 ff ff       	call   3170 <__cxa_free_exception@plt>
    3d6f:	4c 89 e0             	mov    %r12,%rax
    3d72:	48 89 c7             	mov    %rax,%rdi
    3d75:	e8 f6 f6 ff ff       	call   3470 <_Unwind_Resume@plt>
  std::vector<VkExtensionProperties> deviceExtensions{propertyCount};
    3d7a:	48 89 c3             	mov    %rax,%rbx
    3d7d:	48 8d 45 ef          	lea    -0x11(%rbp),%rax
    3d81:	48 89 c7             	mov    %rax,%rdi
    3d84:	e8 1d 0d 00 00       	call   4aa6 <_ZNSaI21VkExtensionPropertiesED1Ev>
    3d89:	48 89 d8             	mov    %rbx,%rax
    3d8c:	48 89 c7             	mov    %rax,%rdi
    3d8f:	e8 dc f6 ff ff       	call   3470 <_Unwind_Resume@plt>
    throw std::runtime_error("Failed to get device extension list.");
    3d94:	49 89 c4             	mov    %rax,%r12
    3d97:	48 89 df             	mov    %rbx,%rdi
    3d9a:	e8 d1 f3 ff ff       	call   3170 <__cxa_free_exception@plt>
    3d9f:	4c 89 e3             	mov    %r12,%rbx
    3da2:	eb 03                	jmp    3da7 <_ZN3vkh31getAvailableDeviceExtensionListEP18VkPhysicalDevice_TPKc+0x152>
  }
  return deviceExtensions;
}
    3da4:	48 89 c3             	mov    %rax,%rbx
    3da7:	48 8b 45 d8          	mov    -0x28(%rbp),%rax
    3dab:	48 89 c7             	mov    %rax,%rdi
    3dae:	e8 85 0d 00 00       	call   4b38 <_ZNSt6vectorI21VkExtensionPropertiesSaIS0_EED1Ev>
    3db3:	48 89 d8             	mov    %rbx,%rax
    3db6:	48 89 c7             	mov    %rax,%rdi
    3db9:	e8 b2 f6 ff ff       	call   3470 <_Unwind_Resume@plt>
  return deviceExtensions;
    3dbe:	90                   	nop
}
    3dbf:	48 8b 45 d8          	mov    -0x28(%rbp),%rax
    3dc3:	48 83 c4 30          	add    $0x30,%rsp
    3dc7:	5b                   	pop    %rbx
    3dc8:	41 5c                	pop    %r12
    3dca:	5d                   	pop    %rbp
    3dcb:	c3                   	ret

0000000000003dcc <_ZN3vkh36getRequiredInstanceExtensionNameListEb>:

std::vector<const char *>
getRequiredInstanceExtensionNameList(bool enableValidationLayers) {
    3dcc:	55                   	push   %rbp
    3dcd:	48 89 e5             	mov    %rsp,%rbp
    3dd0:	53                   	push   %rbx
    3dd1:	48 83 ec 38          	sub    $0x38,%rsp
    3dd5:	48 89 7d c8          	mov    %rdi,-0x38(%rbp)
    3dd9:	89 f0                	mov    %esi,%eax
    3ddb:	88 45 c4             	mov    %al,-0x3c(%rbp)
  uint32_t requiredExtensionCount;
  const char **ppRequiredExtensions =
      glfwGetRequiredInstanceExtensions(&requiredExtensionCount);
    3dde:	48 8d 45 d0          	lea    -0x30(%rbp),%rax
    3de2:	48 89 c7             	mov    %rax,%rdi
    3de5:	e8 a6 f3 ff ff       	call   3190 <glfwGetRequiredInstanceExtensions@plt>
    3dea:	48 89 45 e0          	mov    %rax,-0x20(%rbp)
  std::vector<const char *> requiredInstanceExtensions{requiredExtensionCount};
    3dee:	8b 45 d0             	mov    -0x30(%rbp),%eax
    3df1:	89 c3                	mov    %eax,%ebx
    3df3:	48 8d 45 d7          	lea    -0x29(%rbp),%rax
    3df7:	48 89 c7             	mov    %rax,%rdi
    3dfa:	e8 f9 0d 00 00       	call   4bf8 <_ZNSaIPKcEC1Ev>
    3dff:	48 8d 55 d7          	lea    -0x29(%rbp),%rdx
    3e03:	48 8b 45 c8          	mov    -0x38(%rbp),%rax
    3e07:	48 89 de             	mov    %rbx,%rsi
    3e0a:	48 89 c7             	mov    %rax,%rdi
    3e0d:	e8 1e 0e 00 00       	call   4c30 <_ZNSt6vectorIPKcSaIS1_EEC1EmRKS2_>
    3e12:	48 8d 45 d7          	lea    -0x29(%rbp),%rax
    3e16:	48 89 c7             	mov    %rax,%rdi
    3e19:	e8 f6 0d 00 00       	call   4c14 <_ZNSaIPKcED1Ev>
  for (uint32_t i = 0; i < requiredExtensionCount; ++i) {
    3e1e:	c7 45 ec 00 00 00 00 	movl   $0x0,-0x14(%rbp)
    3e25:	eb 2e                	jmp    3e55 <_ZN3vkh36getRequiredInstanceExtensionNameListEb+0x89>
    requiredInstanceExtensions[i] = ppRequiredExtensions[i];
    3e27:	8b 45 ec             	mov    -0x14(%rbp),%eax
    3e2a:	48 8d 14 c5 00 00 00 	lea    0x0(,%rax,8),%rdx
    3e31:	00 
    3e32:	48 8b 45 e0          	mov    -0x20(%rbp),%rax
    3e36:	48 01 d0             	add    %rdx,%rax
    3e39:	48 8b 18             	mov    (%rax),%rbx
    3e3c:	8b 55 ec             	mov    -0x14(%rbp),%edx
    3e3f:	48 8b 45 c8          	mov    -0x38(%rbp),%rax
    3e43:	48 89 d6             	mov    %rdx,%rsi
    3e46:	48 89 c7             	mov    %rax,%rdi
    3e49:	e8 9c 0e 00 00       	call   4cea <_ZNSt6vectorIPKcSaIS1_EEixEm>
    3e4e:	48 89 18             	mov    %rbx,(%rax)
  for (uint32_t i = 0; i < requiredExtensionCount; ++i) {
    3e51:	83 45 ec 01          	addl   $0x1,-0x14(%rbp)
    3e55:	8b 45 d0             	mov    -0x30(%rbp),%eax
    3e58:	39 45 ec             	cmp    %eax,-0x14(%rbp)
    3e5b:	72 ca                	jb     3e27 <_ZN3vkh36getRequiredInstanceExtensionNameListEb+0x5b>
  }
  if (enableValidationLayers) {
    3e5d:	80 7d c4 00          	cmpb   $0x0,-0x3c(%rbp)
    3e61:	74 54                	je     3eb7 <_ZN3vkh36getRequiredInstanceExtensionNameListEb+0xeb>
    requiredInstanceExtensions.push_back(VK_EXT_DEBUG_UTILS_EXTENSION_NAME);
    3e63:	48 8d 05 f3 c9 00 00 	lea    0xc9f3(%rip),%rax        # 1085d <_ZL47VK_FORMAT_FEATURE_2_BOX_FILTER_SAMPLED_BIT_QCOM+0x55>
    3e6a:	48 89 45 d8          	mov    %rax,-0x28(%rbp)
    3e6e:	48 8d 55 d8          	lea    -0x28(%rbp),%rdx
    3e72:	48 8b 45 c8          	mov    -0x38(%rbp),%rax
    3e76:	48 89 d6             	mov    %rdx,%rsi
    3e79:	48 89 c7             	mov    %rax,%rdi
    3e7c:	e8 89 0e 00 00       	call   4d0a <_ZNSt6vectorIPKcSaIS1_EE9push_backEOS1_>
  }
  return requiredInstanceExtensions;
    3e81:	eb 34                	jmp    3eb7 <_ZN3vkh36getRequiredInstanceExtensionNameListEb+0xeb>
  std::vector<const char *> requiredInstanceExtensions{requiredExtensionCount};
    3e83:	48 89 c3             	mov    %rax,%rbx
    3e86:	48 8d 45 d7          	lea    -0x29(%rbp),%rax
    3e8a:	48 89 c7             	mov    %rax,%rdi
    3e8d:	e8 82 0d 00 00       	call   4c14 <_ZNSaIPKcED1Ev>
    3e92:	48 89 d8             	mov    %rbx,%rax
    3e95:	48 89 c7             	mov    %rax,%rdi
    3e98:	e8 d3 f5 ff ff       	call   3470 <_Unwind_Resume@plt>
}
    3e9d:	48 89 c3             	mov    %rax,%rbx
    3ea0:	48 8b 45 c8          	mov    -0x38(%rbp),%rax
    3ea4:	48 89 c7             	mov    %rax,%rdi
    3ea7:	e8 fa 0d 00 00       	call   4ca6 <_ZNSt6vectorIPKcSaIS1_EED1Ev>
    3eac:	48 89 d8             	mov    %rbx,%rax
    3eaf:	48 89 c7             	mov    %rax,%rdi
    3eb2:	e8 b9 f5 ff ff       	call   3470 <_Unwind_Resume@plt>
  return requiredInstanceExtensions;
    3eb7:	90                   	nop
}
    3eb8:	48 8b 45 c8          	mov    -0x38(%rbp),%rax
    3ebc:	48 8b 5d f8          	mov    -0x8(%rbp),%rbx
    3ec0:	c9                   	leave
    3ec1:	c3                   	ret

0000000000003ec2 <_ZN3vkh29getAvailableInstanceLayerListEv>:

std::vector<VkLayerProperties> getAvailableInstanceLayerList() {
    3ec2:	55                   	push   %rbp
    3ec3:	48 89 e5             	mov    %rsp,%rbp
    3ec6:	53                   	push   %rbx
    3ec7:	48 83 ec 28          	sub    $0x28,%rsp
    3ecb:	48 89 7d d8          	mov    %rdi,-0x28(%rbp)
  uint32_t layerCount;
  vkEnumerateInstanceLayerProperties(&layerCount, nullptr);
    3ecf:	48 8d 45 e8          	lea    -0x18(%rbp),%rax
    3ed3:	be 00 00 00 00       	mov    $0x0,%esi
    3ed8:	48 89 c7             	mov    %rax,%rdi
    3edb:	e8 30 f4 ff ff       	call   3310 <vkEnumerateInstanceLayerProperties@plt>
  std::vector<VkLayerProperties> availableLayers{layerCount};
    3ee0:	8b 45 e8             	mov    -0x18(%rbp),%eax
    3ee3:	89 c3                	mov    %eax,%ebx
    3ee5:	48 8d 45 ef          	lea    -0x11(%rbp),%rax
    3ee9:	48 89 c7             	mov    %rax,%rdi
    3eec:	e8 99 0e 00 00       	call   4d8a <_ZNSaI17VkLayerPropertiesEC1Ev>
    3ef1:	48 8d 55 ef          	lea    -0x11(%rbp),%rdx
    3ef5:	48 8b 45 d8          	mov    -0x28(%rbp),%rax
    3ef9:	48 89 de             	mov    %rbx,%rsi
    3efc:	48 89 c7             	mov    %rax,%rdi
    3eff:	e8 be 0e 00 00       	call   4dc2 <_ZNSt6vectorI17VkLayerPropertiesSaIS0_EEC1EmRKS1_>
    3f04:	48 8d 45 ef          	lea    -0x11(%rbp),%rax
    3f08:	48 89 c7             	mov    %rax,%rdi
    3f0b:	e8 96 0e 00 00       	call   4da6 <_ZNSaI17VkLayerPropertiesED1Ev>
  vkEnumerateInstanceLayerProperties(&layerCount, availableLayers.data());
    3f10:	48 8b 45 d8          	mov    -0x28(%rbp),%rax
    3f14:	48 89 c7             	mov    %rax,%rdi
    3f17:	e8 60 0f 00 00       	call   4e7c <_ZNSt6vectorI17VkLayerPropertiesSaIS0_EE4dataEv>
    3f1c:	48 89 c2             	mov    %rax,%rdx
    3f1f:	48 8d 45 e8          	lea    -0x18(%rbp),%rax
    3f23:	48 89 d6             	mov    %rdx,%rsi
    3f26:	48 89 c7             	mov    %rax,%rdi
    3f29:	e8 e2 f3 ff ff       	call   3310 <vkEnumerateInstanceLayerProperties@plt>
  return availableLayers;
    3f2e:	eb 34                	jmp    3f64 <_ZN3vkh29getAvailableInstanceLayerListEv+0xa2>
  std::vector<VkLayerProperties> availableLayers{layerCount};
    3f30:	48 89 c3             	mov    %rax,%rbx
    3f33:	48 8d 45 ef          	lea    -0x11(%rbp),%rax
    3f37:	48 89 c7             	mov    %rax,%rdi
    3f3a:	e8 67 0e 00 00       	call   4da6 <_ZNSaI17VkLayerPropertiesED1Ev>
    3f3f:	48 89 d8             	mov    %rbx,%rax
    3f42:	48 89 c7             	mov    %rax,%rdi
    3f45:	e8 26 f5 ff ff       	call   3470 <_Unwind_Resume@plt>
}
    3f4a:	48 89 c3             	mov    %rax,%rbx
    3f4d:	48 8b 45 d8          	mov    -0x28(%rbp),%rax
    3f51:	48 89 c7             	mov    %rax,%rdi
    3f54:	e8 df 0e 00 00       	call   4e38 <_ZNSt6vectorI17VkLayerPropertiesSaIS0_EED1Ev>
    3f59:	48 89 d8             	mov    %rbx,%rax
    3f5c:	48 89 c7             	mov    %rax,%rdi
    3f5f:	e8 0c f5 ff ff       	call   3470 <_Unwind_Resume@plt>
    3f64:	48 8b 45 d8          	mov    -0x28(%rbp),%rax
    3f68:	48 8b 5d f8          	mov    -0x8(%rbp),%rbx
    3f6c:	c9                   	leave
    3f6d:	c3                   	ret

0000000000003f6e <_ZN3vkh21getPhysicalDeviceListEP12VkInstance_T>:

std::vector<VkPhysicalDevice> getPhysicalDeviceList(VkInstance instance) {
    3f6e:	55                   	push   %rbp
    3f6f:	48 89 e5             	mov    %rsp,%rbp
    3f72:	41 54                	push   %r12
    3f74:	53                   	push   %rbx
    3f75:	48 83 ec 20          	sub    $0x20,%rsp
    3f79:	48 89 7d d8          	mov    %rdi,-0x28(%rbp)
    3f7d:	48 89 75 d0          	mov    %rsi,-0x30(%rbp)
  uint32_t physicalDeviceCount;
  vkEnumeratePhysicalDevices(instance, &physicalDeviceCount, nullptr);
    3f81:	48 8d 4d e8          	lea    -0x18(%rbp),%rcx
    3f85:	48 8b 45 d0          	mov    -0x30(%rbp),%rax
    3f89:	ba 00 00 00 00       	mov    $0x0,%edx
    3f8e:	48 89 ce             	mov    %rcx,%rsi
    3f91:	48 89 c7             	mov    %rax,%rdi
    3f94:	e8 77 f1 ff ff       	call   3110 <vkEnumeratePhysicalDevices@plt>
  if (physicalDeviceCount == 0) {
    3f99:	8b 45 e8             	mov    -0x18(%rbp),%eax
    3f9c:	85 c0                	test   %eax,%eax
    3f9e:	75 3b                	jne    3fdb <_ZN3vkh21getPhysicalDeviceListEP12VkInstance_T+0x6d>
    throw std::runtime_error(
        "Failed to find any physical device with Vulkan support.");
    3fa0:	bf 10 00 00 00       	mov    $0x10,%edi
    3fa5:	e8 46 f1 ff ff       	call   30f0 <__cxa_allocate_exception@plt>
    3faa:	48 89 c3             	mov    %rax,%rbx
    throw std::runtime_error(
    3fad:	48 8d 05 bc c8 00 00 	lea    0xc8bc(%rip),%rax        # 10870 <_ZL47VK_FORMAT_FEATURE_2_BOX_FILTER_SAMPLED_BIT_QCOM+0x68>
    3fb4:	48 89 c6             	mov    %rax,%rsi
    3fb7:	48 89 df             	mov    %rbx,%rdi
    3fba:	e8 e1 f0 ff ff       	call   30a0 <_ZNSt13runtime_errorC1EPKc@plt>
        "Failed to find any physical device with Vulkan support.");
    3fbf:	48 8b 05 e2 6f 01 00 	mov    0x16fe2(%rip),%rax        # 1afa8 <_ZNSt13runtime_errorD1Ev@GLIBCXX_3.4>
    3fc6:	48 89 c2             	mov    %rax,%rdx
    3fc9:	48 8d 05 70 6d 01 00 	lea    0x16d70(%rip),%rax        # 1ad40 <_ZTISt13runtime_error@GLIBCXX_3.4>
    3fd0:	48 89 c6             	mov    %rax,%rsi
    3fd3:	48 89 df             	mov    %rbx,%rdi
    3fd6:	e8 75 f4 ff ff       	call   3450 <__cxa_throw@plt>
  }
  std::vector<VkPhysicalDevice> physicalDevices{physicalDeviceCount};
    3fdb:	8b 45 e8             	mov    -0x18(%rbp),%eax
    3fde:	89 c3                	mov    %eax,%ebx
    3fe0:	48 8d 45 ef          	lea    -0x11(%rbp),%rax
    3fe4:	48 89 c7             	mov    %rax,%rdi
    3fe7:	e8 0c 0f 00 00       	call   4ef8 <_ZNSaIP18VkPhysicalDevice_TEC1Ev>
    3fec:	48 8d 55 ef          	lea    -0x11(%rbp),%rdx
    3ff0:	48 8b 45 d8          	mov    -0x28(%rbp),%rax
    3ff4:	48 89 de             	mov    %rbx,%rsi
    3ff7:	48 89 c7             	mov    %rax,%rdi
    3ffa:	e8 31 0f 00 00       	call   4f30 <_ZNSt6vectorIP18VkPhysicalDevice_TSaIS1_EEC1EmRKS2_>
    3fff:	48 8d 45 ef          	lea    -0x11(%rbp),%rax
    4003:	48 89 c7             	mov    %rax,%rdi
    4006:	e8 09 0f 00 00       	call   4f14 <_ZNSaIP18VkPhysicalDevice_TED1Ev>
  if (vkEnumeratePhysicalDevices(instance, &physicalDeviceCount,
    400b:	48 8b 45 d8          	mov    -0x28(%rbp),%rax
    400f:	48 89 c7             	mov    %rax,%rdi
    4012:	e8 d3 0f 00 00       	call   4fea <_ZNSt6vectorIP18VkPhysicalDevice_TSaIS1_EE4dataEv>
    4017:	48 89 c2             	mov    %rax,%rdx
    401a:	48 8d 4d e8          	lea    -0x18(%rbp),%rcx
    401e:	48 8b 45 d0          	mov    -0x30(%rbp),%rax
    4022:	48 89 ce             	mov    %rcx,%rsi
    4025:	48 89 c7             	mov    %rax,%rdi
    4028:	e8 e3 f0 ff ff       	call   3110 <vkEnumeratePhysicalDevices@plt>
                                 physicalDevices.data()) != VK_SUCCESS) {
    402d:	85 c0                	test   %eax,%eax
    402f:	0f 95 c0             	setne  %al
  if (vkEnumeratePhysicalDevices(instance, &physicalDeviceCount,
    4032:	84 c0                	test   %al,%al
    4034:	0f 84 95 00 00 00    	je     40cf <_ZN3vkh21getPhysicalDeviceListEP12VkInstance_T+0x161>
    throw std::runtime_error("Failed to get physical devices list.");
    403a:	bf 10 00 00 00       	mov    $0x10,%edi
    403f:	e8 ac f0 ff ff       	call   30f0 <__cxa_allocate_exception@plt>
    4044:	48 89 c3             	mov    %rax,%rbx
    4047:	48 8d 05 5a c8 00 00 	lea    0xc85a(%rip),%rax        # 108a8 <_ZL47VK_FORMAT_FEATURE_2_BOX_FILTER_SAMPLED_BIT_QCOM+0xa0>
    404e:	48 89 c6             	mov    %rax,%rsi
    4051:	48 89 df             	mov    %rbx,%rdi
    4054:	e8 47 f0 ff ff       	call   30a0 <_ZNSt13runtime_errorC1EPKc@plt>
    4059:	48 8b 05 48 6f 01 00 	mov    0x16f48(%rip),%rax        # 1afa8 <_ZNSt13runtime_errorD1Ev@GLIBCXX_3.4>
    4060:	48 89 c2             	mov    %rax,%rdx
    4063:	48 8d 05 d6 6c 01 00 	lea    0x16cd6(%rip),%rax        # 1ad40 <_ZTISt13runtime_error@GLIBCXX_3.4>
    406a:	48 89 c6             	mov    %rax,%rsi
    406d:	48 89 df             	mov    %rbx,%rdi
    4070:	e8 db f3 ff ff       	call   3450 <__cxa_throw@plt>
        "Failed to find any physical device with Vulkan support.");
    4075:	49 89 c4             	mov    %rax,%r12
    4078:	48 89 df             	mov    %rbx,%rdi
    407b:	e8 f0 f0 ff ff       	call   3170 <__cxa_free_exception@plt>
    4080:	4c 89 e0             	mov    %r12,%rax
    4083:	48 89 c7             	mov    %rax,%rdi
    4086:	e8 e5 f3 ff ff       	call   3470 <_Unwind_Resume@plt>
  std::vector<VkPhysicalDevice> physicalDevices{physicalDeviceCount};
    408b:	48 89 c3             	mov    %rax,%rbx
    408e:	48 8d 45 ef          	lea    -0x11(%rbp),%rax
    4092:	48 89 c7             	mov    %rax,%rdi
    4095:	e8 7a 0e 00 00       	call   4f14 <_ZNSaIP18VkPhysicalDevice_TED1Ev>
    409a:	48 89 d8             	mov    %rbx,%rax
    409d:	48 89 c7             	mov    %rax,%rdi
    40a0:	e8 cb f3 ff ff       	call   3470 <_Unwind_Resume@plt>
    throw std::runtime_error("Failed to get physical devices list.");
    40a5:	49 89 c4             	mov    %rax,%r12
    40a8:	48 89 df             	mov    %rbx,%rdi
    40ab:	e8 c0 f0 ff ff       	call   3170 <__cxa_free_exception@plt>
    40b0:	4c 89 e3             	mov    %r12,%rbx
    40b3:	eb 03                	jmp    40b8 <_ZN3vkh21getPhysicalDeviceListEP12VkInstance_T+0x14a>
  };
  return physicalDevices;
}
    40b5:	48 89 c3             	mov    %rax,%rbx
    40b8:	48 8b 45 d8          	mov    -0x28(%rbp),%rax
    40bc:	48 89 c7             	mov    %rax,%rdi
    40bf:	e8 e2 0e 00 00       	call   4fa6 <_ZNSt6vectorIP18VkPhysicalDevice_TSaIS1_EED1Ev>
    40c4:	48 89 d8             	mov    %rbx,%rax
    40c7:	48 89 c7             	mov    %rax,%rdi
    40ca:	e8 a1 f3 ff ff       	call   3470 <_Unwind_Resume@plt>
  return physicalDevices;
    40cf:	90                   	nop
}
    40d0:	48 8b 45 d8          	mov    -0x28(%rbp),%rax
    40d4:	48 83 c4 20          	add    $0x20,%rsp
    40d8:	5b                   	pop    %rbx
    40d9:	41 5c                	pop    %r12
    40db:	5d                   	pop    %rbp
    40dc:	c3                   	ret

00000000000040dd <_ZN3vkh29getPhysicalDevicePropertyListEP18VkPhysicalDevice_T>:

VkPhysicalDeviceProperties
getPhysicalDevicePropertyList(VkPhysicalDevice physicalDevice) {
    40dd:	55                   	push   %rbp
    40de:	48 89 e5             	mov    %rsp,%rbp
    40e1:	48 83 ec 10          	sub    $0x10,%rsp
    40e5:	48 89 7d f8          	mov    %rdi,-0x8(%rbp)
    40e9:	48 89 75 f0          	mov    %rsi,-0x10(%rbp)
  VkPhysicalDeviceProperties properties;
  vkGetPhysicalDeviceProperties(physicalDevice, &properties);
    40ed:	48 8b 55 f8          	mov    -0x8(%rbp),%rdx
    40f1:	48 8b 45 f0          	mov    -0x10(%rbp),%rax
    40f5:	48 89 d6             	mov    %rdx,%rsi
    40f8:	48 89 c7             	mov    %rax,%rdi
    40fb:	e8 b0 ef ff ff       	call   30b0 <vkGetPhysicalDeviceProperties@plt>
  return properties;
    4100:	90                   	nop
}
    4101:	48 8b 45 f8          	mov    -0x8(%rbp),%rax
    4105:	c9                   	leave
    4106:	c3                   	ret

0000000000004107 <_ZN3vkh29getPhysicalDevicePropertyListEP18VkPhysicalDevice_TPv>:

VkPhysicalDeviceProperties2
getPhysicalDevicePropertyList(VkPhysicalDevice physicalDevice,
                              void *pNextProperty) {
    4107:	55                   	push   %rbp
    4108:	48 89 e5             	mov    %rsp,%rbp
    410b:	48 83 ec 20          	sub    $0x20,%rsp
    410f:	48 89 7d f8          	mov    %rdi,-0x8(%rbp)
    4113:	48 89 75 f0          	mov    %rsi,-0x10(%rbp)
    4117:	48 89 55 e8          	mov    %rdx,-0x18(%rbp)
  VkPhysicalDeviceProperties2 properties;
  properties.sType = VK_STRUCTURE_TYPE_PHYSICAL_DEVICE_PROPERTIES_2;
    411b:	48 8b 45 f8          	mov    -0x8(%rbp),%rax
    411f:	c7 00 79 b0 9b 3b    	movl   $0x3b9bb079,(%rax)
  properties.pNext = pNextProperty;
    4125:	48 8b 45 f8          	mov    -0x8(%rbp),%rax
    4129:	48 8b 55 e8          	mov    -0x18(%rbp),%rdx
    412d:	48 89 50 08          	mov    %rdx,0x8(%rax)
  vkGetPhysicalDeviceProperties2(physicalDevice, &properties);
    4131:	48 8b 55 f8          	mov    -0x8(%rbp),%rdx
    4135:	48 8b 45 f0          	mov    -0x10(%rbp),%rax
    4139:	48 89 d6             	mov    %rdx,%rsi
    413c:	48 89 c7             	mov    %rax,%rdi
    413f:	e8 dc f0 ff ff       	call   3220 <vkGetPhysicalDeviceProperties2@plt>
  return properties;
    4144:	90                   	nop
}
    4145:	48 8b 45 f8          	mov    -0x8(%rbp),%rax
    4149:	c9                   	leave
    414a:	c3                   	ret

000000000000414b <_ZN3vkh40getPhysicalDeviceQueueFamilyPropertyListEP18VkPhysicalDevice_T>:

std::vector<VkQueueFamilyProperties>
getPhysicalDeviceQueueFamilyPropertyList(VkPhysicalDevice physicalDevice) {
    414b:	55                   	push   %rbp
    414c:	48 89 e5             	mov    %rsp,%rbp
    414f:	53                   	push   %rbx
    4150:	48 83 ec 28          	sub    $0x28,%rsp
    4154:	48 89 7d d8          	mov    %rdi,-0x28(%rbp)
    4158:	48 89 75 d0          	mov    %rsi,-0x30(%rbp)
  uint32_t queueFamilyPropertyCount;
  vkGetPhysicalDeviceQueueFamilyProperties(physicalDevice,
    415c:	48 8d 4d e8          	lea    -0x18(%rbp),%rcx
    4160:	48 8b 45 d0          	mov    -0x30(%rbp),%rax
    4164:	ba 00 00 00 00       	mov    $0x0,%edx
    4169:	48 89 ce             	mov    %rcx,%rsi
    416c:	48 89 c7             	mov    %rax,%rdi
    416f:	e8 0c f0 ff ff       	call   3180 <vkGetPhysicalDeviceQueueFamilyProperties@plt>
                                           &queueFamilyPropertyCount, nullptr);
  std::vector<VkQueueFamilyProperties> queueFamilyProperties{
      queueFamilyPropertyCount};
    4174:	8b 45 e8             	mov    -0x18(%rbp),%eax
    4177:	89 c3                	mov    %eax,%ebx
    4179:	48 8d 45 ef          	lea    -0x11(%rbp),%rax
    417d:	48 89 c7             	mov    %rax,%rdi
    4180:	e8 d7 0e 00 00       	call   505c <_ZNSaI23VkQueueFamilyPropertiesEC1Ev>
    4185:	48 8d 55 ef          	lea    -0x11(%rbp),%rdx
    4189:	48 8b 45 d8          	mov    -0x28(%rbp),%rax
    418d:	48 89 de             	mov    %rbx,%rsi
    4190:	48 89 c7             	mov    %rax,%rdi
    4193:	e8 fc 0e 00 00       	call   5094 <_ZNSt6vectorI23VkQueueFamilyPropertiesSaIS0_EEC1EmRKS1_>
    4198:	48 8d 45 ef          	lea    -0x11(%rbp),%rax
    419c:	48 89 c7             	mov    %rax,%rdi
    419f:	e8 d4 0e 00 00       	call   5078 <_ZNSaI23VkQueueFamilyPropertiesED1Ev>
  vkGetPhysicalDeviceQueueFamilyProperties(
    41a4:	48 8b 45 d8          	mov    -0x28(%rbp),%rax
    41a8:	48 89 c7             	mov    %rax,%rdi
    41ab:	e8 9e 0f 00 00       	call   514e <_ZNSt6vectorI23VkQueueFamilyPropertiesSaIS0_EE4dataEv>
    41b0:	48 89 c2             	mov    %rax,%rdx
    41b3:	48 8d 4d e8          	lea    -0x18(%rbp),%rcx
    41b7:	48 8b 45 d0          	mov    -0x30(%rbp),%rax
    41bb:	48 89 ce             	mov    %rcx,%rsi
    41be:	48 89 c7             	mov    %rax,%rdi
    41c1:	e8 ba ef ff ff       	call   3180 <vkGetPhysicalDeviceQueueFamilyProperties@plt>
      physicalDevice, &queueFamilyPropertyCount, queueFamilyProperties.data());
  return queueFamilyProperties;
    41c6:	eb 34                	jmp    41fc <_ZN3vkh40getPhysicalDeviceQueueFamilyPropertyListEP18VkPhysicalDevice_T+0xb1>
      queueFamilyPropertyCount};
    41c8:	48 89 c3             	mov    %rax,%rbx
    41cb:	48 8d 45 ef          	lea    -0x11(%rbp),%rax
    41cf:	48 89 c7             	mov    %rax,%rdi
    41d2:	e8 a1 0e 00 00       	call   5078 <_ZNSaI23VkQueueFamilyPropertiesED1Ev>
    41d7:	48 89 d8             	mov    %rbx,%rax
    41da:	48 89 c7             	mov    %rax,%rdi
    41dd:	e8 8e f2 ff ff       	call   3470 <_Unwind_Resume@plt>
}
    41e2:	48 89 c3             	mov    %rax,%rbx
    41e5:	48 8b 45 d8          	mov    -0x28(%rbp),%rax
    41e9:	48 89 c7             	mov    %rax,%rdi
    41ec:	e8 19 0f 00 00       	call   510a <_ZNSt6vectorI23VkQueueFamilyPropertiesSaIS0_EED1Ev>
    41f1:	48 89 d8             	mov    %rbx,%rax
    41f4:	48 89 c7             	mov    %rax,%rdi
    41f7:	e8 74 f2 ff ff       	call   3470 <_Unwind_Resume@plt>
    41fc:	48 8b 45 d8          	mov    -0x28(%rbp),%rax
    4200:	48 8b 5d f8          	mov    -0x8(%rbp),%rbx
    4204:	c9                   	leave
    4205:	c3                   	ret

0000000000004206 <_ZN3vkh34getGraphicsQueueFamilyPropertyListEP18VkPhysicalDevice_T>:

std::vector<std::optional<VkQueueFamilyProperties>>
getGraphicsQueueFamilyPropertyList(VkPhysicalDevice physicalDevice) {
    4206:	55                   	push   %rbp
    4207:	48 89 e5             	mov    %rsp,%rbp
    420a:	53                   	push   %rbx
    420b:	48 83 ec 68          	sub    $0x68,%rsp
    420f:	48 89 7d 98          	mov    %rdi,-0x68(%rbp)
    4213:	48 89 75 90          	mov    %rsi,-0x70(%rbp)
  auto queueFamilyProps =
      getPhysicalDeviceQueueFamilyPropertyList(physicalDevice);
    4217:	48 8d 45 b0          	lea    -0x50(%rbp),%rax
    421b:	48 8b 55 90          	mov    -0x70(%rbp),%rdx
    421f:	48 89 d6             	mov    %rdx,%rsi
    4222:	48 89 c7             	mov    %rax,%rdi
    4225:	e8 21 ff ff ff       	call   414b <_ZN3vkh40getPhysicalDeviceQueueFamilyPropertyListEP18VkPhysicalDevice_T>
  std::vector<std::optional<VkQueueFamilyProperties>> graphicsQueueFamilies{
      queueFamilyProps.size()};
    422a:	48 8d 45 b0          	lea    -0x50(%rbp),%rax
    422e:	48 89 c7             	mov    %rax,%rdi
    4231:	e8 94 0f 00 00       	call   51ca <_ZNKSt6vectorI23VkQueueFamilyPropertiesSaIS0_EE4sizeEv>
    4236:	48 89 c3             	mov    %rax,%rbx
    4239:	48 8d 45 d7          	lea    -0x29(%rbp),%rax
    423d:	48 89 c7             	mov    %rax,%rdi
    4240:	e8 b3 0f 00 00       	call   51f8 <_ZNSaISt8optionalI23VkQueueFamilyPropertiesEEC1Ev>
    4245:	48 8d 55 d7          	lea    -0x29(%rbp),%rdx
    4249:	48 8b 45 98          	mov    -0x68(%rbp),%rax
    424d:	48 89 de             	mov    %rbx,%rsi
    4250:	48 89 c7             	mov    %rax,%rdi
    4253:	e8 d8 0f 00 00       	call   5230 <_ZNSt6vectorISt8optionalI23VkQueueFamilyPropertiesESaIS2_EEC1EmRKS3_>
    4258:	48 8d 45 d7          	lea    -0x29(%rbp),%rax
    425c:	48 89 c7             	mov    %rax,%rdi
    425f:	e8 b0 0f 00 00       	call   5214 <_ZNSaISt8optionalI23VkQueueFamilyPropertiesEED1Ev>
  std::size_t index = 0;
    4264:	48 c7 45 e8 00 00 00 	movq   $0x0,-0x18(%rbp)
    426b:	00 
  for (const auto &queueFamilyProp : queueFamilyProps) {
    426c:	48 8d 45 b0          	lea    -0x50(%rbp),%rax
    4270:	48 89 45 e0          	mov    %rax,-0x20(%rbp)
    4274:	48 8b 45 e0          	mov    -0x20(%rbp),%rax
    4278:	48 89 c7             	mov    %rax,%rdi
    427b:	e8 6a 10 00 00       	call   52ea <_ZNSt6vectorI23VkQueueFamilyPropertiesSaIS0_EE5beginEv>
    4280:	48 89 45 a8          	mov    %rax,-0x58(%rbp)
    4284:	48 8b 45 e0          	mov    -0x20(%rbp),%rax
    4288:	48 89 c7             	mov    %rax,%rdi
    428b:	e8 80 10 00 00       	call   5310 <_ZNSt6vectorI23VkQueueFamilyPropertiesSaIS0_EE3endEv>
    4290:	48 89 45 a0          	mov    %rax,-0x60(%rbp)
    4294:	eb 4e                	jmp    42e4 <_ZN3vkh34getGraphicsQueueFamilyPropertyListEP18VkPhysicalDevice_T+0xde>
    4296:	48 8d 45 a8          	lea    -0x58(%rbp),%rax
    429a:	48 89 c7             	mov    %rax,%rdi
    429d:	e8 f2 10 00 00       	call   5394 <_ZNK9__gnu_cxx17__normal_iteratorIP23VkQueueFamilyPropertiesSt6vectorIS1_SaIS1_EEEdeEv>
    42a2:	48 89 45 d8          	mov    %rax,-0x28(%rbp)
    if (queueFamilyProp.queueFlags & VK_QUEUE_GRAPHICS_BIT) {
    42a6:	48 8b 45 d8          	mov    -0x28(%rbp),%rax
    42aa:	8b 00                	mov    (%rax),%eax
    42ac:	83 e0 01             	and    $0x1,%eax
    42af:	85 c0                	test   %eax,%eax
    42b1:	74 25                	je     42d8 <_ZN3vkh34getGraphicsQueueFamilyPropertyListEP18VkPhysicalDevice_T+0xd2>
      graphicsQueueFamilies[index] = queueFamilyProp;
    42b3:	48 8b 55 e8          	mov    -0x18(%rbp),%rdx
    42b7:	48 8b 45 98          	mov    -0x68(%rbp),%rax
    42bb:	48 89 d6             	mov    %rdx,%rsi
    42be:	48 89 c7             	mov    %rax,%rdi
    42c1:	e8 e0 10 00 00       	call   53a6 <_ZNSt6vectorISt8optionalI23VkQueueFamilyPropertiesESaIS2_EEixEm>
    42c6:	48 89 c2             	mov    %rax,%rdx
    42c9:	48 8b 45 d8          	mov    -0x28(%rbp),%rax
    42cd:	48 89 c6             	mov    %rax,%rsi
    42d0:	48 89 d7             	mov    %rdx,%rdi
    42d3:	e8 f8 10 00 00       	call   53d0 <_ZNSt8optionalI23VkQueueFamilyPropertiesEaSIRKS0_EENSt9enable_ifIX7__and_vISt6__not_ISt7is_sameIS1_NSt9remove_cvINSt16remove_referenceIT_E4typeEE4typeEEES6_ISt6__and_IJSt9is_scalarIS0_ES7_IS0_NSt5decayISA_E4typeEEEEESt16is_constructibleIS0_JSA_EESt13is_assignableIRS0_SA_EEERS1_E4typeEOSA_>
  for (const auto &queueFamilyProp : queueFamilyProps) {
    42d8:	48 8d 45 a8          	lea    -0x58(%rbp),%rax
    42dc:	48 89 c7             	mov    %rax,%rdi
    42df:	e8 90 10 00 00       	call   5374 <_ZN9__gnu_cxx17__normal_iteratorIP23VkQueueFamilyPropertiesSt6vectorIS1_SaIS1_EEEppEv>
    42e4:	48 8d 55 a0          	lea    -0x60(%rbp),%rdx
    42e8:	48 8d 45 a8          	lea    -0x58(%rbp),%rax
    42ec:	48 89 d6             	mov    %rdx,%rsi
    42ef:	48 89 c7             	mov    %rax,%rdi
    42f2:	e8 42 10 00 00       	call   5339 <_ZN9__gnu_cxxneIP23VkQueueFamilyPropertiesSt6vectorIS1_SaIS1_EEEEbRKNS_17__normal_iteratorIT_T0_EESB_>
    42f7:	84 c0                	test   %al,%al
    42f9:	75 9b                	jne    4296 <_ZN3vkh34getGraphicsQueueFamilyPropertyListEP18VkPhysicalDevice_T+0x90>
    }
  }
  return graphicsQueueFamilies;
    42fb:	90                   	nop
}
    42fc:	48 8d 45 b0          	lea    -0x50(%rbp),%rax
    4300:	48 89 c7             	mov    %rax,%rdi
    4303:	e8 02 0e 00 00       	call   510a <_ZNSt6vectorI23VkQueueFamilyPropertiesSaIS0_EED1Ev>
  return graphicsQueueFamilies;
    4308:	eb 26                	jmp    4330 <_ZN3vkh34getGraphicsQueueFamilyPropertyListEP18VkPhysicalDevice_T+0x12a>
      queueFamilyProps.size()};
    430a:	48 89 c3             	mov    %rax,%rbx
    430d:	48 8d 45 d7          	lea    -0x29(%rbp),%rax
    4311:	48 89 c7             	mov    %rax,%rdi
    4314:	e8 fb 0e 00 00       	call   5214 <_ZNSaISt8optionalI23VkQueueFamilyPropertiesEED1Ev>
}
    4319:	48 8d 45 b0          	lea    -0x50(%rbp),%rax
    431d:	48 89 c7             	mov    %rax,%rdi
    4320:	e8 e5 0d 00 00       	call   510a <_ZNSt6vectorI23VkQueueFamilyPropertiesSaIS0_EED1Ev>
    4325:	48 89 d8             	mov    %rbx,%rax
    4328:	48 89 c7             	mov    %rax,%rdi
    432b:	e8 40 f1 ff ff       	call   3470 <_Unwind_Resume@plt>
    4330:	48 8b 45 98          	mov    -0x68(%rbp),%rax
    4334:	48 8b 5d f8          	mov    -0x8(%rbp),%rbx
    4338:	c9                   	leave
    4339:	c3                   	ret

000000000000433a <_ZN3vkh33getComputeQueueFamilyPropertyListEP18VkPhysicalDevice_T>:

std::vector<std::optional<VkQueueFamilyProperties>>
getComputeQueueFamilyPropertyList(VkPhysicalDevice physicalDevice) {
    433a:	55                   	push   %rbp
    433b:	48 89 e5             	mov    %rsp,%rbp
    433e:	53                   	push   %rbx
    433f:	48 83 ec 68          	sub    $0x68,%rsp
    4343:	48 89 7d 98          	mov    %rdi,-0x68(%rbp)
    4347:	48 89 75 90          	mov    %rsi,-0x70(%rbp)
  auto queueFamilyProps =
      getPhysicalDeviceQueueFamilyPropertyList(physicalDevice);
    434b:	48 8d 45 b0          	lea    -0x50(%rbp),%rax
    434f:	48 8b 55 90          	mov    -0x70(%rbp),%rdx
    4353:	48 89 d6             	mov    %rdx,%rsi
    4356:	48 89 c7             	mov    %rax,%rdi
    4359:	e8 ed fd ff ff       	call   414b <_ZN3vkh40getPhysicalDeviceQueueFamilyPropertyListEP18VkPhysicalDevice_T>
  std::vector<std::optional<VkQueueFamilyProperties>> computeQueueFamilies{
      queueFamilyProps.size()};
    435e:	48 8d 45 b0          	lea    -0x50(%rbp),%rax
    4362:	48 89 c7             	mov    %rax,%rdi
    4365:	e8 60 0e 00 00       	call   51ca <_ZNKSt6vectorI23VkQueueFamilyPropertiesSaIS0_EE4sizeEv>
    436a:	48 89 c3             	mov    %rax,%rbx
    436d:	48 8d 45 d7          	lea    -0x29(%rbp),%rax
    4371:	48 89 c7             	mov    %rax,%rdi
    4374:	e8 7f 0e 00 00       	call   51f8 <_ZNSaISt8optionalI23VkQueueFamilyPropertiesEEC1Ev>
    4379:	48 8d 55 d7          	lea    -0x29(%rbp),%rdx
    437d:	48 8b 45 98          	mov    -0x68(%rbp),%rax
    4381:	48 89 de             	mov    %rbx,%rsi
    4384:	48 89 c7             	mov    %rax,%rdi
    4387:	e8 a4 0e 00 00       	call   5230 <_ZNSt6vectorISt8optionalI23VkQueueFamilyPropertiesESaIS2_EEC1EmRKS3_>
    438c:	48 8d 45 d7          	lea    -0x29(%rbp),%rax
    4390:	48 89 c7             	mov    %rax,%rdi
    4393:	e8 7c 0e 00 00       	call   5214 <_ZNSaISt8optionalI23VkQueueFamilyPropertiesEED1Ev>
  std::size_t index = 0;
    4398:	48 c7 45 e8 00 00 00 	movq   $0x0,-0x18(%rbp)
    439f:	00 
  for (const auto &queueFamilyProp : queueFamilyProps) {
    43a0:	48 8d 45 b0          	lea    -0x50(%rbp),%rax
    43a4:	48 89 45 e0          	mov    %rax,-0x20(%rbp)
    43a8:	48 8b 45 e0          	mov    -0x20(%rbp),%rax
    43ac:	48 89 c7             	mov    %rax,%rdi
    43af:	e8 36 0f 00 00       	call   52ea <_ZNSt6vectorI23VkQueueFamilyPropertiesSaIS0_EE5beginEv>
    43b4:	48 89 45 a8          	mov    %rax,-0x58(%rbp)
    43b8:	48 8b 45 e0          	mov    -0x20(%rbp),%rax
    43bc:	48 89 c7             	mov    %rax,%rdi
    43bf:	e8 4c 0f 00 00       	call   5310 <_ZNSt6vectorI23VkQueueFamilyPropertiesSaIS0_EE3endEv>
    43c4:	48 89 45 a0          	mov    %rax,-0x60(%rbp)
    43c8:	eb 53                	jmp    441d <_ZN3vkh33getComputeQueueFamilyPropertyListEP18VkPhysicalDevice_T+0xe3>
    43ca:	48 8d 45 a8          	lea    -0x58(%rbp),%rax
    43ce:	48 89 c7             	mov    %rax,%rdi
    43d1:	e8 be 0f 00 00       	call   5394 <_ZNK9__gnu_cxx17__normal_iteratorIP23VkQueueFamilyPropertiesSt6vectorIS1_SaIS1_EEEdeEv>
    43d6:	48 89 45 d8          	mov    %rax,-0x28(%rbp)
    if (queueFamilyProp.queueFlags & VK_QUEUE_COMPUTE_BIT) {
    43da:	48 8b 45 d8          	mov    -0x28(%rbp),%rax
    43de:	8b 00                	mov    (%rax),%eax
    43e0:	83 e0 02             	and    $0x2,%eax
    43e3:	85 c0                	test   %eax,%eax
    43e5:	74 25                	je     440c <_ZN3vkh33getComputeQueueFamilyPropertyListEP18VkPhysicalDevice_T+0xd2>
      computeQueueFamilies[index] = queueFamilyProp;
    43e7:	48 8b 55 e8          	mov    -0x18(%rbp),%rdx
    43eb:	48 8b 45 98          	mov    -0x68(%rbp),%rax
    43ef:	48 89 d6             	mov    %rdx,%rsi
    43f2:	48 89 c7             	mov    %rax,%rdi
    43f5:	e8 ac 0f 00 00       	call   53a6 <_ZNSt6vectorISt8optionalI23VkQueueFamilyPropertiesESaIS2_EEixEm>
    43fa:	48 89 c2             	mov    %rax,%rdx
    43fd:	48 8b 45 d8          	mov    -0x28(%rbp),%rax
    4401:	48 89 c6             	mov    %rax,%rsi
    4404:	48 89 d7             	mov    %rdx,%rdi
    4407:	e8 c4 0f 00 00       	call   53d0 <_ZNSt8optionalI23VkQueueFamilyPropertiesEaSIRKS0_EENSt9enable_ifIX7__and_vISt6__not_ISt7is_sameIS1_NSt9remove_cvINSt16remove_referenceIT_E4typeEE4typeEEES6_ISt6__and_IJSt9is_scalarIS0_ES7_IS0_NSt5decayISA_E4typeEEEEESt16is_constructibleIS0_JSA_EESt13is_assignableIRS0_SA_EEERS1_E4typeEOSA_>
    }
    ++index;
    440c:	48 83 45 e8 01       	addq   $0x1,-0x18(%rbp)
  for (const auto &queueFamilyProp : queueFamilyProps) {
    4411:	48 8d 45 a8          	lea    -0x58(%rbp),%rax
    4415:	48 89 c7             	mov    %rax,%rdi
    4418:	e8 57 0f 00 00       	call   5374 <_ZN9__gnu_cxx17__normal_iteratorIP23VkQueueFamilyPropertiesSt6vectorIS1_SaIS1_EEEppEv>
    441d:	48 8d 55 a0          	lea    -0x60(%rbp),%rdx
    4421:	48 8d 45 a8          	lea    -0x58(%rbp),%rax
    4425:	48 89 d6             	mov    %rdx,%rsi
    4428:	48 89 c7             	mov    %rax,%rdi
    442b:	e8 09 0f 00 00       	call   5339 <_ZN9__gnu_cxxneIP23VkQueueFamilyPropertiesSt6vectorIS1_SaIS1_EEEEbRKNS_17__normal_iteratorIT_T0_EESB_>
    4430:	84 c0                	test   %al,%al
    4432:	75 96                	jne    43ca <_ZN3vkh33getComputeQueueFamilyPropertyListEP18VkPhysicalDevice_T+0x90>
  }
  return computeQueueFamilies;
    4434:	90                   	nop
}
    4435:	48 8d 45 b0          	lea    -0x50(%rbp),%rax
    4439:	48 89 c7             	mov    %rax,%rdi
    443c:	e8 c9 0c 00 00       	call   510a <_ZNSt6vectorI23VkQueueFamilyPropertiesSaIS0_EED1Ev>
  return computeQueueFamilies;
    4441:	eb 26                	jmp    4469 <_ZN3vkh33getComputeQueueFamilyPropertyListEP18VkPhysicalDevice_T+0x12f>
      queueFamilyProps.size()};
    4443:	48 89 c3             	mov    %rax,%rbx
    4446:	48 8d 45 d7          	lea    -0x29(%rbp),%rax
    444a:	48 89 c7             	mov    %rax,%rdi
    444d:	e8 c2 0d 00 00       	call   5214 <_ZNSaISt8optionalI23VkQueueFamilyPropertiesEED1Ev>
}
    4452:	48 8d 45 b0          	lea    -0x50(%rbp),%rax
    4456:	48 89 c7             	mov    %rax,%rdi
    4459:	e8 ac 0c 00 00       	call   510a <_ZNSt6vectorI23VkQueueFamilyPropertiesSaIS0_EED1Ev>
    445e:	48 89 d8             	mov    %rbx,%rax
    4461:	48 89 c7             	mov    %rax,%rdi
    4464:	e8 07 f0 ff ff       	call   3470 <_Unwind_Resume@plt>
    4469:	48 8b 45 98          	mov    -0x68(%rbp),%rax
    446d:	48 8b 5d f8          	mov    -0x8(%rbp),%rbx
    4471:	c9                   	leave
    4472:	c3                   	ret

0000000000004473 <_ZN3vkh33getPresentQueueFamilyPropertyListEP18VkPhysicalDevice_TP14VkSurfaceKHR_T>:

std::vector<std::optional<VkQueueFamilyProperties>>
getPresentQueueFamilyPropertyList(VkPhysicalDevice physicalDevice,
                                  VkSurfaceKHR surface) {
    4473:	55                   	push   %rbp
    4474:	48 89 e5             	mov    %rsp,%rbp
    4477:	53                   	push   %rbx
    4478:	48 81 ec 88 00 00 00 	sub    $0x88,%rsp
    447f:	48 89 7d 88          	mov    %rdi,-0x78(%rbp)
    4483:	48 89 75 80          	mov    %rsi,-0x80(%rbp)
    4487:	48 89 95 78 ff ff ff 	mov    %rdx,-0x88(%rbp)
  auto queueFamilyProps =
      getPhysicalDeviceQueueFamilyPropertyList(physicalDevice);
    448e:	48 8d 45 b0          	lea    -0x50(%rbp),%rax
    4492:	48 8b 55 80          	mov    -0x80(%rbp),%rdx
    4496:	48 89 d6             	mov    %rdx,%rsi
    4499:	48 89 c7             	mov    %rax,%rdi
    449c:	e8 aa fc ff ff       	call   414b <_ZN3vkh40getPhysicalDeviceQueueFamilyPropertyListEP18VkPhysicalDevice_T>
  std::vector<std::optional<VkQueueFamilyProperties>> presentQueueFamilies{
      queueFamilyProps.size()};
    44a1:	48 8d 45 b0          	lea    -0x50(%rbp),%rax
    44a5:	48 89 c7             	mov    %rax,%rdi
    44a8:	e8 1d 0d 00 00       	call   51ca <_ZNKSt6vectorI23VkQueueFamilyPropertiesSaIS0_EE4sizeEv>
    44ad:	48 89 c3             	mov    %rax,%rbx
    44b0:	48 8d 45 d7          	lea    -0x29(%rbp),%rax
    44b4:	48 89 c7             	mov    %rax,%rdi
    44b7:	e8 3c 0d 00 00       	call   51f8 <_ZNSaISt8optionalI23VkQueueFamilyPropertiesEEC1Ev>
    44bc:	48 8d 55 d7          	lea    -0x29(%rbp),%rdx
    44c0:	48 8b 45 88          	mov    -0x78(%rbp),%rax
    44c4:	48 89 de             	mov    %rbx,%rsi
    44c7:	48 89 c7             	mov    %rax,%rdi
    44ca:	e8 61 0d 00 00       	call   5230 <_ZNSt6vectorISt8optionalI23VkQueueFamilyPropertiesESaIS2_EEC1EmRKS3_>
    44cf:	48 8d 45 d7          	lea    -0x29(%rbp),%rax
    44d3:	48 89 c7             	mov    %rax,%rdi
    44d6:	e8 39 0d 00 00       	call   5214 <_ZNSaISt8optionalI23VkQueueFamilyPropertiesEED1Ev>
  uint32_t index = 0;
    44db:	c7 45 ec 00 00 00 00 	movl   $0x0,-0x14(%rbp)
  for (const auto &queueFamilyProp : queueFamilyProps) {
    44e2:	48 8d 45 b0          	lea    -0x50(%rbp),%rax
    44e6:	48 89 45 e0          	mov    %rax,-0x20(%rbp)
    44ea:	48 8b 45 e0          	mov    -0x20(%rbp),%rax
    44ee:	48 89 c7             	mov    %rax,%rdi
    44f1:	e8 f4 0d 00 00       	call   52ea <_ZNSt6vectorI23VkQueueFamilyPropertiesSaIS0_EE5beginEv>
    44f6:	48 89 45 a8          	mov    %rax,-0x58(%rbp)
    44fa:	48 8b 45 e0          	mov    -0x20(%rbp),%rax
    44fe:	48 89 c7             	mov    %rax,%rdi
    4501:	e8 0a 0e 00 00       	call   5310 <_ZNSt6vectorI23VkQueueFamilyPropertiesSaIS0_EE3endEv>
    4506:	48 89 45 a0          	mov    %rax,-0x60(%rbp)
    450a:	eb 6c                	jmp    4578 <_ZN3vkh33getPresentQueueFamilyPropertyListEP18VkPhysicalDevice_TP14VkSurfaceKHR_T+0x105>
    450c:	48 8d 45 a8          	lea    -0x58(%rbp),%rax
    4510:	48 89 c7             	mov    %rax,%rdi
    4513:	e8 7c 0e 00 00       	call   5394 <_ZNK9__gnu_cxx17__normal_iteratorIP23VkQueueFamilyPropertiesSt6vectorIS1_SaIS1_EEEdeEv>
    4518:	48 89 45 d8          	mov    %rax,-0x28(%rbp)
    VkBool32 presentSupported = false;
    451c:	c7 45 9c 00 00 00 00 	movl   $0x0,-0x64(%rbp)
    vkGetPhysicalDeviceSurfaceSupportKHR(physicalDevice, index, surface,
    4523:	48 8d 4d 9c          	lea    -0x64(%rbp),%rcx
    4527:	48 8b 95 78 ff ff ff 	mov    -0x88(%rbp),%rdx
    452e:	8b 75 ec             	mov    -0x14(%rbp),%esi
    4531:	48 8b 45 80          	mov    -0x80(%rbp),%rax
    4535:	48 89 c7             	mov    %rax,%rdi
    4538:	e8 93 ed ff ff       	call   32d0 <vkGetPhysicalDeviceSurfaceSupportKHR@plt>
                                         &presentSupported);
    if (presentSupported) {
    453d:	8b 45 9c             	mov    -0x64(%rbp),%eax
    4540:	85 c0                	test   %eax,%eax
    4542:	74 24                	je     4568 <_ZN3vkh33getPresentQueueFamilyPropertyListEP18VkPhysicalDevice_TP14VkSurfaceKHR_T+0xf5>
      presentQueueFamilies[index] = queueFamilyProp;
    4544:	8b 55 ec             	mov    -0x14(%rbp),%edx
    4547:	48 8b 45 88          	mov    -0x78(%rbp),%rax
    454b:	48 89 d6             	mov    %rdx,%rsi
    454e:	48 89 c7             	mov    %rax,%rdi
    4551:	e8 50 0e 00 00       	call   53a6 <_ZNSt6vectorISt8optionalI23VkQueueFamilyPropertiesESaIS2_EEixEm>
    4556:	48 89 c2             	mov    %rax,%rdx
    4559:	48 8b 45 d8          	mov    -0x28(%rbp),%rax
    455d:	48 89 c6             	mov    %rax,%rsi
    4560:	48 89 d7             	mov    %rdx,%rdi
    4563:	e8 68 0e 00 00       	call   53d0 <_ZNSt8optionalI23VkQueueFamilyPropertiesEaSIRKS0_EENSt9enable_ifIX7__and_vISt6__not_ISt7is_sameIS1_NSt9remove_cvINSt16remove_referenceIT_E4typeEE4typeEEES6_ISt6__and_IJSt9is_scalarIS0_ES7_IS0_NSt5decayISA_E4typeEEEEESt16is_constructibleIS0_JSA_EESt13is_assignableIRS0_SA_EEERS1_E4typeEOSA_>
    }
    ++index;
    4568:	83 45 ec 01          	addl   $0x1,-0x14(%rbp)
  for (const auto &queueFamilyProp : queueFamilyProps) {
    456c:	48 8d 45 a8          	lea    -0x58(%rbp),%rax
    4570:	48 89 c7             	mov    %rax,%rdi
    4573:	e8 fc 0d 00 00       	call   5374 <_ZN9__gnu_cxx17__normal_iteratorIP23VkQueueFamilyPropertiesSt6vectorIS1_SaIS1_EEEppEv>
    4578:	48 8d 55 a0          	lea    -0x60(%rbp),%rdx
    457c:	48 8d 45 a8          	lea    -0x58(%rbp),%rax
    4580:	48 89 d6             	mov    %rdx,%rsi
    4583:	48 89 c7             	mov    %rax,%rdi
    4586:	e8 ae 0d 00 00       	call   5339 <_ZN9__gnu_cxxneIP23VkQueueFamilyPropertiesSt6vectorIS1_SaIS1_EEEEbRKNS_17__normal_iteratorIT_T0_EESB_>
    458b:	84 c0                	test   %al,%al
    458d:	0f 85 79 ff ff ff    	jne    450c <_ZN3vkh33getPresentQueueFamilyPropertyListEP18VkPhysicalDevice_TP14VkSurfaceKHR_T+0x99>
  }
  return presentQueueFamilies;
    4593:	90                   	nop
}
    4594:	48 8d 45 b0          	lea    -0x50(%rbp),%rax
    4598:	48 89 c7             	mov    %rax,%rdi
    459b:	e8 6a 0b 00 00       	call   510a <_ZNSt6vectorI23VkQueueFamilyPropertiesSaIS0_EED1Ev>
  return presentQueueFamilies;
    45a0:	eb 37                	jmp    45d9 <_ZN3vkh33getPresentQueueFamilyPropertyListEP18VkPhysicalDevice_TP14VkSurfaceKHR_T+0x166>
      queueFamilyProps.size()};
    45a2:	48 89 c3             	mov    %rax,%rbx
    45a5:	48 8d 45 d7          	lea    -0x29(%rbp),%rax
    45a9:	48 89 c7             	mov    %rax,%rdi
    45ac:	e8 63 0c 00 00       	call   5214 <_ZNSaISt8optionalI23VkQueueFamilyPropertiesEED1Ev>
    45b1:	eb 0f                	jmp    45c2 <_ZN3vkh33getPresentQueueFamilyPropertyListEP18VkPhysicalDevice_TP14VkSurfaceKHR_T+0x14f>
}
    45b3:	48 89 c3             	mov    %rax,%rbx
    45b6:	48 8b 45 88          	mov    -0x78(%rbp),%rax
    45ba:	48 89 c7             	mov    %rax,%rdi
    45bd:	e8 e4 0c 00 00       	call   52a6 <_ZNSt6vectorISt8optionalI23VkQueueFamilyPropertiesESaIS2_EED1Ev>
    45c2:	48 8d 45 b0          	lea    -0x50(%rbp),%rax
    45c6:	48 89 c7             	mov    %rax,%rdi
    45c9:	e8 3c 0b 00 00       	call   510a <_ZNSt6vectorI23VkQueueFamilyPropertiesSaIS0_EED1Ev>
    45ce:	48 89 d8             	mov    %rbx,%rax
    45d1:	48 89 c7             	mov    %rax,%rdi
    45d4:	e8 97 ee ff ff       	call   3470 <_Unwind_Resume@plt>
    45d9:	48 8b 45 88          	mov    -0x78(%rbp),%rax
    45dd:	48 8b 5d f8          	mov    -0x8(%rbp),%rbx
    45e1:	c9                   	leave
    45e2:	c3                   	ret

00000000000045e3 <_ZN3vkh36getPhysicalDeviceSurfaceCapabilitiesEP18VkPhysicalDevice_TP14VkSurfaceKHR_T>:

VkSurfaceCapabilitiesKHR
getPhysicalDeviceSurfaceCapabilities(VkPhysicalDevice physicalDevice,
                                     VkSurfaceKHR surface) {
    45e3:	55                   	push   %rbp
    45e4:	48 89 e5             	mov    %rsp,%rbp
    45e7:	41 54                	push   %r12
    45e9:	53                   	push   %rbx
    45ea:	48 83 ec 20          	sub    $0x20,%rsp
    45ee:	48 89 7d e8          	mov    %rdi,-0x18(%rbp)
    45f2:	48 89 75 e0          	mov    %rsi,-0x20(%rbp)
    45f6:	48 89 55 d8          	mov    %rdx,-0x28(%rbp)
  VkSurfaceCapabilitiesKHR surfaceCapabilities{};
    45fa:	48 8b 45 e8          	mov    -0x18(%rbp),%rax
    45fe:	66 0f ef c0          	pxor   %xmm0,%xmm0
    4602:	0f 11 00             	movups %xmm0,(%rax)
    4605:	0f 11 40 10          	movups %xmm0,0x10(%rax)
    4609:	0f 11 40 20          	movups %xmm0,0x20(%rax)
    460d:	66 0f 7e 40 30       	movd   %xmm0,0x30(%rax)
  if (vkGetPhysicalDeviceSurfaceCapabilitiesKHR(
    4612:	48 8b 55 e8          	mov    -0x18(%rbp),%rdx
    4616:	48 8b 4d d8          	mov    -0x28(%rbp),%rcx
    461a:	48 8b 45 e0          	mov    -0x20(%rbp),%rax
    461e:	48 89 ce             	mov    %rcx,%rsi
    4621:	48 89 c7             	mov    %rax,%rdi
    4624:	e8 d7 eb ff ff       	call   3200 <vkGetPhysicalDeviceSurfaceCapabilitiesKHR@plt>
          physicalDevice, surface, &surfaceCapabilities) != VK_SUCCESS) {
    4629:	85 c0                	test   %eax,%eax
    462b:	0f 95 c0             	setne  %al
  if (vkGetPhysicalDeviceSurfaceCapabilitiesKHR(
    462e:	84 c0                	test   %al,%al
    4630:	74 51                	je     4683 <_ZN3vkh36getPhysicalDeviceSurfaceCapabilitiesEP18VkPhysicalDevice_TP14VkSurfaceKHR_T+0xa0>
    throw std::runtime_error("Failed to get surface capabilities.");
    4632:	bf 10 00 00 00       	mov    $0x10,%edi
    4637:	e8 b4 ea ff ff       	call   30f0 <__cxa_allocate_exception@plt>
    463c:	48 89 c3             	mov    %rax,%rbx
    463f:	48 8d 05 8a c2 00 00 	lea    0xc28a(%rip),%rax        # 108d0 <_ZL47VK_FORMAT_FEATURE_2_BOX_FILTER_SAMPLED_BIT_QCOM+0xc8>
    4646:	48 89 c6             	mov    %rax,%rsi
    4649:	48 89 df             	mov    %rbx,%rdi
    464c:	e8 4f ea ff ff       	call   30a0 <_ZNSt13runtime_errorC1EPKc@plt>
    4651:	48 8b 05 50 69 01 00 	mov    0x16950(%rip),%rax        # 1afa8 <_ZNSt13runtime_errorD1Ev@GLIBCXX_3.4>
    4658:	48 89 c2             	mov    %rax,%rdx
    465b:	48 8d 05 de 66 01 00 	lea    0x166de(%rip),%rax        # 1ad40 <_ZTISt13runtime_error@GLIBCXX_3.4>
    4662:	48 89 c6             	mov    %rax,%rsi
    4665:	48 89 df             	mov    %rbx,%rdi
    4668:	e8 e3 ed ff ff       	call   3450 <__cxa_throw@plt>
    466d:	49 89 c4             	mov    %rax,%r12
    4670:	48 89 df             	mov    %rbx,%rdi
    4673:	e8 f8 ea ff ff       	call   3170 <__cxa_free_exception@plt>
    4678:	4c 89 e0             	mov    %r12,%rax
    467b:	48 89 c7             	mov    %rax,%rdi
    467e:	e8 ed ed ff ff       	call   3470 <_Unwind_Resume@plt>
  }
  return surfaceCapabilities;
    4683:	90                   	nop
}
    4684:	48 8b 45 e8          	mov    -0x18(%rbp),%rax
    4688:	48 83 c4 20          	add    $0x20,%rsp
    468c:	5b                   	pop    %rbx
    468d:	41 5c                	pop    %r12
    468f:	5d                   	pop    %rbp
    4690:	c3                   	ret

0000000000004691 <_ZN3vkh34getPhysicalDeviceSurfaceFormatListEP18VkPhysicalDevice_TP14VkSurfaceKHR_T>:

std::vector<VkSurfaceFormatKHR>
getPhysicalDeviceSurfaceFormatList(VkPhysicalDevice physicalDevice,
                                   VkSurfaceKHR surface) {
    4691:	55                   	push   %rbp
    4692:	48 89 e5             	mov    %rsp,%rbp
    4695:	41 54                	push   %r12
    4697:	53                   	push   %rbx
    4698:	48 83 ec 30          	sub    $0x30,%rsp
    469c:	48 89 7d d8          	mov    %rdi,-0x28(%rbp)
    46a0:	48 89 75 d0          	mov    %rsi,-0x30(%rbp)
    46a4:	48 89 55 c8          	mov    %rdx,-0x38(%rbp)
  uint32_t surfaceFormatCount;
  if (vkGetPhysicalDeviceSurfaceFormatsKHR(physicalDevice, surface,
    46a8:	48 8d 55 e8          	lea    -0x18(%rbp),%rdx
    46ac:	48 8b 75 c8          	mov    -0x38(%rbp),%rsi
    46b0:	48 8b 45 d0          	mov    -0x30(%rbp),%rax
    46b4:	b9 00 00 00 00       	mov    $0x0,%ecx
    46b9:	48 89 c7             	mov    %rax,%rdi
    46bc:	e8 af ec ff ff       	call   3370 <vkGetPhysicalDeviceSurfaceFormatsKHR@plt>
                                           &surfaceFormatCount,
                                           nullptr) != VK_SUCCESS) {
    46c1:	85 c0                	test   %eax,%eax
    46c3:	0f 95 c0             	setne  %al
  if (vkGetPhysicalDeviceSurfaceFormatsKHR(physicalDevice, surface,
    46c6:	84 c0                	test   %al,%al
    46c8:	74 3b                	je     4705 <_ZN3vkh34getPhysicalDeviceSurfaceFormatListEP18VkPhysicalDevice_TP14VkSurfaceKHR_T+0x74>
    throw std::runtime_error("Failed to get surface format list.");
    46ca:	bf 10 00 00 00       	mov    $0x10,%edi
    46cf:	e8 1c ea ff ff       	call   30f0 <__cxa_allocate_exception@plt>
    46d4:	48 89 c3             	mov    %rax,%rbx
    46d7:	48 8d 05 1a c2 00 00 	lea    0xc21a(%rip),%rax        # 108f8 <_ZL47VK_FORMAT_FEATURE_2_BOX_FILTER_SAMPLED_BIT_QCOM+0xf0>
    46de:	48 89 c6             	mov    %rax,%rsi
    46e1:	48 89 df             	mov    %rbx,%rdi
    46e4:	e8 b7 e9 ff ff       	call   30a0 <_ZNSt13runtime_errorC1EPKc@plt>
    46e9:	48 8b 05 b8 68 01 00 	mov    0x168b8(%rip),%rax        # 1afa8 <_ZNSt13runtime_errorD1Ev@GLIBCXX_3.4>
    46f0:	48 89 c2             	mov    %rax,%rdx
    46f3:	48 8d 05 46 66 01 00 	lea    0x16646(%rip),%rax        # 1ad40 <_ZTISt13runtime_error@GLIBCXX_3.4>
    46fa:	48 89 c6             	mov    %rax,%rsi
    46fd:	48 89 df             	mov    %rbx,%rdi
    4700:	e8 4b ed ff ff       	call   3450 <__cxa_throw@plt>
  }
  std::vector<VkSurfaceFormatKHR> surfaceFormats{surfaceFormatCount};
    4705:	8b 45 e8             	mov    -0x18(%rbp),%eax
    4708:	89 c3                	mov    %eax,%ebx
    470a:	48 8d 45 ef          	lea    -0x11(%rbp),%rax
    470e:	48 89 c7             	mov    %rax,%rdi
    4711:	e8 92 0d 00 00       	call   54a8 <_ZNSaI18VkSurfaceFormatKHREC1Ev>
    4716:	48 8d 55 ef          	lea    -0x11(%rbp),%rdx
    471a:	48 8b 45 d8          	mov    -0x28(%rbp),%rax
    471e:	48 89 de             	mov    %rbx,%rsi
    4721:	48 89 c7             	mov    %rax,%rdi
    4724:	e8 b7 0d 00 00       	call   54e0 <_ZNSt6vectorI18VkSurfaceFormatKHRSaIS0_EEC1EmRKS1_>
    4729:	48 8d 45 ef          	lea    -0x11(%rbp),%rax
    472d:	48 89 c7             	mov    %rax,%rdi
    4730:	e8 8f 0d 00 00       	call   54c4 <_ZNSaI18VkSurfaceFormatKHRED1Ev>
  if (vkGetPhysicalDeviceSurfaceFormatsKHR(
    4735:	48 8b 45 d8          	mov    -0x28(%rbp),%rax
    4739:	48 89 c7             	mov    %rax,%rdi
    473c:	e8 59 0e 00 00       	call   559a <_ZNSt6vectorI18VkSurfaceFormatKHRSaIS0_EE4dataEv>
    4741:	48 89 c1             	mov    %rax,%rcx
    4744:	48 8d 55 e8          	lea    -0x18(%rbp),%rdx
    4748:	48 8b 75 c8          	mov    -0x38(%rbp),%rsi
    474c:	48 8b 45 d0          	mov    -0x30(%rbp),%rax
    4750:	48 89 c7             	mov    %rax,%rdi
    4753:	e8 18 ec ff ff       	call   3370 <vkGetPhysicalDeviceSurfaceFormatsKHR@plt>
          physicalDevice, surface, &surfaceFormatCount,
          surfaceFormats.data()) != VK_SUCCESS) {
    4758:	85 c0                	test   %eax,%eax
    475a:	0f 95 c0             	setne  %al
  if (vkGetPhysicalDeviceSurfaceFormatsKHR(
    475d:	84 c0                	test   %al,%al
    475f:	0f 84 95 00 00 00    	je     47fa <_ZN3vkh34getPhysicalDeviceSurfaceFormatListEP18VkPhysicalDevice_TP14VkSurfaceKHR_T+0x169>
    throw std::runtime_error("Failed to get surface format list.");
    4765:	bf 10 00 00 00       	mov    $0x10,%edi
    476a:	e8 81 e9 ff ff       	call   30f0 <__cxa_allocate_exception@plt>
    476f:	48 89 c3             	mov    %rax,%rbx
    4772:	48 8d 05 7f c1 00 00 	lea    0xc17f(%rip),%rax        # 108f8 <_ZL47VK_FORMAT_FEATURE_2_BOX_FILTER_SAMPLED_BIT_QCOM+0xf0>
    4779:	48 89 c6             	mov    %rax,%rsi
    477c:	48 89 df             	mov    %rbx,%rdi
    477f:	e8 1c e9 ff ff       	call   30a0 <_ZNSt13runtime_errorC1EPKc@plt>
    4784:	48 8b 05 1d 68 01 00 	mov    0x1681d(%rip),%rax        # 1afa8 <_ZNSt13runtime_errorD1Ev@GLIBCXX_3.4>
    478b:	48 89 c2             	mov    %rax,%rdx
    478e:	48 8d 05 ab 65 01 00 	lea    0x165ab(%rip),%rax        # 1ad40 <_ZTISt13runtime_error@GLIBCXX_3.4>
    4795:	48 89 c6             	mov    %rax,%rsi
    4798:	48 89 df             	mov    %rbx,%rdi
    479b:	e8 b0 ec ff ff       	call   3450 <__cxa_throw@plt>
    throw std::runtime_error("Failed to get surface format list.");
    47a0:	49 89 c4             	mov    %rax,%r12
    47a3:	48 89 df             	mov    %rbx,%rdi
    47a6:	e8 c5 e9 ff ff       	call   3170 <__cxa_free_exception@plt>
    47ab:	4c 89 e0             	mov    %r12,%rax
    47ae:	48 89 c7             	mov    %rax,%rdi
    47b1:	e8 ba ec ff ff       	call   3470 <_Unwind_Resume@plt>
  std::vector<VkSurfaceFormatKHR> surfaceFormats{surfaceFormatCount};
    47b6:	48 89 c3             	mov    %rax,%rbx
    47b9:	48 8d 45 ef          	lea    -0x11(%rbp),%rax
    47bd:	48 89 c7             	mov    %rax,%rdi
    47c0:	e8 ff 0c 00 00       	call   54c4 <_ZNSaI18VkSurfaceFormatKHRED1Ev>
    47c5:	48 89 d8             	mov    %rbx,%rax
    47c8:	48 89 c7             	mov    %rax,%rdi
    47cb:	e8 a0 ec ff ff       	call   3470 <_Unwind_Resume@plt>
    throw std::runtime_error("Failed to get surface format list.");
    47d0:	49 89 c4             	mov    %rax,%r12
    47d3:	48 89 df             	mov    %rbx,%rdi
    47d6:	e8 95 e9 ff ff       	call   3170 <__cxa_free_exception@plt>
    47db:	4c 89 e3             	mov    %r12,%rbx
    47de:	eb 03                	jmp    47e3 <_ZN3vkh34getPhysicalDeviceSurfaceFormatListEP18VkPhysicalDevice_TP14VkSurfaceKHR_T+0x152>
  }
  return surfaceFormats;
}
    47e0:	48 89 c3             	mov    %rax,%rbx
    47e3:	48 8b 45 d8          	mov    -0x28(%rbp),%rax
    47e7:	48 89 c7             	mov    %rax,%rdi
    47ea:	e8 67 0d 00 00       	call   5556 <_ZNSt6vectorI18VkSurfaceFormatKHRSaIS0_EED1Ev>
    47ef:	48 89 d8             	mov    %rbx,%rax
    47f2:	48 89 c7             	mov    %rax,%rdi
    47f5:	e8 76 ec ff ff       	call   3470 <_Unwind_Resume@plt>
  return surfaceFormats;
    47fa:	90                   	nop
}
    47fb:	48 8b 45 d8          	mov    -0x28(%rbp),%rax
    47ff:	48 83 c4 30          	add    $0x30,%rsp
    4803:	5b                   	pop    %rbx
    4804:	41 5c                	pop    %r12
    4806:	5d                   	pop    %rbp
    4807:	c3                   	ret

0000000000004808 <_ZN3vkh39getPhysicalDeviceSurfacePresentModeListEP18VkPhysicalDevice_TP14VkSurfaceKHR_T>:
std::vector<VkPresentModeKHR>
getPhysicalDeviceSurfacePresentModeList(VkPhysicalDevice physicalDevice,
                                        VkSurfaceKHR surface) {
    4808:	55                   	push   %rbp
    4809:	48 89 e5             	mov    %rsp,%rbp
    480c:	41 54                	push   %r12
    480e:	53                   	push   %rbx
    480f:	48 83 ec 30          	sub    $0x30,%rsp
    4813:	48 89 7d d8          	mov    %rdi,-0x28(%rbp)
    4817:	48 89 75 d0          	mov    %rsi,-0x30(%rbp)
    481b:	48 89 55 c8          	mov    %rdx,-0x38(%rbp)
  uint32_t presentModeCount;
  if (vkGetPhysicalDeviceSurfacePresentModesKHR(physicalDevice, surface,
    481f:	48 8d 55 e8          	lea    -0x18(%rbp),%rdx
    4823:	48 8b 75 c8          	mov    -0x38(%rbp),%rsi
    4827:	48 8b 45 d0          	mov    -0x30(%rbp),%rax
    482b:	b9 00 00 00 00       	mov    $0x0,%ecx
    4830:	48 89 c7             	mov    %rax,%rdi
    4833:	e8 48 eb ff ff       	call   3380 <vkGetPhysicalDeviceSurfacePresentModesKHR@plt>
    4838:	85 c0                	test   %eax,%eax
    483a:	0f 95 c0             	setne  %al
    483d:	84 c0                	test   %al,%al
    483f:	74 3b                	je     487c <_ZN3vkh39getPhysicalDeviceSurfacePresentModeListEP18VkPhysicalDevice_TP14VkSurfaceKHR_T+0x74>
                                                &presentModeCount, nullptr)) {
    throw std::runtime_error("Failed to get surface present mode list.");
    4841:	bf 10 00 00 00       	mov    $0x10,%edi
    4846:	e8 a5 e8 ff ff       	call   30f0 <__cxa_allocate_exception@plt>
    484b:	48 89 c3             	mov    %rax,%rbx
    484e:	48 8d 05 cb c0 00 00 	lea    0xc0cb(%rip),%rax        # 10920 <_ZL47VK_FORMAT_FEATURE_2_BOX_FILTER_SAMPLED_BIT_QCOM+0x118>
    4855:	48 89 c6             	mov    %rax,%rsi
    4858:	48 89 df             	mov    %rbx,%rdi
    485b:	e8 40 e8 ff ff       	call   30a0 <_ZNSt13runtime_errorC1EPKc@plt>
    4860:	48 8b 05 41 67 01 00 	mov    0x16741(%rip),%rax        # 1afa8 <_ZNSt13runtime_errorD1Ev@GLIBCXX_3.4>
    4867:	48 89 c2             	mov    %rax,%rdx
    486a:	48 8d 05 cf 64 01 00 	lea    0x164cf(%rip),%rax        # 1ad40 <_ZTISt13runtime_error@GLIBCXX_3.4>
    4871:	48 89 c6             	mov    %rax,%rsi
    4874:	48 89 df             	mov    %rbx,%rdi
    4877:	e8 d4 eb ff ff       	call   3450 <__cxa_throw@plt>
  }
  std::vector<VkPresentModeKHR> presentModes{presentModeCount};
    487c:	8b 45 e8             	mov    -0x18(%rbp),%eax
    487f:	89 c3                	mov    %eax,%ebx
    4881:	48 8d 45 ef          	lea    -0x11(%rbp),%rax
    4885:	48 89 c7             	mov    %rax,%rdi
    4888:	e8 7f 0d 00 00       	call   560c <_ZNSaI16VkPresentModeKHREC1Ev>
    488d:	48 8d 55 ef          	lea    -0x11(%rbp),%rdx
    4891:	48 8b 45 d8          	mov    -0x28(%rbp),%rax
    4895:	48 89 de             	mov    %rbx,%rsi
    4898:	48 89 c7             	mov    %rax,%rdi
    489b:	e8 a4 0d 00 00       	call   5644 <_ZNSt6vectorI16VkPresentModeKHRSaIS0_EEC1EmRKS1_>
    48a0:	48 8d 45 ef          	lea    -0x11(%rbp),%rax
    48a4:	48 89 c7             	mov    %rax,%rdi
    48a7:	e8 7c 0d 00 00       	call   5628 <_ZNSaI16VkPresentModeKHRED1Ev>
  if (vkGetPhysicalDeviceSurfacePresentModesKHR(
    48ac:	48 8b 45 d8          	mov    -0x28(%rbp),%rax
    48b0:	48 89 c7             	mov    %rax,%rdi
    48b3:	e8 46 0e 00 00       	call   56fe <_ZNSt6vectorI16VkPresentModeKHRSaIS0_EE4dataEv>
    48b8:	48 89 c1             	mov    %rax,%rcx
    48bb:	48 8d 55 e8          	lea    -0x18(%rbp),%rdx
    48bf:	48 8b 75 c8          	mov    -0x38(%rbp),%rsi
    48c3:	48 8b 45 d0          	mov    -0x30(%rbp),%rax
    48c7:	48 89 c7             	mov    %rax,%rdi
    48ca:	e8 b1 ea ff ff       	call   3380 <vkGetPhysicalDeviceSurfacePresentModesKHR@plt>
    48cf:	85 c0                	test   %eax,%eax
    48d1:	0f 95 c0             	setne  %al
    48d4:	84 c0                	test   %al,%al
    48d6:	0f 84 95 00 00 00    	je     4971 <_ZN3vkh39getPhysicalDeviceSurfacePresentModeListEP18VkPhysicalDevice_TP14VkSurfaceKHR_T+0x169>
          physicalDevice, surface, &presentModeCount, presentModes.data())) {
    throw std::runtime_error("Failed to get surface present mode list.");
    48dc:	bf 10 00 00 00       	mov    $0x10,%edi
    48e1:	e8 0a e8 ff ff       	call   30f0 <__cxa_allocate_exception@plt>
    48e6:	48 89 c3             	mov    %rax,%rbx
    48e9:	48 8d 05 30 c0 00 00 	lea    0xc030(%rip),%rax        # 10920 <_ZL47VK_FORMAT_FEATURE_2_BOX_FILTER_SAMPLED_BIT_QCOM+0x118>
    48f0:	48 89 c6             	mov    %rax,%rsi
    48f3:	48 89 df             	mov    %rbx,%rdi
    48f6:	e8 a5 e7 ff ff       	call   30a0 <_ZNSt13runtime_errorC1EPKc@plt>
    48fb:	48 8b 05 a6 66 01 00 	mov    0x166a6(%rip),%rax        # 1afa8 <_ZNSt13runtime_errorD1Ev@GLIBCXX_3.4>
    4902:	48 89 c2             	mov    %rax,%rdx
    4905:	48 8d 05 34 64 01 00 	lea    0x16434(%rip),%rax        # 1ad40 <_ZTISt13runtime_error@GLIBCXX_3.4>
    490c:	48 89 c6             	mov    %rax,%rsi
    490f:	48 89 df             	mov    %rbx,%rdi
    4912:	e8 39 eb ff ff       	call   3450 <__cxa_throw@plt>
    throw std::runtime_error("Failed to get surface present mode list.");
    4917:	49 89 c4             	mov    %rax,%r12
    491a:	48 89 df             	mov    %rbx,%rdi
    491d:	e8 4e e8 ff ff       	call   3170 <__cxa_free_exception@plt>
    4922:	4c 89 e0             	mov    %r12,%rax
    4925:	48 89 c7             	mov    %rax,%rdi
    4928:	e8 43 eb ff ff       	call   3470 <_Unwind_Resume@plt>
  std::vector<VkPresentModeKHR> presentModes{presentModeCount};
    492d:	48 89 c3             	mov    %rax,%rbx
    4930:	48 8d 45 ef          	lea    -0x11(%rbp),%rax
    4934:	48 89 c7             	mov    %rax,%rdi
    4937:	e8 ec 0c 00 00       	call   5628 <_ZNSaI16VkPresentModeKHRED1Ev>
    493c:	48 89 d8             	mov    %rbx,%rax
    493f:	48 89 c7             	mov    %rax,%rdi
    4942:	e8 29 eb ff ff       	call   3470 <_Unwind_Resume@plt>
    throw std::runtime_error("Failed to get surface present mode list.");
    4947:	49 89 c4             	mov    %rax,%r12
    494a:	48 89 df             	mov    %rbx,%rdi
    494d:	e8 1e e8 ff ff       	call   3170 <__cxa_free_exception@plt>
    4952:	4c 89 e3             	mov    %r12,%rbx
    4955:	eb 03                	jmp    495a <_ZN3vkh39getPhysicalDeviceSurfacePresentModeListEP18VkPhysicalDevice_TP14VkSurfaceKHR_T+0x152>
  }
  return presentModes;
}
    4957:	48 89 c3             	mov    %rax,%rbx
    495a:	48 8b 45 d8          	mov    -0x28(%rbp),%rax
    495e:	48 89 c7             	mov    %rax,%rdi
    4961:	e8 54 0d 00 00       	call   56ba <_ZNSt6vectorI16VkPresentModeKHRSaIS0_EED1Ev>
    4966:	48 89 d8             	mov    %rbx,%rax
    4969:	48 89 c7             	mov    %rax,%rdi
    496c:	e8 ff ea ff ff       	call   3470 <_Unwind_Resume@plt>
  return presentModes;
    4971:	90                   	nop
}
    4972:	48 8b 45 d8          	mov    -0x28(%rbp),%rax
    4976:	48 83 c4 30          	add    $0x30,%rsp
    497a:	5b                   	pop    %rbx
    497b:	41 5c                	pop    %r12
    497d:	5d                   	pop    %rbp
    497e:	c3                   	ret

000000000000497f <_ZSt23__is_constant_evaluatedv>:
  // This can be used without checking if the compiler supports the feature.
  // The macro _GLIBCXX_HAVE_IS_CONSTANT_EVALUATED can be used to check if
  // the compiler support is present to make this function work as expected.
  _GLIBCXX_CONSTEXPR inline bool
  __is_constant_evaluated() _GLIBCXX_NOEXCEPT
  {
    497f:	55                   	push   %rbp
    4980:	48 89 e5             	mov    %rsp,%rbp
#if __cpp_if_consteval >= 202106L
# define _GLIBCXX_HAVE_IS_CONSTANT_EVALUATED 1
    if consteval { return true; } else { return false; }
#elif __cplusplus >= 201103L && __has_builtin(__builtin_is_constant_evaluated)
# define _GLIBCXX_HAVE_IS_CONSTANT_EVALUATED 1
    return __builtin_is_constant_evaluated();
    4983:	b8 00 00 00 00       	mov    $0x0,%eax
#else
    return false;
#endif
  }
    4988:	5d                   	pop    %rbp
    4989:	c3                   	ret

000000000000498a <_ZnwmPv>:
#endif // __cpp_sized_deallocation
#endif // __cpp_aligned_new

// Default placement versions of operator new.
_GLIBCXX_NODISCARD inline void* operator new(std::size_t, void* __p) _GLIBCXX_USE_NOEXCEPT
{ return __p; }
    498a:	55                   	push   %rbp
    498b:	48 89 e5             	mov    %rsp,%rbp
    498e:	48 89 7d f8          	mov    %rdi,-0x8(%rbp)
    4992:	48 89 75 f0          	mov    %rsi,-0x10(%rbp)
    4996:	48 8b 45 f0          	mov    -0x10(%rbp),%rax
    499a:	5d                   	pop    %rbp
    499b:	c3                   	ret

000000000000499c <_ZSt17__size_to_integerm>:
  inline _GLIBCXX_CONSTEXPR unsigned
  __size_to_integer(unsigned __n) { return __n; }
  inline _GLIBCXX_CONSTEXPR long
  __size_to_integer(long __n) { return __n; }
  inline _GLIBCXX_CONSTEXPR unsigned long
  __size_to_integer(unsigned long __n) { return __n; }
    499c:	55                   	push   %rbp
    499d:	48 89 e5             	mov    %rsp,%rbp
    49a0:	48 89 7d f8          	mov    %rdi,-0x8(%rbp)
    49a4:	48 8b 45 f8          	mov    -0x8(%rbp),%rax
    49a8:	5d                   	pop    %rbp
    49a9:	c3                   	ret

00000000000049aa <_ZNSt12_Vector_baseI21VkExtensionPropertiesSaIS0_EE12_Vector_implD1Ev>:
	  _M_copy_data(__x);
	  __x._M_copy_data(__tmp);
	}
      };

      struct _Vector_impl
    49aa:	55                   	push   %rbp
    49ab:	48 89 e5             	mov    %rsp,%rbp
    49ae:	48 83 ec 10          	sub    $0x10,%rsp
    49b2:	48 89 7d f8          	mov    %rdi,-0x8(%rbp)
    49b6:	48 8b 45 f8          	mov    -0x8(%rbp),%rax
    49ba:	48 89 c7             	mov    %rax,%rdi
    49bd:	e8 e4 00 00 00       	call   4aa6 <_ZNSaI21VkExtensionPropertiesED1Ev>
    49c2:	90                   	nop
    49c3:	c9                   	leave
    49c4:	c3                   	ret
    49c5:	90                   	nop

00000000000049c6 <_ZNSt12_Vector_baseIPKcSaIS1_EE12_Vector_implD1Ev>:
    49c6:	55                   	push   %rbp
    49c7:	48 89 e5             	mov    %rsp,%rbp
    49ca:	48 83 ec 10          	sub    $0x10,%rsp
    49ce:	48 89 7d f8          	mov    %rdi,-0x8(%rbp)
    49d2:	48 8b 45 f8          	mov    -0x8(%rbp),%rax
    49d6:	48 89 c7             	mov    %rax,%rdi
    49d9:	e8 36 02 00 00       	call   4c14 <_ZNSaIPKcED1Ev>
    49de:	90                   	nop
    49df:	c9                   	leave
    49e0:	c3                   	ret
    49e1:	90                   	nop

00000000000049e2 <_ZNSt12_Vector_baseI17VkLayerPropertiesSaIS0_EE12_Vector_implD1Ev>:
    49e2:	55                   	push   %rbp
    49e3:	48 89 e5             	mov    %rsp,%rbp
    49e6:	48 83 ec 10          	sub    $0x10,%rsp
    49ea:	48 89 7d f8          	mov    %rdi,-0x8(%rbp)
    49ee:	48 8b 45 f8          	mov    -0x8(%rbp),%rax
    49f2:	48 89 c7             	mov    %rax,%rdi
    49f5:	e8 ac 03 00 00       	call   4da6 <_ZNSaI17VkLayerPropertiesED1Ev>
    49fa:	90                   	nop
    49fb:	c9                   	leave
    49fc:	c3                   	ret
    49fd:	90                   	nop

00000000000049fe <_ZNSt12_Vector_baseIP18VkPhysicalDevice_TSaIS1_EE12_Vector_implD1Ev>:
    49fe:	55                   	push   %rbp
    49ff:	48 89 e5             	mov    %rsp,%rbp
    4a02:	48 83 ec 10          	sub    $0x10,%rsp
    4a06:	48 89 7d f8          	mov    %rdi,-0x8(%rbp)
    4a0a:	48 8b 45 f8          	mov    -0x8(%rbp),%rax
    4a0e:	48 89 c7             	mov    %rax,%rdi
    4a11:	e8 fe 04 00 00       	call   4f14 <_ZNSaIP18VkPhysicalDevice_TED1Ev>
    4a16:	90                   	nop
    4a17:	c9                   	leave
    4a18:	c3                   	ret
    4a19:	90                   	nop

0000000000004a1a <_ZNSt12_Vector_baseI23VkQueueFamilyPropertiesSaIS0_EE12_Vector_implD1Ev>:
    4a1a:	55                   	push   %rbp
    4a1b:	48 89 e5             	mov    %rsp,%rbp
    4a1e:	48 83 ec 10          	sub    $0x10,%rsp
    4a22:	48 89 7d f8          	mov    %rdi,-0x8(%rbp)
    4a26:	48 8b 45 f8          	mov    -0x8(%rbp),%rax
    4a2a:	48 89 c7             	mov    %rax,%rdi
    4a2d:	e8 46 06 00 00       	call   5078 <_ZNSaI23VkQueueFamilyPropertiesED1Ev>
    4a32:	90                   	nop
    4a33:	c9                   	leave
    4a34:	c3                   	ret
    4a35:	90                   	nop

0000000000004a36 <_ZNSt12_Vector_baseISt8optionalI23VkQueueFamilyPropertiesESaIS2_EE12_Vector_implD1Ev>:
    4a36:	55                   	push   %rbp
    4a37:	48 89 e5             	mov    %rsp,%rbp
    4a3a:	48 83 ec 10          	sub    $0x10,%rsp
    4a3e:	48 89 7d f8          	mov    %rdi,-0x8(%rbp)
    4a42:	48 8b 45 f8          	mov    -0x8(%rbp),%rax
    4a46:	48 89 c7             	mov    %rax,%rdi
    4a49:	e8 c6 07 00 00       	call   5214 <_ZNSaISt8optionalI23VkQueueFamilyPropertiesEED1Ev>
    4a4e:	90                   	nop
    4a4f:	c9                   	leave
    4a50:	c3                   	ret
    4a51:	90                   	nop

0000000000004a52 <_ZNSt12_Vector_baseI18VkSurfaceFormatKHRSaIS0_EE12_Vector_implD1Ev>:
    4a52:	55                   	push   %rbp
    4a53:	48 89 e5             	mov    %rsp,%rbp
    4a56:	48 83 ec 10          	sub    $0x10,%rsp
    4a5a:	48 89 7d f8          	mov    %rdi,-0x8(%rbp)
    4a5e:	48 8b 45 f8          	mov    -0x8(%rbp),%rax
    4a62:	48 89 c7             	mov    %rax,%rdi
    4a65:	e8 5a 0a 00 00       	call   54c4 <_ZNSaI18VkSurfaceFormatKHRED1Ev>
    4a6a:	90                   	nop
    4a6b:	c9                   	leave
    4a6c:	c3                   	ret
    4a6d:	90                   	nop

0000000000004a6e <_ZNSt12_Vector_baseI16VkPresentModeKHRSaIS0_EE12_Vector_implD1Ev>:
    4a6e:	55                   	push   %rbp
    4a6f:	48 89 e5             	mov    %rsp,%rbp
    4a72:	48 83 ec 10          	sub    $0x10,%rsp
    4a76:	48 89 7d f8          	mov    %rdi,-0x8(%rbp)
    4a7a:	48 8b 45 f8          	mov    -0x8(%rbp),%rax
    4a7e:	48 89 c7             	mov    %rax,%rdi
    4a81:	e8 a2 0b 00 00       	call   5628 <_ZNSaI16VkPresentModeKHRED1Ev>
    4a86:	90                   	nop
    4a87:	c9                   	leave
    4a88:	c3                   	ret
    4a89:	90                   	nop

0000000000004a8a <_ZNSaI21VkExtensionPropertiesEC1Ev>:
#endif

      // _GLIBCXX_RESOLVE_LIB_DEFECTS
      // 3035. std::allocator's constructors should be constexpr
      _GLIBCXX20_CONSTEXPR
      allocator() _GLIBCXX_NOTHROW { }
    4a8a:	55                   	push   %rbp
    4a8b:	48 89 e5             	mov    %rsp,%rbp
    4a8e:	48 83 ec 10          	sub    $0x10,%rsp
    4a92:	48 89 7d f8          	mov    %rdi,-0x8(%rbp)
    4a96:	48 8b 45 f8          	mov    -0x8(%rbp),%rax
    4a9a:	48 89 c7             	mov    %rax,%rdi
    4a9d:	e8 ce 0c 00 00       	call   5770 <_ZNSt15__new_allocatorI21VkExtensionPropertiesEC1Ev>
    4aa2:	90                   	nop
    4aa3:	c9                   	leave
    4aa4:	c3                   	ret
    4aa5:	90                   	nop

0000000000004aa6 <_ZNSaI21VkExtensionPropertiesED1Ev>:
	allocator(const allocator<_Tp1>&) _GLIBCXX_NOTHROW { }

#if __cpp_constexpr_dynamic_alloc
      constexpr
#endif
      ~allocator() _GLIBCXX_NOTHROW { }
    4aa6:	55                   	push   %rbp
    4aa7:	48 89 e5             	mov    %rsp,%rbp
    4aaa:	48 83 ec 10          	sub    $0x10,%rsp
    4aae:	48 89 7d f8          	mov    %rdi,-0x8(%rbp)
    4ab2:	48 8b 45 f8          	mov    -0x8(%rbp),%rax
    4ab6:	48 89 c7             	mov    %rax,%rdi
    4ab9:	e8 be 0c 00 00       	call   577c <_ZNSt15__new_allocatorI21VkExtensionPropertiesED1Ev>
    4abe:	90                   	nop
    4abf:	c9                   	leave
    4ac0:	c3                   	ret
    4ac1:	90                   	nop

0000000000004ac2 <_ZNSt6vectorI21VkExtensionPropertiesSaIS0_EEC1EmRKS1_>:
       *  This constructor fills the %vector with @a __n default
       *  constructed elements.
       */
      explicit
      _GLIBCXX20_CONSTEXPR
      vector(size_type __n, const allocator_type& __a = allocator_type())
    4ac2:	55                   	push   %rbp
    4ac3:	48 89 e5             	mov    %rsp,%rbp
    4ac6:	53                   	push   %rbx
    4ac7:	48 83 ec 28          	sub    $0x28,%rsp
    4acb:	48 89 7d e8          	mov    %rdi,-0x18(%rbp)
    4acf:	48 89 75 e0          	mov    %rsi,-0x20(%rbp)
    4ad3:	48 89 55 d8          	mov    %rdx,-0x28(%rbp)
      : _Base(_S_check_init_len(__n, __a), __a)
    4ad7:	48 8b 5d e8          	mov    -0x18(%rbp),%rbx
    4adb:	48 8b 55 d8          	mov    -0x28(%rbp),%rdx
    4adf:	48 8b 45 e0          	mov    -0x20(%rbp),%rax
    4ae3:	48 89 d6             	mov    %rdx,%rsi
    4ae6:	48 89 c7             	mov    %rax,%rdi
    4ae9:	e8 99 0c 00 00       	call   5787 <_ZNSt6vectorI21VkExtensionPropertiesSaIS0_EE17_S_check_init_lenEmRKS1_>
    4aee:	48 89 c1             	mov    %rax,%rcx
    4af1:	48 8b 45 d8          	mov    -0x28(%rbp),%rax
    4af5:	48 89 c2             	mov    %rax,%rdx
    4af8:	48 89 ce             	mov    %rcx,%rsi
    4afb:	48 89 df             	mov    %rbx,%rdi
    4afe:	e8 e5 0c 00 00       	call   57e8 <_ZNSt12_Vector_baseI21VkExtensionPropertiesSaIS0_EEC1EmRKS1_>
      { _M_default_initialize(__n); }
    4b03:	48 8b 55 e0          	mov    -0x20(%rbp),%rdx
    4b07:	48 8b 45 e8          	mov    -0x18(%rbp),%rax
    4b0b:	48 89 d6             	mov    %rdx,%rsi
    4b0e:	48 89 c7             	mov    %rax,%rdi
    4b11:	e8 30 0d 00 00       	call   5846 <_ZNSt6vectorI21VkExtensionPropertiesSaIS0_EE21_M_default_initializeEm>
    4b16:	eb 1a                	jmp    4b32 <_ZNSt6vectorI21VkExtensionPropertiesSaIS0_EEC1EmRKS1_+0x70>
    4b18:	48 89 c3             	mov    %rax,%rbx
    4b1b:	48 8b 45 e8          	mov    -0x18(%rbp),%rax
    4b1f:	48 89 c7             	mov    %rax,%rdi
    4b22:	e8 79 00 00 00       	call   4ba0 <_ZNSt12_Vector_baseI21VkExtensionPropertiesSaIS0_EED1Ev>
    4b27:	48 89 d8             	mov    %rbx,%rax
    4b2a:	48 89 c7             	mov    %rax,%rdi
    4b2d:	e8 3e e9 ff ff       	call   3470 <_Unwind_Resume@plt>
    4b32:	48 8b 5d f8          	mov    -0x8(%rbp),%rbx
    4b36:	c9                   	leave
    4b37:	c3                   	ret

0000000000004b38 <_ZNSt6vectorI21VkExtensionPropertiesSaIS0_EED1Ev>:
       *  elements themselves are pointers, the pointed-to memory is
       *  not touched in any way.  Managing the pointer is the user's
       *  responsibility.
       */
      _GLIBCXX20_CONSTEXPR
      ~vector() _GLIBCXX_NOEXCEPT
    4b38:	55                   	push   %rbp
    4b39:	48 89 e5             	mov    %rsp,%rbp
    4b3c:	48 83 ec 10          	sub    $0x10,%rsp
    4b40:	48 89 7d f8          	mov    %rdi,-0x8(%rbp)
      {
	std::_Destroy(this->_M_impl._M_start, this->_M_impl._M_finish,
		      _M_get_Tp_allocator());
    4b44:	48 8b 45 f8          	mov    -0x8(%rbp),%rax
    4b48:	48 89 c7             	mov    %rax,%rdi
    4b4b:	e8 36 0d 00 00       	call   5886 <_ZNSt12_Vector_baseI21VkExtensionPropertiesSaIS0_EE19_M_get_Tp_allocatorEv>
    4b50:	48 89 c2             	mov    %rax,%rdx
	std::_Destroy(this->_M_impl._M_start, this->_M_impl._M_finish,
    4b53:	48 8b 45 f8          	mov    -0x8(%rbp),%rax
    4b57:	48 8b 48 08          	mov    0x8(%rax),%rcx
    4b5b:	48 8b 45 f8          	mov    -0x8(%rbp),%rax
    4b5f:	48 8b 00             	mov    (%rax),%rax
    4b62:	48 89 ce             	mov    %rcx,%rsi
    4b65:	48 89 c7             	mov    %rax,%rdi
    4b68:	e8 27 0d 00 00       	call   5894 <_ZSt8_DestroyIP21VkExtensionPropertiesS0_EvT_S2_RSaIT0_E>
	_GLIBCXX_ASAN_ANNOTATE_BEFORE_DEALLOC;
      }
    4b6d:	48 8b 45 f8          	mov    -0x8(%rbp),%rax
    4b71:	48 89 c7             	mov    %rax,%rdi
    4b74:	e8 27 00 00 00       	call   4ba0 <_ZNSt12_Vector_baseI21VkExtensionPropertiesSaIS0_EED1Ev>
    4b79:	90                   	nop
    4b7a:	c9                   	leave
    4b7b:	c3                   	ret

0000000000004b7c <_ZNSt6vectorI21VkExtensionPropertiesSaIS0_EE4dataEv>:
       *   Returns a pointer such that [data(), data() + size()) is a valid
       *   range.  For a non-empty %vector, data() == &front().
       */
      _GLIBCXX_NODISCARD _GLIBCXX20_CONSTEXPR
      _Tp*
      data() _GLIBCXX_NOEXCEPT
    4b7c:	55                   	push   %rbp
    4b7d:	48 89 e5             	mov    %rsp,%rbp
    4b80:	48 83 ec 10          	sub    $0x10,%rsp
    4b84:	48 89 7d f8          	mov    %rdi,-0x8(%rbp)
      { return _M_data_ptr(this->_M_impl._M_start); }
    4b88:	48 8b 45 f8          	mov    -0x8(%rbp),%rax
    4b8c:	48 8b 10             	mov    (%rax),%rdx
    4b8f:	48 8b 45 f8          	mov    -0x8(%rbp),%rax
    4b93:	48 89 d6             	mov    %rdx,%rsi
    4b96:	48 89 c7             	mov    %rax,%rdi
    4b99:	e8 20 0d 00 00       	call   58be <_ZNKSt6vectorI21VkExtensionPropertiesSaIS0_EE11_M_data_ptrIS0_EEPT_S5_>
    4b9e:	c9                   	leave
    4b9f:	c3                   	ret

0000000000004ba0 <_ZNSt12_Vector_baseI21VkExtensionPropertiesSaIS0_EED1Ev>:
      ~_Vector_base() _GLIBCXX_NOEXCEPT
    4ba0:	55                   	push   %rbp
    4ba1:	48 89 e5             	mov    %rsp,%rbp
    4ba4:	48 83 ec 10          	sub    $0x10,%rsp
    4ba8:	48 89 7d f8          	mov    %rdi,-0x8(%rbp)
		      _M_impl._M_end_of_storage - _M_impl._M_start);
    4bac:	48 8b 45 f8          	mov    -0x8(%rbp),%rax
    4bb0:	48 8b 50 10          	mov    0x10(%rax),%rdx
    4bb4:	48 8b 45 f8          	mov    -0x8(%rbp),%rax
    4bb8:	48 8b 00             	mov    (%rax),%rax
    4bbb:	48 29 c2             	sub    %rax,%rdx
    4bbe:	48 c1 fa 02          	sar    $0x2,%rdx
    4bc2:	48 b8 c1 0f fc c0 0f 	movabs $0xfc0fc0fc0fc0fc1,%rax
    4bc9:	fc c0 0f 
    4bcc:	48 0f af c2          	imul   %rdx,%rax
	_M_deallocate(_M_impl._M_start,
    4bd0:	48 89 c2             	mov    %rax,%rdx
    4bd3:	48 8b 45 f8          	mov    -0x8(%rbp),%rax
    4bd7:	48 8b 08             	mov    (%rax),%rcx
    4bda:	48 8b 45 f8          	mov    -0x8(%rbp),%rax
    4bde:	48 89 ce             	mov    %rcx,%rsi
    4be1:	48 89 c7             	mov    %rax,%rdi
    4be4:	e8 0d 0d 00 00       	call   58f6 <_ZNSt12_Vector_baseI21VkExtensionPropertiesSaIS0_EE13_M_deallocateEPS0_m>
      }
    4be9:	48 8b 45 f8          	mov    -0x8(%rbp),%rax
    4bed:	48 89 c7             	mov    %rax,%rdi
    4bf0:	e8 b5 fd ff ff       	call   49aa <_ZNSt12_Vector_baseI21VkExtensionPropertiesSaIS0_EE12_Vector_implD1Ev>
    4bf5:	90                   	nop
    4bf6:	c9                   	leave
    4bf7:	c3                   	ret

0000000000004bf8 <_ZNSaIPKcEC1Ev>:
      allocator() _GLIBCXX_NOTHROW { }
    4bf8:	55                   	push   %rbp
    4bf9:	48 89 e5             	mov    %rsp,%rbp
    4bfc:	48 83 ec 10          	sub    $0x10,%rsp
    4c00:	48 89 7d f8          	mov    %rdi,-0x8(%rbp)
    4c04:	48 8b 45 f8          	mov    -0x8(%rbp),%rax
    4c08:	48 89 c7             	mov    %rax,%rdi
    4c0b:	e8 1c 0d 00 00       	call   592c <_ZNSt15__new_allocatorIPKcEC1Ev>
    4c10:	90                   	nop
    4c11:	c9                   	leave
    4c12:	c3                   	ret
    4c13:	90                   	nop

0000000000004c14 <_ZNSaIPKcED1Ev>:
      ~allocator() _GLIBCXX_NOTHROW { }
    4c14:	55                   	push   %rbp
    4c15:	48 89 e5             	mov    %rsp,%rbp
    4c18:	48 83 ec 10          	sub    $0x10,%rsp
    4c1c:	48 89 7d f8          	mov    %rdi,-0x8(%rbp)
    4c20:	48 8b 45 f8          	mov    -0x8(%rbp),%rax
    4c24:	48 89 c7             	mov    %rax,%rdi
    4c27:	e8 0c 0d 00 00       	call   5938 <_ZNSt15__new_allocatorIPKcED1Ev>
    4c2c:	90                   	nop
    4c2d:	c9                   	leave
    4c2e:	c3                   	ret
    4c2f:	90                   	nop

0000000000004c30 <_ZNSt6vectorIPKcSaIS1_EEC1EmRKS2_>:
      vector(size_type __n, const allocator_type& __a = allocator_type())
    4c30:	55                   	push   %rbp
    4c31:	48 89 e5             	mov    %rsp,%rbp
    4c34:	53                   	push   %rbx
    4c35:	48 83 ec 28          	sub    $0x28,%rsp
    4c39:	48 89 7d e8          	mov    %rdi,-0x18(%rbp)
    4c3d:	48 89 75 e0          	mov    %rsi,-0x20(%rbp)
    4c41:	48 89 55 d8          	mov    %rdx,-0x28(%rbp)
      : _Base(_S_check_init_len(__n, __a), __a)
    4c45:	48 8b 5d e8          	mov    -0x18(%rbp),%rbx
    4c49:	48 8b 55 d8          	mov    -0x28(%rbp),%rdx
    4c4d:	48 8b 45 e0          	mov    -0x20(%rbp),%rax
    4c51:	48 89 d6             	mov    %rdx,%rsi
    4c54:	48 89 c7             	mov    %rax,%rdi
    4c57:	e8 e7 0c 00 00       	call   5943 <_ZNSt6vectorIPKcSaIS1_EE17_S_check_init_lenEmRKS2_>
    4c5c:	48 89 c1             	mov    %rax,%rcx
    4c5f:	48 8b 45 d8          	mov    -0x28(%rbp),%rax
    4c63:	48 89 c2             	mov    %rax,%rdx
    4c66:	48 89 ce             	mov    %rcx,%rsi
    4c69:	48 89 df             	mov    %rbx,%rdi
    4c6c:	e8 33 0d 00 00       	call   59a4 <_ZNSt12_Vector_baseIPKcSaIS1_EEC1EmRKS2_>
      { _M_default_initialize(__n); }
    4c71:	48 8b 55 e0          	mov    -0x20(%rbp),%rdx
    4c75:	48 8b 45 e8          	mov    -0x18(%rbp),%rax
    4c79:	48 89 d6             	mov    %rdx,%rsi
    4c7c:	48 89 c7             	mov    %rax,%rdi
    4c7f:	e8 7e 0d 00 00       	call   5a02 <_ZNSt6vectorIPKcSaIS1_EE21_M_default_initializeEm>
    4c84:	eb 1a                	jmp    4ca0 <_ZNSt6vectorIPKcSaIS1_EEC1EmRKS2_+0x70>
    4c86:	48 89 c3             	mov    %rax,%rbx
    4c89:	48 8b 45 e8          	mov    -0x18(%rbp),%rax
    4c8d:	48 89 c7             	mov    %rax,%rdi
    4c90:	e8 a7 00 00 00       	call   4d3c <_ZNSt12_Vector_baseIPKcSaIS1_EED1Ev>
    4c95:	48 89 d8             	mov    %rbx,%rax
    4c98:	48 89 c7             	mov    %rax,%rdi
    4c9b:	e8 d0 e7 ff ff       	call   3470 <_Unwind_Resume@plt>
    4ca0:	48 8b 5d f8          	mov    -0x8(%rbp),%rbx
    4ca4:	c9                   	leave
    4ca5:	c3                   	ret

0000000000004ca6 <_ZNSt6vectorIPKcSaIS1_EED1Ev>:
      ~vector() _GLIBCXX_NOEXCEPT
    4ca6:	55                   	push   %rbp
    4ca7:	48 89 e5             	mov    %rsp,%rbp
    4caa:	48 83 ec 10          	sub    $0x10,%rsp
    4cae:	48 89 7d f8          	mov    %rdi,-0x8(%rbp)
		      _M_get_Tp_allocator());
    4cb2:	48 8b 45 f8          	mov    -0x8(%rbp),%rax
    4cb6:	48 89 c7             	mov    %rax,%rdi
    4cb9:	e8 84 0d 00 00       	call   5a42 <_ZNSt12_Vector_baseIPKcSaIS1_EE19_M_get_Tp_allocatorEv>
    4cbe:	48 89 c2             	mov    %rax,%rdx
	std::_Destroy(this->_M_impl._M_start, this->_M_impl._M_finish,
    4cc1:	48 8b 45 f8          	mov    -0x8(%rbp),%rax
    4cc5:	48 8b 48 08          	mov    0x8(%rax),%rcx
    4cc9:	48 8b 45 f8          	mov    -0x8(%rbp),%rax
    4ccd:	48 8b 00             	mov    (%rax),%rax
    4cd0:	48 89 ce             	mov    %rcx,%rsi
    4cd3:	48 89 c7             	mov    %rax,%rdi
    4cd6:	e8 75 0d 00 00       	call   5a50 <_ZSt8_DestroyIPPKcS1_EvT_S3_RSaIT0_E>
      }
    4cdb:	48 8b 45 f8          	mov    -0x8(%rbp),%rax
    4cdf:	48 89 c7             	mov    %rax,%rdi
    4ce2:	e8 55 00 00 00       	call   4d3c <_ZNSt12_Vector_baseIPKcSaIS1_EED1Ev>
    4ce7:	90                   	nop
    4ce8:	c9                   	leave
    4ce9:	c3                   	ret

0000000000004cea <_ZNSt6vectorIPKcSaIS1_EEixEm>:
      operator[](size_type __n) _GLIBCXX_NOEXCEPT
    4cea:	55                   	push   %rbp
    4ceb:	48 89 e5             	mov    %rsp,%rbp
    4cee:	48 89 7d f8          	mov    %rdi,-0x8(%rbp)
    4cf2:	48 89 75 f0          	mov    %rsi,-0x10(%rbp)
	return *(this->_M_impl._M_start + __n);
    4cf6:	48 8b 45 f8          	mov    -0x8(%rbp),%rax
    4cfa:	48 8b 00             	mov    (%rax),%rax
    4cfd:	48 8b 55 f0          	mov    -0x10(%rbp),%rdx
    4d01:	48 c1 e2 03          	shl    $0x3,%rdx
    4d05:	48 01 d0             	add    %rdx,%rax
      }
    4d08:	5d                   	pop    %rbp
    4d09:	c3                   	ret

0000000000004d0a <_ZNSt6vectorIPKcSaIS1_EE9push_backEOS1_>:
      }

#if __cplusplus >= 201103L
      _GLIBCXX20_CONSTEXPR
      void
      push_back(value_type&& __x)
    4d0a:	55                   	push   %rbp
    4d0b:	48 89 e5             	mov    %rsp,%rbp
    4d0e:	48 83 ec 10          	sub    $0x10,%rsp
    4d12:	48 89 7d f8          	mov    %rdi,-0x8(%rbp)
    4d16:	48 89 75 f0          	mov    %rsi,-0x10(%rbp)
      { emplace_back(std::move(__x)); }
    4d1a:	48 8b 45 f0          	mov    -0x10(%rbp),%rax
    4d1e:	48 89 c7             	mov    %rax,%rdi
    4d21:	e8 54 0d 00 00       	call   5a7a <_ZSt4moveIRPKcEONSt16remove_referenceIT_E4typeEOS4_>
    4d26:	48 89 c2             	mov    %rax,%rdx
    4d29:	48 8b 45 f8          	mov    -0x8(%rbp),%rax
    4d2d:	48 89 d6             	mov    %rdx,%rsi
    4d30:	48 89 c7             	mov    %rax,%rdi
    4d33:	e8 50 0d 00 00       	call   5a88 <_ZNSt6vectorIPKcSaIS1_EE12emplace_backIJS1_EEERS1_DpOT_>
    4d38:	90                   	nop
    4d39:	c9                   	leave
    4d3a:	c3                   	ret
    4d3b:	90                   	nop

0000000000004d3c <_ZNSt12_Vector_baseIPKcSaIS1_EED1Ev>:
      ~_Vector_base() _GLIBCXX_NOEXCEPT
    4d3c:	55                   	push   %rbp
    4d3d:	48 89 e5             	mov    %rsp,%rbp
    4d40:	48 83 ec 10          	sub    $0x10,%rsp
    4d44:	48 89 7d f8          	mov    %rdi,-0x8(%rbp)
		      _M_impl._M_end_of_storage - _M_impl._M_start);
    4d48:	48 8b 45 f8          	mov    -0x8(%rbp),%rax
    4d4c:	48 8b 50 10          	mov    0x10(%rax),%rdx
    4d50:	48 8b 45 f8          	mov    -0x8(%rbp),%rax
    4d54:	48 8b 00             	mov    (%rax),%rax
    4d57:	48 29 c2             	sub    %rax,%rdx
    4d5a:	48 89 d0             	mov    %rdx,%rax
    4d5d:	48 c1 f8 03          	sar    $0x3,%rax
	_M_deallocate(_M_impl._M_start,
    4d61:	48 89 c2             	mov    %rax,%rdx
    4d64:	48 8b 45 f8          	mov    -0x8(%rbp),%rax
    4d68:	48 8b 08             	mov    (%rax),%rcx
    4d6b:	48 8b 45 f8          	mov    -0x8(%rbp),%rax
    4d6f:	48 89 ce             	mov    %rcx,%rsi
    4d72:	48 89 c7             	mov    %rax,%rdi
    4d75:	e8 d8 0d 00 00       	call   5b52 <_ZNSt12_Vector_baseIPKcSaIS1_EE13_M_deallocateEPS1_m>
      }
    4d7a:	48 8b 45 f8          	mov    -0x8(%rbp),%rax
    4d7e:	48 89 c7             	mov    %rax,%rdi
    4d81:	e8 40 fc ff ff       	call   49c6 <_ZNSt12_Vector_baseIPKcSaIS1_EE12_Vector_implD1Ev>
    4d86:	90                   	nop
    4d87:	c9                   	leave
    4d88:	c3                   	ret
    4d89:	90                   	nop

0000000000004d8a <_ZNSaI17VkLayerPropertiesEC1Ev>:
      allocator() _GLIBCXX_NOTHROW { }
    4d8a:	55                   	push   %rbp
    4d8b:	48 89 e5             	mov    %rsp,%rbp
    4d8e:	48 83 ec 10          	sub    $0x10,%rsp
    4d92:	48 89 7d f8          	mov    %rdi,-0x8(%rbp)
    4d96:	48 8b 45 f8          	mov    -0x8(%rbp),%rax
    4d9a:	48 89 c7             	mov    %rax,%rdi
    4d9d:	e8 e6 0d 00 00       	call   5b88 <_ZNSt15__new_allocatorI17VkLayerPropertiesEC1Ev>
    4da2:	90                   	nop
    4da3:	c9                   	leave
    4da4:	c3                   	ret
    4da5:	90                   	nop

0000000000004da6 <_ZNSaI17VkLayerPropertiesED1Ev>:
      ~allocator() _GLIBCXX_NOTHROW { }
    4da6:	55                   	push   %rbp
    4da7:	48 89 e5             	mov    %rsp,%rbp
    4daa:	48 83 ec 10          	sub    $0x10,%rsp
    4dae:	48 89 7d f8          	mov    %rdi,-0x8(%rbp)
    4db2:	48 8b 45 f8          	mov    -0x8(%rbp),%rax
    4db6:	48 89 c7             	mov    %rax,%rdi
    4db9:	e8 d6 0d 00 00       	call   5b94 <_ZNSt15__new_allocatorI17VkLayerPropertiesED1Ev>
    4dbe:	90                   	nop
    4dbf:	c9                   	leave
    4dc0:	c3                   	ret
    4dc1:	90                   	nop

0000000000004dc2 <_ZNSt6vectorI17VkLayerPropertiesSaIS0_EEC1EmRKS1_>:
      vector(size_type __n, const allocator_type& __a = allocator_type())
    4dc2:	55                   	push   %rbp
    4dc3:	48 89 e5             	mov    %rsp,%rbp
    4dc6:	53                   	push   %rbx
    4dc7:	48 83 ec 28          	sub    $0x28,%rsp
    4dcb:	48 89 7d e8          	mov    %rdi,-0x18(%rbp)
    4dcf:	48 89 75 e0          	mov    %rsi,-0x20(%rbp)
    4dd3:	48 89 55 d8          	mov    %rdx,-0x28(%rbp)
      : _Base(_S_check_init_len(__n, __a), __a)
    4dd7:	48 8b 5d e8          	mov    -0x18(%rbp),%rbx
    4ddb:	48 8b 55 d8          	mov    -0x28(%rbp),%rdx
    4ddf:	48 8b 45 e0          	mov    -0x20(%rbp),%rax
    4de3:	48 89 d6             	mov    %rdx,%rsi
    4de6:	48 89 c7             	mov    %rax,%rdi
    4de9:	e8 b1 0d 00 00       	call   5b9f <_ZNSt6vectorI17VkLayerPropertiesSaIS0_EE17_S_check_init_lenEmRKS1_>
    4dee:	48 89 c1             	mov    %rax,%rcx
    4df1:	48 8b 45 d8          	mov    -0x28(%rbp),%rax
    4df5:	48 89 c2             	mov    %rax,%rdx
    4df8:	48 89 ce             	mov    %rcx,%rsi
    4dfb:	48 89 df             	mov    %rbx,%rdi
    4dfe:	e8 fd 0d 00 00       	call   5c00 <_ZNSt12_Vector_baseI17VkLayerPropertiesSaIS0_EEC1EmRKS1_>
      { _M_default_initialize(__n); }
    4e03:	48 8b 55 e0          	mov    -0x20(%rbp),%rdx
    4e07:	48 8b 45 e8          	mov    -0x18(%rbp),%rax
    4e0b:	48 89 d6             	mov    %rdx,%rsi
    4e0e:	48 89 c7             	mov    %rax,%rdi
    4e11:	e8 48 0e 00 00       	call   5c5e <_ZNSt6vectorI17VkLayerPropertiesSaIS0_EE21_M_default_initializeEm>
    4e16:	eb 1a                	jmp    4e32 <_ZNSt6vectorI17VkLayerPropertiesSaIS0_EEC1EmRKS1_+0x70>
    4e18:	48 89 c3             	mov    %rax,%rbx
    4e1b:	48 8b 45 e8          	mov    -0x18(%rbp),%rax
    4e1f:	48 89 c7             	mov    %rax,%rdi
    4e22:	e8 79 00 00 00       	call   4ea0 <_ZNSt12_Vector_baseI17VkLayerPropertiesSaIS0_EED1Ev>
    4e27:	48 89 d8             	mov    %rbx,%rax
    4e2a:	48 89 c7             	mov    %rax,%rdi
    4e2d:	e8 3e e6 ff ff       	call   3470 <_Unwind_Resume@plt>
    4e32:	48 8b 5d f8          	mov    -0x8(%rbp),%rbx
    4e36:	c9                   	leave
    4e37:	c3                   	ret

0000000000004e38 <_ZNSt6vectorI17VkLayerPropertiesSaIS0_EED1Ev>:
      ~vector() _GLIBCXX_NOEXCEPT
    4e38:	55                   	push   %rbp
    4e39:	48 89 e5             	mov    %rsp,%rbp
    4e3c:	48 83 ec 10          	sub    $0x10,%rsp
    4e40:	48 89 7d f8          	mov    %rdi,-0x8(%rbp)
		      _M_get_Tp_allocator());
    4e44:	48 8b 45 f8          	mov    -0x8(%rbp),%rax
    4e48:	48 89 c7             	mov    %rax,%rdi
    4e4b:	e8 4e 0e 00 00       	call   5c9e <_ZNSt12_Vector_baseI17VkLayerPropertiesSaIS0_EE19_M_get_Tp_allocatorEv>
    4e50:	48 89 c2             	mov    %rax,%rdx
	std::_Destroy(this->_M_impl._M_start, this->_M_impl._M_finish,
    4e53:	48 8b 45 f8          	mov    -0x8(%rbp),%rax
    4e57:	48 8b 48 08          	mov    0x8(%rax),%rcx
    4e5b:	48 8b 45 f8          	mov    -0x8(%rbp),%rax
    4e5f:	48 8b 00             	mov    (%rax),%rax
    4e62:	48 89 ce             	mov    %rcx,%rsi
    4e65:	48 89 c7             	mov    %rax,%rdi
    4e68:	e8 3f 0e 00 00       	call   5cac <_ZSt8_DestroyIP17VkLayerPropertiesS0_EvT_S2_RSaIT0_E>
      }
    4e6d:	48 8b 45 f8          	mov    -0x8(%rbp),%rax
    4e71:	48 89 c7             	mov    %rax,%rdi
    4e74:	e8 27 00 00 00       	call   4ea0 <_ZNSt12_Vector_baseI17VkLayerPropertiesSaIS0_EED1Ev>
    4e79:	90                   	nop
    4e7a:	c9                   	leave
    4e7b:	c3                   	ret

0000000000004e7c <_ZNSt6vectorI17VkLayerPropertiesSaIS0_EE4dataEv>:
      data() _GLIBCXX_NOEXCEPT
    4e7c:	55                   	push   %rbp
    4e7d:	48 89 e5             	mov    %rsp,%rbp
    4e80:	48 83 ec 10          	sub    $0x10,%rsp
    4e84:	48 89 7d f8          	mov    %rdi,-0x8(%rbp)
      { return _M_data_ptr(this->_M_impl._M_start); }
    4e88:	48 8b 45 f8          	mov    -0x8(%rbp),%rax
    4e8c:	48 8b 10             	mov    (%rax),%rdx
    4e8f:	48 8b 45 f8          	mov    -0x8(%rbp),%rax
    4e93:	48 89 d6             	mov    %rdx,%rsi
    4e96:	48 89 c7             	mov    %rax,%rdi
    4e99:	e8 38 0e 00 00       	call   5cd6 <_ZNKSt6vectorI17VkLayerPropertiesSaIS0_EE11_M_data_ptrIS0_EEPT_S5_>
    4e9e:	c9                   	leave
    4e9f:	c3                   	ret

0000000000004ea0 <_ZNSt12_Vector_baseI17VkLayerPropertiesSaIS0_EED1Ev>:
      ~_Vector_base() _GLIBCXX_NOEXCEPT
    4ea0:	55                   	push   %rbp
    4ea1:	48 89 e5             	mov    %rsp,%rbp
    4ea4:	48 83 ec 10          	sub    $0x10,%rsp
    4ea8:	48 89 7d f8          	mov    %rdi,-0x8(%rbp)
		      _M_impl._M_end_of_storage - _M_impl._M_start);
    4eac:	48 8b 45 f8          	mov    -0x8(%rbp),%rax
    4eb0:	48 8b 50 10          	mov    0x10(%rax),%rdx
    4eb4:	48 8b 45 f8          	mov    -0x8(%rbp),%rax
    4eb8:	48 8b 00             	mov    (%rax),%rax
    4ebb:	48 29 c2             	sub    %rax,%rdx
    4ebe:	48 c1 fa 03          	sar    $0x3,%rdx
    4ec2:	48 b8 c1 0f fc c0 0f 	movabs $0xfc0fc0fc0fc0fc1,%rax
    4ec9:	fc c0 0f 
    4ecc:	48 0f af c2          	imul   %rdx,%rax
	_M_deallocate(_M_impl._M_start,
    4ed0:	48 89 c2             	mov    %rax,%rdx
    4ed3:	48 8b 45 f8          	mov    -0x8(%rbp),%rax
    4ed7:	48 8b 08             	mov    (%rax),%rcx
    4eda:	48 8b 45 f8          	mov    -0x8(%rbp),%rax
    4ede:	48 89 ce             	mov    %rcx,%rsi
    4ee1:	48 89 c7             	mov    %rax,%rdi
    4ee4:	e8 25 0e 00 00       	call   5d0e <_ZNSt12_Vector_baseI17VkLayerPropertiesSaIS0_EE13_M_deallocateEPS0_m>
      }
    4ee9:	48 8b 45 f8          	mov    -0x8(%rbp),%rax
    4eed:	48 89 c7             	mov    %rax,%rdi
    4ef0:	e8 ed fa ff ff       	call   49e2 <_ZNSt12_Vector_baseI17VkLayerPropertiesSaIS0_EE12_Vector_implD1Ev>
    4ef5:	90                   	nop
    4ef6:	c9                   	leave
    4ef7:	c3                   	ret

0000000000004ef8 <_ZNSaIP18VkPhysicalDevice_TEC1Ev>:
      allocator() _GLIBCXX_NOTHROW { }
    4ef8:	55                   	push   %rbp
    4ef9:	48 89 e5             	mov    %rsp,%rbp
    4efc:	48 83 ec 10          	sub    $0x10,%rsp
    4f00:	48 89 7d f8          	mov    %rdi,-0x8(%rbp)
    4f04:	48 8b 45 f8          	mov    -0x8(%rbp),%rax
    4f08:	48 89 c7             	mov    %rax,%rdi
    4f0b:	e8 34 0e 00 00       	call   5d44 <_ZNSt15__new_allocatorIP18VkPhysicalDevice_TEC1Ev>
    4f10:	90                   	nop
    4f11:	c9                   	leave
    4f12:	c3                   	ret
    4f13:	90                   	nop

0000000000004f14 <_ZNSaIP18VkPhysicalDevice_TED1Ev>:
      ~allocator() _GLIBCXX_NOTHROW { }
    4f14:	55                   	push   %rbp
    4f15:	48 89 e5             	mov    %rsp,%rbp
    4f18:	48 83 ec 10          	sub    $0x10,%rsp
    4f1c:	48 89 7d f8          	mov    %rdi,-0x8(%rbp)
    4f20:	48 8b 45 f8          	mov    -0x8(%rbp),%rax
    4f24:	48 89 c7             	mov    %rax,%rdi
    4f27:	e8 24 0e 00 00       	call   5d50 <_ZNSt15__new_allocatorIP18VkPhysicalDevice_TED1Ev>
    4f2c:	90                   	nop
    4f2d:	c9                   	leave
    4f2e:	c3                   	ret
    4f2f:	90                   	nop

0000000000004f30 <_ZNSt6vectorIP18VkPhysicalDevice_TSaIS1_EEC1EmRKS2_>:
      vector(size_type __n, const allocator_type& __a = allocator_type())
    4f30:	55                   	push   %rbp
    4f31:	48 89 e5             	mov    %rsp,%rbp
    4f34:	53                   	push   %rbx
    4f35:	48 83 ec 28          	sub    $0x28,%rsp
    4f39:	48 89 7d e8          	mov    %rdi,-0x18(%rbp)
    4f3d:	48 89 75 e0          	mov    %rsi,-0x20(%rbp)
    4f41:	48 89 55 d8          	mov    %rdx,-0x28(%rbp)
      : _Base(_S_check_init_len(__n, __a), __a)
    4f45:	48 8b 5d e8          	mov    -0x18(%rbp),%rbx
    4f49:	48 8b 55 d8          	mov    -0x28(%rbp),%rdx
    4f4d:	48 8b 45 e0          	mov    -0x20(%rbp),%rax
    4f51:	48 89 d6             	mov    %rdx,%rsi
    4f54:	48 89 c7             	mov    %rax,%rdi
    4f57:	e8 ff 0d 00 00       	call   5d5b <_ZNSt6vectorIP18VkPhysicalDevice_TSaIS1_EE17_S_check_init_lenEmRKS2_>
    4f5c:	48 89 c1             	mov    %rax,%rcx
    4f5f:	48 8b 45 d8          	mov    -0x28(%rbp),%rax
    4f63:	48 89 c2             	mov    %rax,%rdx
    4f66:	48 89 ce             	mov    %rcx,%rsi
    4f69:	48 89 df             	mov    %rbx,%rdi
    4f6c:	e8 4b 0e 00 00       	call   5dbc <_ZNSt12_Vector_baseIP18VkPhysicalDevice_TSaIS1_EEC1EmRKS2_>
      { _M_default_initialize(__n); }
    4f71:	48 8b 55 e0          	mov    -0x20(%rbp),%rdx
    4f75:	48 8b 45 e8          	mov    -0x18(%rbp),%rax
    4f79:	48 89 d6             	mov    %rdx,%rsi
    4f7c:	48 89 c7             	mov    %rax,%rdi
    4f7f:	e8 96 0e 00 00       	call   5e1a <_ZNSt6vectorIP18VkPhysicalDevice_TSaIS1_EE21_M_default_initializeEm>
    4f84:	eb 1a                	jmp    4fa0 <_ZNSt6vectorIP18VkPhysicalDevice_TSaIS1_EEC1EmRKS2_+0x70>
    4f86:	48 89 c3             	mov    %rax,%rbx
    4f89:	48 8b 45 e8          	mov    -0x18(%rbp),%rax
    4f8d:	48 89 c7             	mov    %rax,%rdi
    4f90:	e8 79 00 00 00       	call   500e <_ZNSt12_Vector_baseIP18VkPhysicalDevice_TSaIS1_EED1Ev>
    4f95:	48 89 d8             	mov    %rbx,%rax
    4f98:	48 89 c7             	mov    %rax,%rdi
    4f9b:	e8 d0 e4 ff ff       	call   3470 <_Unwind_Resume@plt>
    4fa0:	48 8b 5d f8          	mov    -0x8(%rbp),%rbx
    4fa4:	c9                   	leave
    4fa5:	c3                   	ret

0000000000004fa6 <_ZNSt6vectorIP18VkPhysicalDevice_TSaIS1_EED1Ev>:
      ~vector() _GLIBCXX_NOEXCEPT
    4fa6:	55                   	push   %rbp
    4fa7:	48 89 e5             	mov    %rsp,%rbp
    4faa:	48 83 ec 10          	sub    $0x10,%rsp
    4fae:	48 89 7d f8          	mov    %rdi,-0x8(%rbp)
		      _M_get_Tp_allocator());
    4fb2:	48 8b 45 f8          	mov    -0x8(%rbp),%rax
    4fb6:	48 89 c7             	mov    %rax,%rdi
    4fb9:	e8 9c 0e 00 00       	call   5e5a <_ZNSt12_Vector_baseIP18VkPhysicalDevice_TSaIS1_EE19_M_get_Tp_allocatorEv>
    4fbe:	48 89 c2             	mov    %rax,%rdx
	std::_Destroy(this->_M_impl._M_start, this->_M_impl._M_finish,
    4fc1:	48 8b 45 f8          	mov    -0x8(%rbp),%rax
    4fc5:	48 8b 48 08          	mov    0x8(%rax),%rcx
    4fc9:	48 8b 45 f8          	mov    -0x8(%rbp),%rax
    4fcd:	48 8b 00             	mov    (%rax),%rax
    4fd0:	48 89 ce             	mov    %rcx,%rsi
    4fd3:	48 89 c7             	mov    %rax,%rdi
    4fd6:	e8 8d 0e 00 00       	call   5e68 <_ZSt8_DestroyIPP18VkPhysicalDevice_TS1_EvT_S3_RSaIT0_E>
      }
    4fdb:	48 8b 45 f8          	mov    -0x8(%rbp),%rax
    4fdf:	48 89 c7             	mov    %rax,%rdi
    4fe2:	e8 27 00 00 00       	call   500e <_ZNSt12_Vector_baseIP18VkPhysicalDevice_TSaIS1_EED1Ev>
    4fe7:	90                   	nop
    4fe8:	c9                   	leave
    4fe9:	c3                   	ret

0000000000004fea <_ZNSt6vectorIP18VkPhysicalDevice_TSaIS1_EE4dataEv>:
      data() _GLIBCXX_NOEXCEPT
    4fea:	55                   	push   %rbp
    4feb:	48 89 e5             	mov    %rsp,%rbp
    4fee:	48 83 ec 10          	sub    $0x10,%rsp
    4ff2:	48 89 7d f8          	mov    %rdi,-0x8(%rbp)
      { return _M_data_ptr(this->_M_impl._M_start); }
    4ff6:	48 8b 45 f8          	mov    -0x8(%rbp),%rax
    4ffa:	48 8b 10             	mov    (%rax),%rdx
    4ffd:	48 8b 45 f8          	mov    -0x8(%rbp),%rax
    5001:	48 89 d6             	mov    %rdx,%rsi
    5004:	48 89 c7             	mov    %rax,%rdi
    5007:	e8 86 0e 00 00       	call   5e92 <_ZNKSt6vectorIP18VkPhysicalDevice_TSaIS1_EE11_M_data_ptrIS1_EEPT_S6_>
    500c:	c9                   	leave
    500d:	c3                   	ret

000000000000500e <_ZNSt12_Vector_baseIP18VkPhysicalDevice_TSaIS1_EED1Ev>:
      ~_Vector_base() _GLIBCXX_NOEXCEPT
    500e:	55                   	push   %rbp
    500f:	48 89 e5             	mov    %rsp,%rbp
    5012:	48 83 ec 10          	sub    $0x10,%rsp
    5016:	48 89 7d f8          	mov    %rdi,-0x8(%rbp)
		      _M_impl._M_end_of_storage - _M_impl._M_start);
    501a:	48 8b 45 f8          	mov    -0x8(%rbp),%rax
    501e:	48 8b 50 10          	mov    0x10(%rax),%rdx
    5022:	48 8b 45 f8          	mov    -0x8(%rbp),%rax
    5026:	48 8b 00             	mov    (%rax),%rax
    5029:	48 29 c2             	sub    %rax,%rdx
    502c:	48 89 d0             	mov    %rdx,%rax
    502f:	48 c1 f8 03          	sar    $0x3,%rax
	_M_deallocate(_M_impl._M_start,
    5033:	48 89 c2             	mov    %rax,%rdx
    5036:	48 8b 45 f8          	mov    -0x8(%rbp),%rax
    503a:	48 8b 08             	mov    (%rax),%rcx
    503d:	48 8b 45 f8          	mov    -0x8(%rbp),%rax
    5041:	48 89 ce             	mov    %rcx,%rsi
    5044:	48 89 c7             	mov    %rax,%rdi
    5047:	e8 7e 0e 00 00       	call   5eca <_ZNSt12_Vector_baseIP18VkPhysicalDevice_TSaIS1_EE13_M_deallocateEPS1_m>
      }
    504c:	48 8b 45 f8          	mov    -0x8(%rbp),%rax
    5050:	48 89 c7             	mov    %rax,%rdi
    5053:	e8 a6 f9 ff ff       	call   49fe <_ZNSt12_Vector_baseIP18VkPhysicalDevice_TSaIS1_EE12_Vector_implD1Ev>
    5058:	90                   	nop
    5059:	c9                   	leave
    505a:	c3                   	ret
    505b:	90                   	nop

000000000000505c <_ZNSaI23VkQueueFamilyPropertiesEC1Ev>:
      allocator() _GLIBCXX_NOTHROW { }
    505c:	55                   	push   %rbp
    505d:	48 89 e5             	mov    %rsp,%rbp
    5060:	48 83 ec 10          	sub    $0x10,%rsp
    5064:	48 89 7d f8          	mov    %rdi,-0x8(%rbp)
    5068:	48 8b 45 f8          	mov    -0x8(%rbp),%rax
    506c:	48 89 c7             	mov    %rax,%rdi
    506f:	e8 8c 0e 00 00       	call   5f00 <_ZNSt15__new_allocatorI23VkQueueFamilyPropertiesEC1Ev>
    5074:	90                   	nop
    5075:	c9                   	leave
    5076:	c3                   	ret
    5077:	90                   	nop

0000000000005078 <_ZNSaI23VkQueueFamilyPropertiesED1Ev>:
      ~allocator() _GLIBCXX_NOTHROW { }
    5078:	55                   	push   %rbp
    5079:	48 89 e5             	mov    %rsp,%rbp
    507c:	48 83 ec 10          	sub    $0x10,%rsp
    5080:	48 89 7d f8          	mov    %rdi,-0x8(%rbp)
    5084:	48 8b 45 f8          	mov    -0x8(%rbp),%rax
    5088:	48 89 c7             	mov    %rax,%rdi
    508b:	e8 7c 0e 00 00       	call   5f0c <_ZNSt15__new_allocatorI23VkQueueFamilyPropertiesED1Ev>
    5090:	90                   	nop
    5091:	c9                   	leave
    5092:	c3                   	ret
    5093:	90                   	nop

0000000000005094 <_ZNSt6vectorI23VkQueueFamilyPropertiesSaIS0_EEC1EmRKS1_>:
      vector(size_type __n, const allocator_type& __a = allocator_type())
    5094:	55                   	push   %rbp
    5095:	48 89 e5             	mov    %rsp,%rbp
    5098:	53                   	push   %rbx
    5099:	48 83 ec 28          	sub    $0x28,%rsp
    509d:	48 89 7d e8          	mov    %rdi,-0x18(%rbp)
    50a1:	48 89 75 e0          	mov    %rsi,-0x20(%rbp)
    50a5:	48 89 55 d8          	mov    %rdx,-0x28(%rbp)
      : _Base(_S_check_init_len(__n, __a), __a)
    50a9:	48 8b 5d e8          	mov    -0x18(%rbp),%rbx
    50ad:	48 8b 55 d8          	mov    -0x28(%rbp),%rdx
    50b1:	48 8b 45 e0          	mov    -0x20(%rbp),%rax
    50b5:	48 89 d6             	mov    %rdx,%rsi
    50b8:	48 89 c7             	mov    %rax,%rdi
    50bb:	e8 57 0e 00 00       	call   5f17 <_ZNSt6vectorI23VkQueueFamilyPropertiesSaIS0_EE17_S_check_init_lenEmRKS1_>
    50c0:	48 89 c1             	mov    %rax,%rcx
    50c3:	48 8b 45 d8          	mov    -0x28(%rbp),%rax
    50c7:	48 89 c2             	mov    %rax,%rdx
    50ca:	48 89 ce             	mov    %rcx,%rsi
    50cd:	48 89 df             	mov    %rbx,%rdi
    50d0:	e8 a3 0e 00 00       	call   5f78 <_ZNSt12_Vector_baseI23VkQueueFamilyPropertiesSaIS0_EEC1EmRKS1_>
      { _M_default_initialize(__n); }
    50d5:	48 8b 55 e0          	mov    -0x20(%rbp),%rdx
    50d9:	48 8b 45 e8          	mov    -0x18(%rbp),%rax
    50dd:	48 89 d6             	mov    %rdx,%rsi
    50e0:	48 89 c7             	mov    %rax,%rdi
    50e3:	e8 ee 0e 00 00       	call   5fd6 <_ZNSt6vectorI23VkQueueFamilyPropertiesSaIS0_EE21_M_default_initializeEm>
    50e8:	eb 1a                	jmp    5104 <_ZNSt6vectorI23VkQueueFamilyPropertiesSaIS0_EEC1EmRKS1_+0x70>
    50ea:	48 89 c3             	mov    %rax,%rbx
    50ed:	48 8b 45 e8          	mov    -0x18(%rbp),%rax
    50f1:	48 89 c7             	mov    %rax,%rdi
    50f4:	e8 79 00 00 00       	call   5172 <_ZNSt12_Vector_baseI23VkQueueFamilyPropertiesSaIS0_EED1Ev>
    50f9:	48 89 d8             	mov    %rbx,%rax
    50fc:	48 89 c7             	mov    %rax,%rdi
    50ff:	e8 6c e3 ff ff       	call   3470 <_Unwind_Resume@plt>
    5104:	48 8b 5d f8          	mov    -0x8(%rbp),%rbx
    5108:	c9                   	leave
    5109:	c3                   	ret

000000000000510a <_ZNSt6vectorI23VkQueueFamilyPropertiesSaIS0_EED1Ev>:
      ~vector() _GLIBCXX_NOEXCEPT
    510a:	55                   	push   %rbp
    510b:	48 89 e5             	mov    %rsp,%rbp
    510e:	48 83 ec 10          	sub    $0x10,%rsp
    5112:	48 89 7d f8          	mov    %rdi,-0x8(%rbp)
		      _M_get_Tp_allocator());
    5116:	48 8b 45 f8          	mov    -0x8(%rbp),%rax
    511a:	48 89 c7             	mov    %rax,%rdi
    511d:	e8 f4 0e 00 00       	call   6016 <_ZNSt12_Vector_baseI23VkQueueFamilyPropertiesSaIS0_EE19_M_get_Tp_allocatorEv>
    5122:	48 89 c2             	mov    %rax,%rdx
	std::_Destroy(this->_M_impl._M_start, this->_M_impl._M_finish,
    5125:	48 8b 45 f8          	mov    -0x8(%rbp),%rax
    5129:	48 8b 48 08          	mov    0x8(%rax),%rcx
    512d:	48 8b 45 f8          	mov    -0x8(%rbp),%rax
    5131:	48 8b 00             	mov    (%rax),%rax
    5134:	48 89 ce             	mov    %rcx,%rsi
    5137:	48 89 c7             	mov    %rax,%rdi
    513a:	e8 e5 0e 00 00       	call   6024 <_ZSt8_DestroyIP23VkQueueFamilyPropertiesS0_EvT_S2_RSaIT0_E>
      }
    513f:	48 8b 45 f8          	mov    -0x8(%rbp),%rax
    5143:	48 89 c7             	mov    %rax,%rdi
    5146:	e8 27 00 00 00       	call   5172 <_ZNSt12_Vector_baseI23VkQueueFamilyPropertiesSaIS0_EED1Ev>
    514b:	90                   	nop
    514c:	c9                   	leave
    514d:	c3                   	ret

000000000000514e <_ZNSt6vectorI23VkQueueFamilyPropertiesSaIS0_EE4dataEv>:
      data() _GLIBCXX_NOEXCEPT
    514e:	55                   	push   %rbp
    514f:	48 89 e5             	mov    %rsp,%rbp
    5152:	48 83 ec 10          	sub    $0x10,%rsp
    5156:	48 89 7d f8          	mov    %rdi,-0x8(%rbp)
      { return _M_data_ptr(this->_M_impl._M_start); }
    515a:	48 8b 45 f8          	mov    -0x8(%rbp),%rax
    515e:	48 8b 10             	mov    (%rax),%rdx
    5161:	48 8b 45 f8          	mov    -0x8(%rbp),%rax
    5165:	48 89 d6             	mov    %rdx,%rsi
    5168:	48 89 c7             	mov    %rax,%rdi
    516b:	e8 de 0e 00 00       	call   604e <_ZNKSt6vectorI23VkQueueFamilyPropertiesSaIS0_EE11_M_data_ptrIS0_EEPT_S5_>
    5170:	c9                   	leave
    5171:	c3                   	ret

0000000000005172 <_ZNSt12_Vector_baseI23VkQueueFamilyPropertiesSaIS0_EED1Ev>:
      ~_Vector_base() _GLIBCXX_NOEXCEPT
    5172:	55                   	push   %rbp
    5173:	48 89 e5             	mov    %rsp,%rbp
    5176:	48 83 ec 10          	sub    $0x10,%rsp
    517a:	48 89 7d f8          	mov    %rdi,-0x8(%rbp)
		      _M_impl._M_end_of_storage - _M_impl._M_start);
    517e:	48 8b 45 f8          	mov    -0x8(%rbp),%rax
    5182:	48 8b 50 10          	mov    0x10(%rax),%rdx
    5186:	48 8b 45 f8          	mov    -0x8(%rbp),%rax
    518a:	48 8b 00             	mov    (%rax),%rax
    518d:	48 29 c2             	sub    %rax,%rdx
    5190:	48 c1 fa 03          	sar    $0x3,%rdx
    5194:	48 b8 ab aa aa aa aa 	movabs $0xaaaaaaaaaaaaaaab,%rax
    519b:	aa aa aa 
    519e:	48 0f af c2          	imul   %rdx,%rax
	_M_deallocate(_M_impl._M_start,
    51a2:	48 89 c2             	mov    %rax,%rdx
    51a5:	48 8b 45 f8          	mov    -0x8(%rbp),%rax
    51a9:	48 8b 08             	mov    (%rax),%rcx
    51ac:	48 8b 45 f8          	mov    -0x8(%rbp),%rax
    51b0:	48 89 ce             	mov    %rcx,%rsi
    51b3:	48 89 c7             	mov    %rax,%rdi
    51b6:	e8 cb 0e 00 00       	call   6086 <_ZNSt12_Vector_baseI23VkQueueFamilyPropertiesSaIS0_EE13_M_deallocateEPS0_m>
      }
    51bb:	48 8b 45 f8          	mov    -0x8(%rbp),%rax
    51bf:	48 89 c7             	mov    %rax,%rdi
    51c2:	e8 53 f8 ff ff       	call   4a1a <_ZNSt12_Vector_baseI23VkQueueFamilyPropertiesSaIS0_EE12_Vector_implD1Ev>
    51c7:	90                   	nop
    51c8:	c9                   	leave
    51c9:	c3                   	ret

00000000000051ca <_ZNKSt6vectorI23VkQueueFamilyPropertiesSaIS0_EE4sizeEv>:
      size() const _GLIBCXX_NOEXCEPT
    51ca:	55                   	push   %rbp
    51cb:	48 89 e5             	mov    %rsp,%rbp
    51ce:	48 89 7d f8          	mov    %rdi,-0x8(%rbp)
      { return size_type(this->_M_impl._M_finish - this->_M_impl._M_start); }
    51d2:	48 8b 45 f8          	mov    -0x8(%rbp),%rax
    51d6:	48 8b 50 08          	mov    0x8(%rax),%rdx
    51da:	48 8b 45 f8          	mov    -0x8(%rbp),%rax
    51de:	48 8b 00             	mov    (%rax),%rax
    51e1:	48 29 c2             	sub    %rax,%rdx
    51e4:	48 c1 fa 03          	sar    $0x3,%rdx
    51e8:	48 b8 ab aa aa aa aa 	movabs $0xaaaaaaaaaaaaaaab,%rax
    51ef:	aa aa aa 
    51f2:	48 0f af c2          	imul   %rdx,%rax
    51f6:	5d                   	pop    %rbp
    51f7:	c3                   	ret

00000000000051f8 <_ZNSaISt8optionalI23VkQueueFamilyPropertiesEEC1Ev>:
      allocator() _GLIBCXX_NOTHROW { }
    51f8:	55                   	push   %rbp
    51f9:	48 89 e5             	mov    %rsp,%rbp
    51fc:	48 83 ec 10          	sub    $0x10,%rsp
    5200:	48 89 7d f8          	mov    %rdi,-0x8(%rbp)
    5204:	48 8b 45 f8          	mov    -0x8(%rbp),%rax
    5208:	48 89 c7             	mov    %rax,%rdi
    520b:	e8 ac 0e 00 00       	call   60bc <_ZNSt15__new_allocatorISt8optionalI23VkQueueFamilyPropertiesEEC1Ev>
    5210:	90                   	nop
    5211:	c9                   	leave
    5212:	c3                   	ret
    5213:	90                   	nop

0000000000005214 <_ZNSaISt8optionalI23VkQueueFamilyPropertiesEED1Ev>:
      ~allocator() _GLIBCXX_NOTHROW { }
    5214:	55                   	push   %rbp
    5215:	48 89 e5             	mov    %rsp,%rbp
    5218:	48 83 ec 10          	sub    $0x10,%rsp
    521c:	48 89 7d f8          	mov    %rdi,-0x8(%rbp)
    5220:	48 8b 45 f8          	mov    -0x8(%rbp),%rax
    5224:	48 89 c7             	mov    %rax,%rdi
    5227:	e8 9c 0e 00 00       	call   60c8 <_ZNSt15__new_allocatorISt8optionalI23VkQueueFamilyPropertiesEED1Ev>
    522c:	90                   	nop
    522d:	c9                   	leave
    522e:	c3                   	ret
    522f:	90                   	nop

0000000000005230 <_ZNSt6vectorISt8optionalI23VkQueueFamilyPropertiesESaIS2_EEC1EmRKS3_>:
      vector(size_type __n, const allocator_type& __a = allocator_type())
    5230:	55                   	push   %rbp
    5231:	48 89 e5             	mov    %rsp,%rbp
    5234:	53                   	push   %rbx
    5235:	48 83 ec 28          	sub    $0x28,%rsp
    5239:	48 89 7d e8          	mov    %rdi,-0x18(%rbp)
    523d:	48 89 75 e0          	mov    %rsi,-0x20(%rbp)
    5241:	48 89 55 d8          	mov    %rdx,-0x28(%rbp)
      : _Base(_S_check_init_len(__n, __a), __a)
    5245:	48 8b 5d e8          	mov    -0x18(%rbp),%rbx
    5249:	48 8b 55 d8          	mov    -0x28(%rbp),%rdx
    524d:	48 8b 45 e0          	mov    -0x20(%rbp),%rax
    5251:	48 89 d6             	mov    %rdx,%rsi
    5254:	48 89 c7             	mov    %rax,%rdi
    5257:	e8 77 0e 00 00       	call   60d3 <_ZNSt6vectorISt8optionalI23VkQueueFamilyPropertiesESaIS2_EE17_S_check_init_lenEmRKS3_>
    525c:	48 89 c1             	mov    %rax,%rcx
    525f:	48 8b 45 d8          	mov    -0x28(%rbp),%rax
    5263:	48 89 c2             	mov    %rax,%rdx
    5266:	48 89 ce             	mov    %rcx,%rsi
    5269:	48 89 df             	mov    %rbx,%rdi
    526c:	e8 c3 0e 00 00       	call   6134 <_ZNSt12_Vector_baseISt8optionalI23VkQueueFamilyPropertiesESaIS2_EEC1EmRKS3_>
      { _M_default_initialize(__n); }
    5271:	48 8b 55 e0          	mov    -0x20(%rbp),%rdx
    5275:	48 8b 45 e8          	mov    -0x18(%rbp),%rax
    5279:	48 89 d6             	mov    %rdx,%rsi
    527c:	48 89 c7             	mov    %rax,%rdi
    527f:	e8 0e 0f 00 00       	call   6192 <_ZNSt6vectorISt8optionalI23VkQueueFamilyPropertiesESaIS2_EE21_M_default_initializeEm>
    5284:	eb 1a                	jmp    52a0 <_ZNSt6vectorISt8optionalI23VkQueueFamilyPropertiesESaIS2_EEC1EmRKS3_+0x70>
    5286:	48 89 c3             	mov    %rax,%rbx
    5289:	48 8b 45 e8          	mov    -0x18(%rbp),%rax
    528d:	48 89 c7             	mov    %rax,%rdi
    5290:	e8 bb 01 00 00       	call   5450 <_ZNSt12_Vector_baseISt8optionalI23VkQueueFamilyPropertiesESaIS2_EED1Ev>
    5295:	48 89 d8             	mov    %rbx,%rax
    5298:	48 89 c7             	mov    %rax,%rdi
    529b:	e8 d0 e1 ff ff       	call   3470 <_Unwind_Resume@plt>
    52a0:	48 8b 5d f8          	mov    -0x8(%rbp),%rbx
    52a4:	c9                   	leave
    52a5:	c3                   	ret

00000000000052a6 <_ZNSt6vectorISt8optionalI23VkQueueFamilyPropertiesESaIS2_EED1Ev>:
      ~vector() _GLIBCXX_NOEXCEPT
    52a6:	55                   	push   %rbp
    52a7:	48 89 e5             	mov    %rsp,%rbp
    52aa:	48 83 ec 10          	sub    $0x10,%rsp
    52ae:	48 89 7d f8          	mov    %rdi,-0x8(%rbp)
		      _M_get_Tp_allocator());
    52b2:	48 8b 45 f8          	mov    -0x8(%rbp),%rax
    52b6:	48 89 c7             	mov    %rax,%rdi
    52b9:	e8 14 0f 00 00       	call   61d2 <_ZNSt12_Vector_baseISt8optionalI23VkQueueFamilyPropertiesESaIS2_EE19_M_get_Tp_allocatorEv>
    52be:	48 89 c2             	mov    %rax,%rdx
	std::_Destroy(this->_M_impl._M_start, this->_M_impl._M_finish,
    52c1:	48 8b 45 f8          	mov    -0x8(%rbp),%rax
    52c5:	48 8b 48 08          	mov    0x8(%rax),%rcx
    52c9:	48 8b 45 f8          	mov    -0x8(%rbp),%rax
    52cd:	48 8b 00             	mov    (%rax),%rax
    52d0:	48 89 ce             	mov    %rcx,%rsi
    52d3:	48 89 c7             	mov    %rax,%rdi
    52d6:	e8 05 0f 00 00       	call   61e0 <_ZSt8_DestroyIPSt8optionalI23VkQueueFamilyPropertiesES2_EvT_S4_RSaIT0_E>
      }
    52db:	48 8b 45 f8          	mov    -0x8(%rbp),%rax
    52df:	48 89 c7             	mov    %rax,%rdi
    52e2:	e8 69 01 00 00       	call   5450 <_ZNSt12_Vector_baseISt8optionalI23VkQueueFamilyPropertiesESaIS2_EED1Ev>
    52e7:	90                   	nop
    52e8:	c9                   	leave
    52e9:	c3                   	ret

00000000000052ea <_ZNSt6vectorI23VkQueueFamilyPropertiesSaIS0_EE5beginEv>:
      begin() _GLIBCXX_NOEXCEPT
    52ea:	55                   	push   %rbp
    52eb:	48 89 e5             	mov    %rsp,%rbp
    52ee:	48 83 ec 20          	sub    $0x20,%rsp
    52f2:	48 89 7d e8          	mov    %rdi,-0x18(%rbp)
      { return iterator(this->_M_impl._M_start); }
    52f6:	48 8b 55 e8          	mov    -0x18(%rbp),%rdx
    52fa:	48 8d 45 f8          	lea    -0x8(%rbp),%rax
    52fe:	48 89 d6             	mov    %rdx,%rsi
    5301:	48 89 c7             	mov    %rax,%rdi
    5304:	e8 01 0f 00 00       	call   620a <_ZN9__gnu_cxx17__normal_iteratorIP23VkQueueFamilyPropertiesSt6vectorIS1_SaIS1_EEEC1ERKS2_>
    5309:	48 8b 45 f8          	mov    -0x8(%rbp),%rax
    530d:	c9                   	leave
    530e:	c3                   	ret
    530f:	90                   	nop

0000000000005310 <_ZNSt6vectorI23VkQueueFamilyPropertiesSaIS0_EE3endEv>:
      end() _GLIBCXX_NOEXCEPT
    5310:	55                   	push   %rbp
    5311:	48 89 e5             	mov    %rsp,%rbp
    5314:	48 83 ec 20          	sub    $0x20,%rsp
    5318:	48 89 7d e8          	mov    %rdi,-0x18(%rbp)
      { return iterator(this->_M_impl._M_finish); }
    531c:	48 8b 45 e8          	mov    -0x18(%rbp),%rax
    5320:	48 8d 50 08          	lea    0x8(%rax),%rdx
    5324:	48 8d 45 f8          	lea    -0x8(%rbp),%rax
    5328:	48 89 d6             	mov    %rdx,%rsi
    532b:	48 89 c7             	mov    %rax,%rdi
    532e:	e8 d7 0e 00 00       	call   620a <_ZN9__gnu_cxx17__normal_iteratorIP23VkQueueFamilyPropertiesSt6vectorIS1_SaIS1_EEEC1ERKS2_>
    5333:	48 8b 45 f8          	mov    -0x8(%rbp),%rax
    5337:	c9                   	leave
    5338:	c3                   	ret

0000000000005339 <_ZN9__gnu_cxxneIP23VkQueueFamilyPropertiesSt6vectorIS1_SaIS1_EEEEbRKNS_17__normal_iteratorIT_T0_EESB_>:
    { return __lhs.base() != __rhs.base(); }

  template<typename _Iterator, typename _Container>
    _GLIBCXX_NODISCARD _GLIBCXX20_CONSTEXPR
    inline bool
    operator!=(const __normal_iterator<_Iterator, _Container>& __lhs,
    5339:	55                   	push   %rbp
    533a:	48 89 e5             	mov    %rsp,%rbp
    533d:	53                   	push   %rbx
    533e:	48 83 ec 18          	sub    $0x18,%rsp
    5342:	48 89 7d e8          	mov    %rdi,-0x18(%rbp)
    5346:	48 89 75 e0          	mov    %rsi,-0x20(%rbp)
	       const __normal_iterator<_Iterator, _Container>& __rhs)
    _GLIBCXX_NOEXCEPT
    { return __lhs.base() != __rhs.base(); }
    534a:	48 8b 45 e8          	mov    -0x18(%rbp),%rax
    534e:	48 89 c7             	mov    %rax,%rdi
    5351:	e8 d2 0e 00 00       	call   6228 <_ZNK9__gnu_cxx17__normal_iteratorIP23VkQueueFamilyPropertiesSt6vectorIS1_SaIS1_EEE4baseEv>
    5356:	48 8b 18             	mov    (%rax),%rbx
    5359:	48 8b 45 e0          	mov    -0x20(%rbp),%rax
    535d:	48 89 c7             	mov    %rax,%rdi
    5360:	e8 c3 0e 00 00       	call   6228 <_ZNK9__gnu_cxx17__normal_iteratorIP23VkQueueFamilyPropertiesSt6vectorIS1_SaIS1_EEE4baseEv>
    5365:	48 8b 00             	mov    (%rax),%rax
    5368:	48 39 c3             	cmp    %rax,%rbx
    536b:	0f 95 c0             	setne  %al
    536e:	48 8b 5d f8          	mov    -0x8(%rbp),%rbx
    5372:	c9                   	leave
    5373:	c3                   	ret

0000000000005374 <_ZN9__gnu_cxx17__normal_iteratorIP23VkQueueFamilyPropertiesSt6vectorIS1_SaIS1_EEEppEv>:
      operator++() _GLIBCXX_NOEXCEPT
    5374:	55                   	push   %rbp
    5375:	48 89 e5             	mov    %rsp,%rbp
    5378:	48 89 7d f8          	mov    %rdi,-0x8(%rbp)
	++_M_current;
    537c:	48 8b 45 f8          	mov    -0x8(%rbp),%rax
    5380:	48 8b 00             	mov    (%rax),%rax
    5383:	48 8d 50 18          	lea    0x18(%rax),%rdx
    5387:	48 8b 45 f8          	mov    -0x8(%rbp),%rax
    538b:	48 89 10             	mov    %rdx,(%rax)
	return *this;
    538e:	48 8b 45 f8          	mov    -0x8(%rbp),%rax
      }
    5392:	5d                   	pop    %rbp
    5393:	c3                   	ret

0000000000005394 <_ZNK9__gnu_cxx17__normal_iteratorIP23VkQueueFamilyPropertiesSt6vectorIS1_SaIS1_EEEdeEv>:
      operator*() const _GLIBCXX_NOEXCEPT
    5394:	55                   	push   %rbp
    5395:	48 89 e5             	mov    %rsp,%rbp
    5398:	48 89 7d f8          	mov    %rdi,-0x8(%rbp)
      { return *_M_current; }
    539c:	48 8b 45 f8          	mov    -0x8(%rbp),%rax
    53a0:	48 8b 00             	mov    (%rax),%rax
    53a3:	5d                   	pop    %rbp
    53a4:	c3                   	ret
    53a5:	90                   	nop

00000000000053a6 <_ZNSt6vectorISt8optionalI23VkQueueFamilyPropertiesESaIS2_EEixEm>:
      operator[](size_type __n) _GLIBCXX_NOEXCEPT
    53a6:	55                   	push   %rbp
    53a7:	48 89 e5             	mov    %rsp,%rbp
    53aa:	48 89 7d f8          	mov    %rdi,-0x8(%rbp)
    53ae:	48 89 75 f0          	mov    %rsi,-0x10(%rbp)
	return *(this->_M_impl._M_start + __n);
    53b2:	48 8b 45 f8          	mov    -0x8(%rbp),%rax
    53b6:	48 8b 08             	mov    (%rax),%rcx
    53b9:	48 8b 55 f0          	mov    -0x10(%rbp),%rdx
    53bd:	48 89 d0             	mov    %rdx,%rax
    53c0:	48 c1 e0 03          	shl    $0x3,%rax
    53c4:	48 29 d0             	sub    %rdx,%rax
    53c7:	48 c1 e0 02          	shl    $0x2,%rax
    53cb:	48 01 c8             	add    %rcx,%rax
      }
    53ce:	5d                   	pop    %rbp
    53cf:	c3                   	ret

00000000000053d0 <_ZNSt8optionalI23VkQueueFamilyPropertiesEaSIRKS0_EENSt9enable_ifIX7__and_vISt6__not_ISt7is_sameIS1_NSt9remove_cvINSt16remove_referenceIT_E4typeEE4typeEEES6_ISt6__and_IJSt9is_scalarIS0_ES7_IS0_NSt5decayISA_E4typeEEEEESt16is_constructibleIS0_JSA_EESt13is_assignableIRS0_SA_EEERS1_E4typeEOSA_>:
			    __not_<__and_<is_scalar<_Tp>,
					  is_same<_Tp, decay_t<_Up>>>>,
			    is_constructible<_Tp, _Up>,
			    is_assignable<_Tp&, _Up>>,
		    optional&>
	operator=(_Up&& __u)
    53d0:	55                   	push   %rbp
    53d1:	48 89 e5             	mov    %rsp,%rbp
    53d4:	53                   	push   %rbx
    53d5:	48 83 ec 18          	sub    $0x18,%rsp
    53d9:	48 89 7d e8          	mov    %rdi,-0x18(%rbp)
    53dd:	48 89 75 e0          	mov    %rsi,-0x20(%rbp)
	noexcept(__and_v<is_nothrow_constructible<_Tp, _Up>,
			 is_nothrow_assignable<_Tp&, _Up>>)
	{
	  if (this->_M_is_engaged())
    53e1:	48 8b 45 e8          	mov    -0x18(%rbp),%rax
    53e5:	48 89 c7             	mov    %rax,%rdi
    53e8:	e8 49 0e 00 00       	call   6236 <_ZNKSt19_Optional_base_implI23VkQueueFamilyPropertiesSt14_Optional_baseIS0_Lb1ELb1EEE13_M_is_engagedEv>
    53ed:	84 c0                	test   %al,%al
    53ef:	74 36                	je     5427 <_ZNSt8optionalI23VkQueueFamilyPropertiesEaSIRKS0_EENSt9enable_ifIX7__and_vISt6__not_ISt7is_sameIS1_NSt9remove_cvINSt16remove_referenceIT_E4typeEE4typeEEES6_ISt6__and_IJSt9is_scalarIS0_ES7_IS0_NSt5decayISA_E4typeEEEEESt16is_constructibleIS0_JSA_EESt13is_assignableIRS0_SA_EEERS1_E4typeEOSA_+0x57>
	    this->_M_get() = std::forward<_Up>(__u);
    53f1:	48 8b 45 e0          	mov    -0x20(%rbp),%rax
    53f5:	48 89 c7             	mov    %rax,%rdi
    53f8:	e8 8f 0e 00 00       	call   628c <_ZSt7forwardIRK23VkQueueFamilyPropertiesEOT_RNSt16remove_referenceIS3_E4typeE>
    53fd:	48 89 c3             	mov    %rax,%rbx
    5400:	48 8b 45 e8          	mov    -0x18(%rbp),%rax
    5404:	48 89 c7             	mov    %rax,%rdi
    5407:	e8 3c 0e 00 00       	call   6248 <_ZNSt19_Optional_base_implI23VkQueueFamilyPropertiesSt14_Optional_baseIS0_Lb1ELb1EEE6_M_getEv>
    540c:	48 89 c1             	mov    %rax,%rcx
    540f:	48 8b 03             	mov    (%rbx),%rax
    5412:	48 8b 53 08          	mov    0x8(%rbx),%rdx
    5416:	48 89 01             	mov    %rax,(%rcx)
    5419:	48 89 51 08          	mov    %rdx,0x8(%rcx)
    541d:	48 8b 43 10          	mov    0x10(%rbx),%rax
    5421:	48 89 41 10          	mov    %rax,0x10(%rcx)
    5425:	eb 1e                	jmp    5445 <_ZNSt8optionalI23VkQueueFamilyPropertiesEaSIRKS0_EENSt9enable_ifIX7__and_vISt6__not_ISt7is_sameIS1_NSt9remove_cvINSt16remove_referenceIT_E4typeEE4typeEEES6_ISt6__and_IJSt9is_scalarIS0_ES7_IS0_NSt5decayISA_E4typeEEEEESt16is_constructibleIS0_JSA_EESt13is_assignableIRS0_SA_EEERS1_E4typeEOSA_+0x75>
	  else
	    this->_M_construct(std::forward<_Up>(__u));
    5427:	48 8b 45 e0          	mov    -0x20(%rbp),%rax
    542b:	48 89 c7             	mov    %rax,%rdi
    542e:	e8 59 0e 00 00       	call   628c <_ZSt7forwardIRK23VkQueueFamilyPropertiesEOT_RNSt16remove_referenceIS3_E4typeE>
    5433:	48 89 c2             	mov    %rax,%rdx
    5436:	48 8b 45 e8          	mov    -0x18(%rbp),%rax
    543a:	48 89 d6             	mov    %rdx,%rsi
    543d:	48 89 c7             	mov    %rax,%rdi
    5440:	e8 55 0e 00 00       	call   629a <_ZNSt19_Optional_base_implI23VkQueueFamilyPropertiesSt14_Optional_baseIS0_Lb1ELb1EEE12_M_constructIJRKS0_EEEvDpOT_>

	  return *this;
    5445:	48 8b 45 e8          	mov    -0x18(%rbp),%rax
	}
    5449:	48 8b 5d f8          	mov    -0x8(%rbp),%rbx
    544d:	c9                   	leave
    544e:	c3                   	ret
    544f:	90                   	nop

0000000000005450 <_ZNSt12_Vector_baseISt8optionalI23VkQueueFamilyPropertiesESaIS2_EED1Ev>:
      ~_Vector_base() _GLIBCXX_NOEXCEPT
    5450:	55                   	push   %rbp
    5451:	48 89 e5             	mov    %rsp,%rbp
    5454:	48 83 ec 10          	sub    $0x10,%rsp
    5458:	48 89 7d f8          	mov    %rdi,-0x8(%rbp)
		      _M_impl._M_end_of_storage - _M_impl._M_start);
    545c:	48 8b 45 f8          	mov    -0x8(%rbp),%rax
    5460:	48 8b 50 10          	mov    0x10(%rax),%rdx
    5464:	48 8b 45 f8          	mov    -0x8(%rbp),%rax
    5468:	48 8b 00             	mov    (%rax),%rax
    546b:	48 29 c2             	sub    %rax,%rdx
    546e:	48 c1 fa 02          	sar    $0x2,%rdx
    5472:	48 b8 b7 6d db b6 6d 	movabs $0x6db6db6db6db6db7,%rax
    5479:	db b6 6d 
    547c:	48 0f af c2          	imul   %rdx,%rax
	_M_deallocate(_M_impl._M_start,
    5480:	48 89 c2             	mov    %rax,%rdx
    5483:	48 8b 45 f8          	mov    -0x8(%rbp),%rax
    5487:	48 8b 08             	mov    (%rax),%rcx
    548a:	48 8b 45 f8          	mov    -0x8(%rbp),%rax
    548e:	48 89 ce             	mov    %rcx,%rsi
    5491:	48 89 c7             	mov    %rax,%rdi
    5494:	e8 5b 0e 00 00       	call   62f4 <_ZNSt12_Vector_baseISt8optionalI23VkQueueFamilyPropertiesESaIS2_EE13_M_deallocateEPS2_m>
      }
    5499:	48 8b 45 f8          	mov    -0x8(%rbp),%rax
    549d:	48 89 c7             	mov    %rax,%rdi
    54a0:	e8 91 f5 ff ff       	call   4a36 <_ZNSt12_Vector_baseISt8optionalI23VkQueueFamilyPropertiesESaIS2_EE12_Vector_implD1Ev>
    54a5:	90                   	nop
    54a6:	c9                   	leave
    54a7:	c3                   	ret

00000000000054a8 <_ZNSaI18VkSurfaceFormatKHREC1Ev>:
      allocator() _GLIBCXX_NOTHROW { }
    54a8:	55                   	push   %rbp
    54a9:	48 89 e5             	mov    %rsp,%rbp
    54ac:	48 83 ec 10          	sub    $0x10,%rsp
    54b0:	48 89 7d f8          	mov    %rdi,-0x8(%rbp)
    54b4:	48 8b 45 f8          	mov    -0x8(%rbp),%rax
    54b8:	48 89 c7             	mov    %rax,%rdi
    54bb:	e8 6a 0e 00 00       	call   632a <_ZNSt15__new_allocatorI18VkSurfaceFormatKHREC1Ev>
    54c0:	90                   	nop
    54c1:	c9                   	leave
    54c2:	c3                   	ret
    54c3:	90                   	nop

00000000000054c4 <_ZNSaI18VkSurfaceFormatKHRED1Ev>:
      ~allocator() _GLIBCXX_NOTHROW { }
    54c4:	55                   	push   %rbp
    54c5:	48 89 e5             	mov    %rsp,%rbp
    54c8:	48 83 ec 10          	sub    $0x10,%rsp
    54cc:	48 89 7d f8          	mov    %rdi,-0x8(%rbp)
    54d0:	48 8b 45 f8          	mov    -0x8(%rbp),%rax
    54d4:	48 89 c7             	mov    %rax,%rdi
    54d7:	e8 5a 0e 00 00       	call   6336 <_ZNSt15__new_allocatorI18VkSurfaceFormatKHRED1Ev>
    54dc:	90                   	nop
    54dd:	c9                   	leave
    54de:	c3                   	ret
    54df:	90                   	nop

00000000000054e0 <_ZNSt6vectorI18VkSurfaceFormatKHRSaIS0_EEC1EmRKS1_>:
      vector(size_type __n, const allocator_type& __a = allocator_type())
    54e0:	55                   	push   %rbp
    54e1:	48 89 e5             	mov    %rsp,%rbp
    54e4:	53                   	push   %rbx
    54e5:	48 83 ec 28          	sub    $0x28,%rsp
    54e9:	48 89 7d e8          	mov    %rdi,-0x18(%rbp)
    54ed:	48 89 75 e0          	mov    %rsi,-0x20(%rbp)
    54f1:	48 89 55 d8          	mov    %rdx,-0x28(%rbp)
      : _Base(_S_check_init_len(__n, __a), __a)
    54f5:	48 8b 5d e8          	mov    -0x18(%rbp),%rbx
    54f9:	48 8b 55 d8          	mov    -0x28(%rbp),%rdx
    54fd:	48 8b 45 e0          	mov    -0x20(%rbp),%rax
    5501:	48 89 d6             	mov    %rdx,%rsi
    5504:	48 89 c7             	mov    %rax,%rdi
    5507:	e8 35 0e 00 00       	call   6341 <_ZNSt6vectorI18VkSurfaceFormatKHRSaIS0_EE17_S_check_init_lenEmRKS1_>
    550c:	48 89 c1             	mov    %rax,%rcx
    550f:	48 8b 45 d8          	mov    -0x28(%rbp),%rax
    5513:	48 89 c2             	mov    %rax,%rdx
    5516:	48 89 ce             	mov    %rcx,%rsi
    5519:	48 89 df             	mov    %rbx,%rdi
    551c:	e8 81 0e 00 00       	call   63a2 <_ZNSt12_Vector_baseI18VkSurfaceFormatKHRSaIS0_EEC1EmRKS1_>
      { _M_default_initialize(__n); }
    5521:	48 8b 55 e0          	mov    -0x20(%rbp),%rdx
    5525:	48 8b 45 e8          	mov    -0x18(%rbp),%rax
    5529:	48 89 d6             	mov    %rdx,%rsi
    552c:	48 89 c7             	mov    %rax,%rdi
    552f:	e8 cc 0e 00 00       	call   6400 <_ZNSt6vectorI18VkSurfaceFormatKHRSaIS0_EE21_M_default_initializeEm>
    5534:	eb 1a                	jmp    5550 <_ZNSt6vectorI18VkSurfaceFormatKHRSaIS0_EEC1EmRKS1_+0x70>
    5536:	48 89 c3             	mov    %rax,%rbx
    5539:	48 8b 45 e8          	mov    -0x18(%rbp),%rax
    553d:	48 89 c7             	mov    %rax,%rdi
    5540:	e8 79 00 00 00       	call   55be <_ZNSt12_Vector_baseI18VkSurfaceFormatKHRSaIS0_EED1Ev>
    5545:	48 89 d8             	mov    %rbx,%rax
    5548:	48 89 c7             	mov    %rax,%rdi
    554b:	e8 20 df ff ff       	call   3470 <_Unwind_Resume@plt>
    5550:	48 8b 5d f8          	mov    -0x8(%rbp),%rbx
    5554:	c9                   	leave
    5555:	c3                   	ret

0000000000005556 <_ZNSt6vectorI18VkSurfaceFormatKHRSaIS0_EED1Ev>:
      ~vector() _GLIBCXX_NOEXCEPT
    5556:	55                   	push   %rbp
    5557:	48 89 e5             	mov    %rsp,%rbp
    555a:	48 83 ec 10          	sub    $0x10,%rsp
    555e:	48 89 7d f8          	mov    %rdi,-0x8(%rbp)
		      _M_get_Tp_allocator());
    5562:	48 8b 45 f8          	mov    -0x8(%rbp),%rax
    5566:	48 89 c7             	mov    %rax,%rdi
    5569:	e8 d2 0e 00 00       	call   6440 <_ZNSt12_Vector_baseI18VkSurfaceFormatKHRSaIS0_EE19_M_get_Tp_allocatorEv>
    556e:	48 89 c2             	mov    %rax,%rdx
	std::_Destroy(this->_M_impl._M_start, this->_M_impl._M_finish,
    5571:	48 8b 45 f8          	mov    -0x8(%rbp),%rax
    5575:	48 8b 48 08          	mov    0x8(%rax),%rcx
    5579:	48 8b 45 f8          	mov    -0x8(%rbp),%rax
    557d:	48 8b 00             	mov    (%rax),%rax
    5580:	48 89 ce             	mov    %rcx,%rsi
    5583:	48 89 c7             	mov    %rax,%rdi
    5586:	e8 c3 0e 00 00       	call   644e <_ZSt8_DestroyIP18VkSurfaceFormatKHRS0_EvT_S2_RSaIT0_E>
      }
    558b:	48 8b 45 f8          	mov    -0x8(%rbp),%rax
    558f:	48 89 c7             	mov    %rax,%rdi
    5592:	e8 27 00 00 00       	call   55be <_ZNSt12_Vector_baseI18VkSurfaceFormatKHRSaIS0_EED1Ev>
    5597:	90                   	nop
    5598:	c9                   	leave
    5599:	c3                   	ret

000000000000559a <_ZNSt6vectorI18VkSurfaceFormatKHRSaIS0_EE4dataEv>:
      data() _GLIBCXX_NOEXCEPT
    559a:	55                   	push   %rbp
    559b:	48 89 e5             	mov    %rsp,%rbp
    559e:	48 83 ec 10          	sub    $0x10,%rsp
    55a2:	48 89 7d f8          	mov    %rdi,-0x8(%rbp)
      { return _M_data_ptr(this->_M_impl._M_start); }
    55a6:	48 8b 45 f8          	mov    -0x8(%rbp),%rax
    55aa:	48 8b 10             	mov    (%rax),%rdx
    55ad:	48 8b 45 f8          	mov    -0x8(%rbp),%rax
    55b1:	48 89 d6             	mov    %rdx,%rsi
    55b4:	48 89 c7             	mov    %rax,%rdi
    55b7:	e8 bc 0e 00 00       	call   6478 <_ZNKSt6vectorI18VkSurfaceFormatKHRSaIS0_EE11_M_data_ptrIS0_EEPT_S5_>
    55bc:	c9                   	leave
    55bd:	c3                   	ret

00000000000055be <_ZNSt12_Vector_baseI18VkSurfaceFormatKHRSaIS0_EED1Ev>:
      ~_Vector_base() _GLIBCXX_NOEXCEPT
    55be:	55                   	push   %rbp
    55bf:	48 89 e5             	mov    %rsp,%rbp
    55c2:	48 83 ec 10          	sub    $0x10,%rsp
    55c6:	48 89 7d f8          	mov    %rdi,-0x8(%rbp)
		      _M_impl._M_end_of_storage - _M_impl._M_start);
    55ca:	48 8b 45 f8          	mov    -0x8(%rbp),%rax
    55ce:	48 8b 50 10          	mov    0x10(%rax),%rdx
    55d2:	48 8b 45 f8          	mov    -0x8(%rbp),%rax
    55d6:	48 8b 00             	mov    (%rax),%rax
    55d9:	48 29 c2             	sub    %rax,%rdx
    55dc:	48 89 d0             	mov    %rdx,%rax
    55df:	48 c1 f8 03          	sar    $0x3,%rax
	_M_deallocate(_M_impl._M_start,
    55e3:	48 89 c2             	mov    %rax,%rdx
    55e6:	48 8b 45 f8          	mov    -0x8(%rbp),%rax
    55ea:	48 8b 08             	mov    (%rax),%rcx
    55ed:	48 8b 45 f8          	mov    -0x8(%rbp),%rax
    55f1:	48 89 ce             	mov    %rcx,%rsi
    55f4:	48 89 c7             	mov    %rax,%rdi
    55f7:	e8 b4 0e 00 00       	call   64b0 <_ZNSt12_Vector_baseI18VkSurfaceFormatKHRSaIS0_EE13_M_deallocateEPS0_m>
      }
    55fc:	48 8b 45 f8          	mov    -0x8(%rbp),%rax
    5600:	48 89 c7             	mov    %rax,%rdi
    5603:	e8 4a f4 ff ff       	call   4a52 <_ZNSt12_Vector_baseI18VkSurfaceFormatKHRSaIS0_EE12_Vector_implD1Ev>
    5608:	90                   	nop
    5609:	c9                   	leave
    560a:	c3                   	ret
    560b:	90                   	nop

000000000000560c <_ZNSaI16VkPresentModeKHREC1Ev>:
      allocator() _GLIBCXX_NOTHROW { }
    560c:	55                   	push   %rbp
    560d:	48 89 e5             	mov    %rsp,%rbp
    5610:	48 83 ec 10          	sub    $0x10,%rsp
    5614:	48 89 7d f8          	mov    %rdi,-0x8(%rbp)
    5618:	48 8b 45 f8          	mov    -0x8(%rbp),%rax
    561c:	48 89 c7             	mov    %rax,%rdi
    561f:	e8 c2 0e 00 00       	call   64e6 <_ZNSt15__new_allocatorI16VkPresentModeKHREC1Ev>
    5624:	90                   	nop
    5625:	c9                   	leave
    5626:	c3                   	ret
    5627:	90                   	nop

0000000000005628 <_ZNSaI16VkPresentModeKHRED1Ev>:
      ~allocator() _GLIBCXX_NOTHROW { }
    5628:	55                   	push   %rbp
    5629:	48 89 e5             	mov    %rsp,%rbp
    562c:	48 83 ec 10          	sub    $0x10,%rsp
    5630:	48 89 7d f8          	mov    %rdi,-0x8(%rbp)
    5634:	48 8b 45 f8          	mov    -0x8(%rbp),%rax
    5638:	48 89 c7             	mov    %rax,%rdi
    563b:	e8 b2 0e 00 00       	call   64f2 <_ZNSt15__new_allocatorI16VkPresentModeKHRED1Ev>
    5640:	90                   	nop
    5641:	c9                   	leave
    5642:	c3                   	ret
    5643:	90                   	nop

0000000000005644 <_ZNSt6vectorI16VkPresentModeKHRSaIS0_EEC1EmRKS1_>:
      vector(size_type __n, const allocator_type& __a = allocator_type())
    5644:	55                   	push   %rbp
    5645:	48 89 e5             	mov    %rsp,%rbp
    5648:	53                   	push   %rbx
    5649:	48 83 ec 28          	sub    $0x28,%rsp
    564d:	48 89 7d e8          	mov    %rdi,-0x18(%rbp)
    5651:	48 89 75 e0          	mov    %rsi,-0x20(%rbp)
    5655:	48 89 55 d8          	mov    %rdx,-0x28(%rbp)
      : _Base(_S_check_init_len(__n, __a), __a)
    5659:	48 8b 5d e8          	mov    -0x18(%rbp),%rbx
    565d:	48 8b 55 d8          	mov    -0x28(%rbp),%rdx
    5661:	48 8b 45 e0          	mov    -0x20(%rbp),%rax
    5665:	48 89 d6             	mov    %rdx,%rsi
    5668:	48 89 c7             	mov    %rax,%rdi
    566b:	e8 8d 0e 00 00       	call   64fd <_ZNSt6vectorI16VkPresentModeKHRSaIS0_EE17_S_check_init_lenEmRKS1_>
    5670:	48 89 c1             	mov    %rax,%rcx
    5673:	48 8b 45 d8          	mov    -0x28(%rbp),%rax
    5677:	48 89 c2             	mov    %rax,%rdx
    567a:	48 89 ce             	mov    %rcx,%rsi
    567d:	48 89 df             	mov    %rbx,%rdi
    5680:	e8 d9 0e 00 00       	call   655e <_ZNSt12_Vector_baseI16VkPresentModeKHRSaIS0_EEC1EmRKS1_>
      { _M_default_initialize(__n); }
    5685:	48 8b 55 e0          	mov    -0x20(%rbp),%rdx
    5689:	48 8b 45 e8          	mov    -0x18(%rbp),%rax
    568d:	48 89 d6             	mov    %rdx,%rsi
    5690:	48 89 c7             	mov    %rax,%rdi
    5693:	e8 24 0f 00 00       	call   65bc <_ZNSt6vectorI16VkPresentModeKHRSaIS0_EE21_M_default_initializeEm>
    5698:	eb 1a                	jmp    56b4 <_ZNSt6vectorI16VkPresentModeKHRSaIS0_EEC1EmRKS1_+0x70>
    569a:	48 89 c3             	mov    %rax,%rbx
    569d:	48 8b 45 e8          	mov    -0x18(%rbp),%rax
    56a1:	48 89 c7             	mov    %rax,%rdi
    56a4:	e8 79 00 00 00       	call   5722 <_ZNSt12_Vector_baseI16VkPresentModeKHRSaIS0_EED1Ev>
    56a9:	48 89 d8             	mov    %rbx,%rax
    56ac:	48 89 c7             	mov    %rax,%rdi
    56af:	e8 bc dd ff ff       	call   3470 <_Unwind_Resume@plt>
    56b4:	48 8b 5d f8          	mov    -0x8(%rbp),%rbx
    56b8:	c9                   	leave
    56b9:	c3                   	ret

00000000000056ba <_ZNSt6vectorI16VkPresentModeKHRSaIS0_EED1Ev>:
      ~vector() _GLIBCXX_NOEXCEPT
    56ba:	55                   	push   %rbp
    56bb:	48 89 e5             	mov    %rsp,%rbp
    56be:	48 83 ec 10          	sub    $0x10,%rsp
    56c2:	48 89 7d f8          	mov    %rdi,-0x8(%rbp)
		      _M_get_Tp_allocator());
    56c6:	48 8b 45 f8          	mov    -0x8(%rbp),%rax
    56ca:	48 89 c7             	mov    %rax,%rdi
    56cd:	e8 2a 0f 00 00       	call   65fc <_ZNSt12_Vector_baseI16VkPresentModeKHRSaIS0_EE19_M_get_Tp_allocatorEv>
    56d2:	48 89 c2             	mov    %rax,%rdx
	std::_Destroy(this->_M_impl._M_start, this->_M_impl._M_finish,
    56d5:	48 8b 45 f8          	mov    -0x8(%rbp),%rax
    56d9:	48 8b 48 08          	mov    0x8(%rax),%rcx
    56dd:	48 8b 45 f8          	mov    -0x8(%rbp),%rax
    56e1:	48 8b 00             	mov    (%rax),%rax
    56e4:	48 89 ce             	mov    %rcx,%rsi
    56e7:	48 89 c7             	mov    %rax,%rdi
    56ea:	e8 1b 0f 00 00       	call   660a <_ZSt8_DestroyIP16VkPresentModeKHRS0_EvT_S2_RSaIT0_E>
      }
    56ef:	48 8b 45 f8          	mov    -0x8(%rbp),%rax
    56f3:	48 89 c7             	mov    %rax,%rdi
    56f6:	e8 27 00 00 00       	call   5722 <_ZNSt12_Vector_baseI16VkPresentModeKHRSaIS0_EED1Ev>
    56fb:	90                   	nop
    56fc:	c9                   	leave
    56fd:	c3                   	ret

00000000000056fe <_ZNSt6vectorI16VkPresentModeKHRSaIS0_EE4dataEv>:
      data() _GLIBCXX_NOEXCEPT
    56fe:	55                   	push   %rbp
    56ff:	48 89 e5             	mov    %rsp,%rbp
    5702:	48 83 ec 10          	sub    $0x10,%rsp
    5706:	48 89 7d f8          	mov    %rdi,-0x8(%rbp)
      { return _M_data_ptr(this->_M_impl._M_start); }
    570a:	48 8b 45 f8          	mov    -0x8(%rbp),%rax
    570e:	48 8b 10             	mov    (%rax),%rdx
    5711:	48 8b 45 f8          	mov    -0x8(%rbp),%rax
    5715:	48 89 d6             	mov    %rdx,%rsi
    5718:	48 89 c7             	mov    %rax,%rdi
    571b:	e8 14 0f 00 00       	call   6634 <_ZNKSt6vectorI16VkPresentModeKHRSaIS0_EE11_M_data_ptrIS0_EEPT_S5_>
    5720:	c9                   	leave
    5721:	c3                   	ret

0000000000005722 <_ZNSt12_Vector_baseI16VkPresentModeKHRSaIS0_EED1Ev>:
      ~_Vector_base() _GLIBCXX_NOEXCEPT
    5722:	55                   	push   %rbp
    5723:	48 89 e5             	mov    %rsp,%rbp
    5726:	48 83 ec 10          	sub    $0x10,%rsp
    572a:	48 89 7d f8          	mov    %rdi,-0x8(%rbp)
		      _M_impl._M_end_of_storage - _M_impl._M_start);
    572e:	48 8b 45 f8          	mov    -0x8(%rbp),%rax
    5732:	48 8b 50 10          	mov    0x10(%rax),%rdx
    5736:	48 8b 45 f8          	mov    -0x8(%rbp),%rax
    573a:	48 8b 00             	mov    (%rax),%rax
    573d:	48 29 c2             	sub    %rax,%rdx
    5740:	48 89 d0             	mov    %rdx,%rax
    5743:	48 c1 f8 02          	sar    $0x2,%rax
	_M_deallocate(_M_impl._M_start,
    5747:	48 89 c2             	mov    %rax,%rdx
    574a:	48 8b 45 f8          	mov    -0x8(%rbp),%rax
    574e:	48 8b 08             	mov    (%rax),%rcx
    5751:	48 8b 45 f8          	mov    -0x8(%rbp),%rax
    5755:	48 89 ce             	mov    %rcx,%rsi
    5758:	48 89 c7             	mov    %rax,%rdi
    575b:	e8 0c 0f 00 00       	call   666c <_ZNSt12_Vector_baseI16VkPresentModeKHRSaIS0_EE13_M_deallocateEPS0_m>
      }
    5760:	48 8b 45 f8          	mov    -0x8(%rbp),%rax
    5764:	48 89 c7             	mov    %rax,%rdi
    5767:	e8 02 f3 ff ff       	call   4a6e <_ZNSt12_Vector_baseI16VkPresentModeKHRSaIS0_EE12_Vector_implD1Ev>
    576c:	90                   	nop
    576d:	c9                   	leave
    576e:	c3                   	ret
    576f:	90                   	nop

0000000000005770 <_ZNSt15__new_allocatorI21VkExtensionPropertiesEC1Ev>:
      // 2103. propagate_on_container_move_assignment
      typedef std::true_type propagate_on_container_move_assignment;
#endif

      _GLIBCXX20_CONSTEXPR
      __new_allocator() _GLIBCXX_USE_NOEXCEPT { }
    5770:	55                   	push   %rbp
    5771:	48 89 e5             	mov    %rsp,%rbp
    5774:	48 89 7d f8          	mov    %rdi,-0x8(%rbp)
    5778:	90                   	nop
    5779:	5d                   	pop    %rbp
    577a:	c3                   	ret
    577b:	90                   	nop

000000000000577c <_ZNSt15__new_allocatorI21VkExtensionPropertiesED1Ev>:
      template<typename _Tp1>
	_GLIBCXX20_CONSTEXPR
	__new_allocator(const __new_allocator<_Tp1>&) _GLIBCXX_USE_NOEXCEPT { }

#if __cplusplus <= 201703L
      ~__new_allocator() _GLIBCXX_USE_NOEXCEPT { }
    577c:	55                   	push   %rbp
    577d:	48 89 e5             	mov    %rsp,%rbp
    5780:	48 89 7d f8          	mov    %rdi,-0x8(%rbp)
    5784:	90                   	nop
    5785:	5d                   	pop    %rbp
    5786:	c3                   	ret

0000000000005787 <_ZNSt6vectorI21VkExtensionPropertiesSaIS0_EE17_S_check_init_lenEmRKS1_>:
	return (__len < size() || __len > max_size()) ? max_size() : __len;
      }

      // Called by constructors to check initial size.
      static _GLIBCXX20_CONSTEXPR size_type
      _S_check_init_len(size_type __n, const allocator_type& __a)
    5787:	55                   	push   %rbp
    5788:	48 89 e5             	mov    %rsp,%rbp
    578b:	53                   	push   %rbx
    578c:	48 83 ec 28          	sub    $0x28,%rsp
    5790:	48 89 7d d8          	mov    %rdi,-0x28(%rbp)
    5794:	48 89 75 d0          	mov    %rsi,-0x30(%rbp)
      {
	if (__n > _S_max_size(_Tp_alloc_type(__a)))
    5798:	48 8b 55 d0          	mov    -0x30(%rbp),%rdx
    579c:	48 8d 45 ef          	lea    -0x11(%rbp),%rax
    57a0:	48 89 d6             	mov    %rdx,%rsi
    57a3:	48 89 c7             	mov    %rax,%rdi
    57a6:	e8 25 01 00 00       	call   58d0 <_ZNSaI21VkExtensionPropertiesEC1ERKS0_>
    57ab:	48 8d 45 ef          	lea    -0x11(%rbp),%rax
    57af:	48 89 c7             	mov    %rax,%rdi
    57b2:	e8 ea 0e 00 00       	call   66a1 <_ZNSt6vectorI21VkExtensionPropertiesSaIS0_EE11_S_max_sizeERKS1_>
    57b7:	48 3b 45 d8          	cmp    -0x28(%rbp),%rax
    57bb:	0f 92 c3             	setb   %bl
    57be:	48 8d 45 ef          	lea    -0x11(%rbp),%rax
    57c2:	48 89 c7             	mov    %rax,%rdi
    57c5:	e8 dc f2 ff ff       	call   4aa6 <_ZNSaI21VkExtensionPropertiesED1Ev>
    57ca:	84 db                	test   %bl,%bl
    57cc:	74 0f                	je     57dd <_ZNSt6vectorI21VkExtensionPropertiesSaIS0_EE17_S_check_init_lenEmRKS1_+0x56>
	  __throw_length_error(
    57ce:	48 8d 05 7b b1 00 00 	lea    0xb17b(%rip),%rax        # 10950 <_ZL47VK_FORMAT_FEATURE_2_BOX_FILTER_SAMPLED_BIT_QCOM+0x148>
    57d5:	48 89 c7             	mov    %rax,%rdi
    57d8:	e8 23 d9 ff ff       	call   3100 <_ZSt20__throw_length_errorPKc@plt>
	      __N("cannot create std::vector larger than max_size()"));
	return __n;
    57dd:	48 8b 45 d8          	mov    -0x28(%rbp),%rax
      }
    57e1:	48 8b 5d f8          	mov    -0x8(%rbp),%rbx
    57e5:	c9                   	leave
    57e6:	c3                   	ret
    57e7:	90                   	nop

00000000000057e8 <_ZNSt12_Vector_baseI21VkExtensionPropertiesSaIS0_EEC1EmRKS1_>:
      _Vector_base(size_t __n, const allocator_type& __a)
    57e8:	55                   	push   %rbp
    57e9:	48 89 e5             	mov    %rsp,%rbp
    57ec:	53                   	push   %rbx
    57ed:	48 83 ec 28          	sub    $0x28,%rsp
    57f1:	48 89 7d e8          	mov    %rdi,-0x18(%rbp)
    57f5:	48 89 75 e0          	mov    %rsi,-0x20(%rbp)
    57f9:	48 89 55 d8          	mov    %rdx,-0x28(%rbp)
      : _M_impl(__a)
    57fd:	48 8b 45 e8          	mov    -0x18(%rbp),%rax
    5801:	48 8b 55 d8          	mov    -0x28(%rbp),%rdx
    5805:	48 89 d6             	mov    %rdx,%rsi
    5808:	48 89 c7             	mov    %rax,%rdi
    580b:	e8 d4 0e 00 00       	call   66e4 <_ZNSt12_Vector_baseI21VkExtensionPropertiesSaIS0_EE12_Vector_implC1ERKS1_>
      { _M_create_storage(__n); }
    5810:	48 8b 55 e0          	mov    -0x20(%rbp),%rdx
    5814:	48 8b 45 e8          	mov    -0x18(%rbp),%rax
    5818:	48 89 d6             	mov    %rdx,%rsi
    581b:	48 89 c7             	mov    %rax,%rdi
    581e:	e8 f3 0e 00 00       	call   6716 <_ZNSt12_Vector_baseI21VkExtensionPropertiesSaIS0_EE17_M_create_storageEm>
    5823:	eb 1a                	jmp    583f <_ZNSt12_Vector_baseI21VkExtensionPropertiesSaIS0_EEC1EmRKS1_+0x57>
    5825:	48 89 c3             	mov    %rax,%rbx
    5828:	48 8b 45 e8          	mov    -0x18(%rbp),%rax
    582c:	48 89 c7             	mov    %rax,%rdi
    582f:	e8 76 f1 ff ff       	call   49aa <_ZNSt12_Vector_baseI21VkExtensionPropertiesSaIS0_EE12_Vector_implD1Ev>
    5834:	48 89 d8             	mov    %rbx,%rax
    5837:	48 89 c7             	mov    %rax,%rdi
    583a:	e8 31 dc ff ff       	call   3470 <_Unwind_Resume@plt>
    583f:	48 8b 5d f8          	mov    -0x8(%rbp),%rbx
    5843:	c9                   	leave
    5844:	c3                   	ret
    5845:	90                   	nop

0000000000005846 <_ZNSt6vectorI21VkExtensionPropertiesSaIS0_EE21_M_default_initializeEm>:
      _M_default_initialize(size_type __n)
    5846:	55                   	push   %rbp
    5847:	48 89 e5             	mov    %rsp,%rbp
    584a:	48 83 ec 10          	sub    $0x10,%rsp
    584e:	48 89 7d f8          	mov    %rdi,-0x8(%rbp)
    5852:	48 89 75 f0          	mov    %rsi,-0x10(%rbp)
					   _M_get_Tp_allocator());
    5856:	48 8b 45 f8          	mov    -0x8(%rbp),%rax
    585a:	48 89 c7             	mov    %rax,%rdi
    585d:	e8 24 00 00 00       	call   5886 <_ZNSt12_Vector_baseI21VkExtensionPropertiesSaIS0_EE19_M_get_Tp_allocatorEv>
    5862:	48 89 c2             	mov    %rax,%rdx
	  std::__uninitialized_default_n_a(this->_M_impl._M_start, __n,
    5865:	48 8b 45 f8          	mov    -0x8(%rbp),%rax
    5869:	48 8b 00             	mov    (%rax),%rax
    586c:	48 8b 4d f0          	mov    -0x10(%rbp),%rcx
    5870:	48 89 ce             	mov    %rcx,%rsi
    5873:	48 89 c7             	mov    %rax,%rdi
    5876:	e8 fc 0e 00 00       	call   6777 <_ZSt27__uninitialized_default_n_aIP21VkExtensionPropertiesmS0_ET_S2_T0_RSaIT1_E>
	this->_M_impl._M_finish =
    587b:	48 8b 55 f8          	mov    -0x8(%rbp),%rdx
    587f:	48 89 42 08          	mov    %rax,0x8(%rdx)
      }
    5883:	90                   	nop
    5884:	c9                   	leave
    5885:	c3                   	ret

0000000000005886 <_ZNSt12_Vector_baseI21VkExtensionPropertiesSaIS0_EE19_M_get_Tp_allocatorEv>:
      _M_get_Tp_allocator() _GLIBCXX_NOEXCEPT
    5886:	55                   	push   %rbp
    5887:	48 89 e5             	mov    %rsp,%rbp
    588a:	48 89 7d f8          	mov    %rdi,-0x8(%rbp)
      { return this->_M_impl; }
    588e:	48 8b 45 f8          	mov    -0x8(%rbp),%rax
    5892:	5d                   	pop    %rbp
    5893:	c3                   	ret

0000000000005894 <_ZSt8_DestroyIP21VkExtensionPropertiesS0_EvT_S2_RSaIT0_E>:
    }

  template<typename _ForwardIterator, typename _Tp>
    _GLIBCXX20_CONSTEXPR
    inline void
    _Destroy(_ForwardIterator __first, _ForwardIterator __last,
    5894:	55                   	push   %rbp
    5895:	48 89 e5             	mov    %rsp,%rbp
    5898:	48 83 ec 20          	sub    $0x20,%rsp
    589c:	48 89 7d f8          	mov    %rdi,-0x8(%rbp)
    58a0:	48 89 75 f0          	mov    %rsi,-0x10(%rbp)
    58a4:	48 89 55 e8          	mov    %rdx,-0x18(%rbp)
	     allocator<_Tp>&)
    {
      _Destroy(__first, __last);
    58a8:	48 8b 55 f0          	mov    -0x10(%rbp),%rdx
    58ac:	48 8b 45 f8          	mov    -0x8(%rbp),%rax
    58b0:	48 89 d6             	mov    %rdx,%rsi
    58b3:	48 89 c7             	mov    %rax,%rdi
    58b6:	e8 e5 0e 00 00       	call   67a0 <_ZSt8_DestroyIP21VkExtensionPropertiesEvT_S2_>
    }
    58bb:	90                   	nop
    58bc:	c9                   	leave
    58bd:	c3                   	ret

00000000000058be <_ZNKSt6vectorI21VkExtensionPropertiesSaIS0_EE11_M_data_ptrIS0_EEPT_S5_>:
#endif

      template<typename _Up>
	_GLIBCXX20_CONSTEXPR
	_Up*
	_M_data_ptr(_Up* __ptr) const _GLIBCXX_NOEXCEPT
    58be:	55                   	push   %rbp
    58bf:	48 89 e5             	mov    %rsp,%rbp
    58c2:	48 89 7d f8          	mov    %rdi,-0x8(%rbp)
    58c6:	48 89 75 f0          	mov    %rsi,-0x10(%rbp)
	{ return __ptr; }
    58ca:	48 8b 45 f0          	mov    -0x10(%rbp),%rax
    58ce:	5d                   	pop    %rbp
    58cf:	c3                   	ret

00000000000058d0 <_ZNSaI21VkExtensionPropertiesEC1ERKS0_>:
      allocator(const allocator& __a) _GLIBCXX_NOTHROW
    58d0:	55                   	push   %rbp
    58d1:	48 89 e5             	mov    %rsp,%rbp
    58d4:	48 83 ec 10          	sub    $0x10,%rsp
    58d8:	48 89 7d f8          	mov    %rdi,-0x8(%rbp)
    58dc:	48 89 75 f0          	mov    %rsi,-0x10(%rbp)
      : __allocator_base<_Tp>(__a) { }
    58e0:	48 8b 55 f0          	mov    -0x10(%rbp),%rdx
    58e4:	48 8b 45 f8          	mov    -0x8(%rbp),%rax
    58e8:	48 89 d6             	mov    %rdx,%rsi
    58eb:	48 89 c7             	mov    %rax,%rdi
    58ee:	e8 d3 0e 00 00       	call   67c6 <_ZNSt15__new_allocatorI21VkExtensionPropertiesEC1ERKS1_>
    58f3:	90                   	nop
    58f4:	c9                   	leave
    58f5:	c3                   	ret

00000000000058f6 <_ZNSt12_Vector_baseI21VkExtensionPropertiesSaIS0_EE13_M_deallocateEPS0_m>:
      _M_deallocate(pointer __p, size_t __n)
    58f6:	55                   	push   %rbp
    58f7:	48 89 e5             	mov    %rsp,%rbp
    58fa:	48 83 ec 20          	sub    $0x20,%rsp
    58fe:	48 89 7d f8          	mov    %rdi,-0x8(%rbp)
    5902:	48 89 75 f0          	mov    %rsi,-0x10(%rbp)
    5906:	48 89 55 e8          	mov    %rdx,-0x18(%rbp)
	if (__p)
    590a:	48 83 7d f0 00       	cmpq   $0x0,-0x10(%rbp)
    590f:	74 17                	je     5928 <_ZNSt12_Vector_baseI21VkExtensionPropertiesSaIS0_EE13_M_deallocateEPS0_m+0x32>
	  _Tr::deallocate(_M_impl, __p, __n);
    5911:	48 8b 45 f8          	mov    -0x8(%rbp),%rax
    5915:	48 8b 55 e8          	mov    -0x18(%rbp),%rdx
    5919:	48 8b 4d f0          	mov    -0x10(%rbp),%rcx
    591d:	48 89 ce             	mov    %rcx,%rsi
    5920:	48 89 c7             	mov    %rax,%rdi
    5923:	e8 ad 0e 00 00       	call   67d5 <_ZNSt16allocator_traitsISaI21VkExtensionPropertiesEE10deallocateERS1_PS0_m>
      }
    5928:	90                   	nop
    5929:	c9                   	leave
    592a:	c3                   	ret
    592b:	90                   	nop

000000000000592c <_ZNSt15__new_allocatorIPKcEC1Ev>:
      __new_allocator() _GLIBCXX_USE_NOEXCEPT { }
    592c:	55                   	push   %rbp
    592d:	48 89 e5             	mov    %rsp,%rbp
    5930:	48 89 7d f8          	mov    %rdi,-0x8(%rbp)
    5934:	90                   	nop
    5935:	5d                   	pop    %rbp
    5936:	c3                   	ret
    5937:	90                   	nop

0000000000005938 <_ZNSt15__new_allocatorIPKcED1Ev>:
      ~__new_allocator() _GLIBCXX_USE_NOEXCEPT { }
    5938:	55                   	push   %rbp
    5939:	48 89 e5             	mov    %rsp,%rbp
    593c:	48 89 7d f8          	mov    %rdi,-0x8(%rbp)
    5940:	90                   	nop
    5941:	5d                   	pop    %rbp
    5942:	c3                   	ret

0000000000005943 <_ZNSt6vectorIPKcSaIS1_EE17_S_check_init_lenEmRKS2_>:
      _S_check_init_len(size_type __n, const allocator_type& __a)
    5943:	55                   	push   %rbp
    5944:	48 89 e5             	mov    %rsp,%rbp
    5947:	53                   	push   %rbx
    5948:	48 83 ec 28          	sub    $0x28,%rsp
    594c:	48 89 7d d8          	mov    %rdi,-0x28(%rbp)
    5950:	48 89 75 d0          	mov    %rsi,-0x30(%rbp)
	if (__n > _S_max_size(_Tp_alloc_type(__a)))
    5954:	48 8b 55 d0          	mov    -0x30(%rbp),%rdx
    5958:	48 8d 45 ef          	lea    -0x11(%rbp),%rax
    595c:	48 89 d6             	mov    %rdx,%rsi
    595f:	48 89 c7             	mov    %rax,%rdi
    5962:	e8 c5 01 00 00       	call   5b2c <_ZNSaIPKcEC1ERKS1_>
    5967:	48 8d 45 ef          	lea    -0x11(%rbp),%rax
    596b:	48 89 c7             	mov    %rax,%rdi
    596e:	e8 90 0e 00 00       	call   6803 <_ZNSt6vectorIPKcSaIS1_EE11_S_max_sizeERKS2_>
    5973:	48 3b 45 d8          	cmp    -0x28(%rbp),%rax
    5977:	0f 92 c3             	setb   %bl
    597a:	48 8d 45 ef          	lea    -0x11(%rbp),%rax
    597e:	48 89 c7             	mov    %rax,%rdi
    5981:	e8 8e f2 ff ff       	call   4c14 <_ZNSaIPKcED1Ev>
    5986:	84 db                	test   %bl,%bl
    5988:	74 0f                	je     5999 <_ZNSt6vectorIPKcSaIS1_EE17_S_check_init_lenEmRKS2_+0x56>
	  __throw_length_error(
    598a:	48 8d 05 bf af 00 00 	lea    0xafbf(%rip),%rax        # 10950 <_ZL47VK_FORMAT_FEATURE_2_BOX_FILTER_SAMPLED_BIT_QCOM+0x148>
    5991:	48 89 c7             	mov    %rax,%rdi
    5994:	e8 67 d7 ff ff       	call   3100 <_ZSt20__throw_length_errorPKc@plt>
	return __n;
    5999:	48 8b 45 d8          	mov    -0x28(%rbp),%rax
      }
    599d:	48 8b 5d f8          	mov    -0x8(%rbp),%rbx
    59a1:	c9                   	leave
    59a2:	c3                   	ret
    59a3:	90                   	nop

00000000000059a4 <_ZNSt12_Vector_baseIPKcSaIS1_EEC1EmRKS2_>:
      _Vector_base(size_t __n, const allocator_type& __a)
    59a4:	55                   	push   %rbp
    59a5:	48 89 e5             	mov    %rsp,%rbp
    59a8:	53                   	push   %rbx
    59a9:	48 83 ec 28          	sub    $0x28,%rsp
    59ad:	48 89 7d e8          	mov    %rdi,-0x18(%rbp)
    59b1:	48 89 75 e0          	mov    %rsi,-0x20(%rbp)
    59b5:	48 89 55 d8          	mov    %rdx,-0x28(%rbp)
      : _M_impl(__a)
    59b9:	48 8b 45 e8          	mov    -0x18(%rbp),%rax
    59bd:	48 8b 55 d8          	mov    -0x28(%rbp),%rdx
    59c1:	48 89 d6             	mov    %rdx,%rsi
    59c4:	48 89 c7             	mov    %rax,%rdi
    59c7:	e8 7a 0e 00 00       	call   6846 <_ZNSt12_Vector_baseIPKcSaIS1_EE12_Vector_implC1ERKS2_>
      { _M_create_storage(__n); }
    59cc:	48 8b 55 e0          	mov    -0x20(%rbp),%rdx
    59d0:	48 8b 45 e8          	mov    -0x18(%rbp),%rax
    59d4:	48 89 d6             	mov    %rdx,%rsi
    59d7:	48 89 c7             	mov    %rax,%rdi
    59da:	e8 99 0e 00 00       	call   6878 <_ZNSt12_Vector_baseIPKcSaIS1_EE17_M_create_storageEm>
    59df:	eb 1a                	jmp    59fb <_ZNSt12_Vector_baseIPKcSaIS1_EEC1EmRKS2_+0x57>
    59e1:	48 89 c3             	mov    %rax,%rbx
    59e4:	48 8b 45 e8          	mov    -0x18(%rbp),%rax
    59e8:	48 89 c7             	mov    %rax,%rdi
    59eb:	e8 d6 ef ff ff       	call   49c6 <_ZNSt12_Vector_baseIPKcSaIS1_EE12_Vector_implD1Ev>
    59f0:	48 89 d8             	mov    %rbx,%rax
    59f3:	48 89 c7             	mov    %rax,%rdi
    59f6:	e8 75 da ff ff       	call   3470 <_Unwind_Resume@plt>
    59fb:	48 8b 5d f8          	mov    -0x8(%rbp),%rbx
    59ff:	c9                   	leave
    5a00:	c3                   	ret
    5a01:	90                   	nop

0000000000005a02 <_ZNSt6vectorIPKcSaIS1_EE21_M_default_initializeEm>:
      _M_default_initialize(size_type __n)
    5a02:	55                   	push   %rbp
    5a03:	48 89 e5             	mov    %rsp,%rbp
    5a06:	48 83 ec 10          	sub    $0x10,%rsp
    5a0a:	48 89 7d f8          	mov    %rdi,-0x8(%rbp)
    5a0e:	48 89 75 f0          	mov    %rsi,-0x10(%rbp)
					   _M_get_Tp_allocator());
    5a12:	48 8b 45 f8          	mov    -0x8(%rbp),%rax
    5a16:	48 89 c7             	mov    %rax,%rdi
    5a19:	e8 24 00 00 00       	call   5a42 <_ZNSt12_Vector_baseIPKcSaIS1_EE19_M_get_Tp_allocatorEv>
    5a1e:	48 89 c2             	mov    %rax,%rdx
	  std::__uninitialized_default_n_a(this->_M_impl._M_start, __n,
    5a21:	48 8b 45 f8          	mov    -0x8(%rbp),%rax
    5a25:	48 8b 00             	mov    (%rax),%rax
    5a28:	48 8b 4d f0          	mov    -0x10(%rbp),%rcx
    5a2c:	48 89 ce             	mov    %rcx,%rsi
    5a2f:	48 89 c7             	mov    %rax,%rdi
    5a32:	e8 97 0e 00 00       	call   68ce <_ZSt27__uninitialized_default_n_aIPPKcmS1_ET_S3_T0_RSaIT1_E>
	this->_M_impl._M_finish =
    5a37:	48 8b 55 f8          	mov    -0x8(%rbp),%rdx
    5a3b:	48 89 42 08          	mov    %rax,0x8(%rdx)
      }
    5a3f:	90                   	nop
    5a40:	c9                   	leave
    5a41:	c3                   	ret

0000000000005a42 <_ZNSt12_Vector_baseIPKcSaIS1_EE19_M_get_Tp_allocatorEv>:
      _M_get_Tp_allocator() _GLIBCXX_NOEXCEPT
    5a42:	55                   	push   %rbp
    5a43:	48 89 e5             	mov    %rsp,%rbp
    5a46:	48 89 7d f8          	mov    %rdi,-0x8(%rbp)
      { return this->_M_impl; }
    5a4a:	48 8b 45 f8          	mov    -0x8(%rbp),%rax
    5a4e:	5d                   	pop    %rbp
    5a4f:	c3                   	ret

0000000000005a50 <_ZSt8_DestroyIPPKcS1_EvT_S3_RSaIT0_E>:
    _Destroy(_ForwardIterator __first, _ForwardIterator __last,
    5a50:	55                   	push   %rbp
    5a51:	48 89 e5             	mov    %rsp,%rbp
    5a54:	48 83 ec 20          	sub    $0x20,%rsp
    5a58:	48 89 7d f8          	mov    %rdi,-0x8(%rbp)
    5a5c:	48 89 75 f0          	mov    %rsi,-0x10(%rbp)
    5a60:	48 89 55 e8          	mov    %rdx,-0x18(%rbp)
      _Destroy(__first, __last);
    5a64:	48 8b 55 f0          	mov    -0x10(%rbp),%rdx
    5a68:	48 8b 45 f8          	mov    -0x8(%rbp),%rax
    5a6c:	48 89 d6             	mov    %rdx,%rsi
    5a6f:	48 89 c7             	mov    %rax,%rdi
    5a72:	e8 80 0e 00 00       	call   68f7 <_ZSt8_DestroyIPPKcEvT_S3_>
    }
    5a77:	90                   	nop
    5a78:	c9                   	leave
    5a79:	c3                   	ret

0000000000005a7a <_ZSt4moveIRPKcEONSt16remove_referenceIT_E4typeEOS4_>:
   *  @return The parameter cast to an rvalue-reference to allow moving it.
  */
  template<typename _Tp>
    _GLIBCXX_NODISCARD
    constexpr typename std::remove_reference<_Tp>::type&&
    move(_Tp&& __t) noexcept
    5a7a:	55                   	push   %rbp
    5a7b:	48 89 e5             	mov    %rsp,%rbp
    5a7e:	48 89 7d f8          	mov    %rdi,-0x8(%rbp)
    { return static_cast<typename std::remove_reference<_Tp>::type&&>(__t); }
    5a82:	48 8b 45 f8          	mov    -0x8(%rbp),%rax
    5a86:	5d                   	pop    %rbp
    5a87:	c3                   	ret

0000000000005a88 <_ZNSt6vectorIPKcSaIS1_EE12emplace_backIJS1_EEERS1_DpOT_>:
      _GLIBCXX20_CONSTEXPR
      typename vector<_Tp, _Alloc>::reference
#else
      void
#endif
      vector<_Tp, _Alloc>::
    5a88:	55                   	push   %rbp
    5a89:	48 89 e5             	mov    %rsp,%rbp
    5a8c:	53                   	push   %rbx
    5a8d:	48 83 ec 18          	sub    $0x18,%rsp
    5a91:	48 89 7d e8          	mov    %rdi,-0x18(%rbp)
    5a95:	48 89 75 e0          	mov    %rsi,-0x20(%rbp)
      emplace_back(_Args&&... __args)
      {
	if (this->_M_impl._M_finish != this->_M_impl._M_end_of_storage)
    5a99:	48 8b 45 e8          	mov    -0x18(%rbp),%rax
    5a9d:	48 8b 50 08          	mov    0x8(%rax),%rdx
    5aa1:	48 8b 45 e8          	mov    -0x18(%rbp),%rax
    5aa5:	48 8b 40 10          	mov    0x10(%rax),%rax
    5aa9:	48 39 c2             	cmp    %rax,%rdx
    5aac:	74 3c                	je     5aea <_ZNSt6vectorIPKcSaIS1_EE12emplace_backIJS1_EEERS1_DpOT_+0x62>
	  {
	    _GLIBCXX_ASAN_ANNOTATE_GROW(1);
	    _Alloc_traits::construct(this->_M_impl, this->_M_impl._M_finish,
    5aae:	48 8b 45 e0          	mov    -0x20(%rbp),%rax
    5ab2:	48 89 c7             	mov    %rax,%rdi
    5ab5:	e8 63 0e 00 00       	call   691d <_ZSt7forwardIPKcEOT_RNSt16remove_referenceIS2_E4typeE>
    5aba:	48 89 c2             	mov    %rax,%rdx
    5abd:	48 8b 45 e8          	mov    -0x18(%rbp),%rax
    5ac1:	48 8b 48 08          	mov    0x8(%rax),%rcx
    5ac5:	48 8b 45 e8          	mov    -0x18(%rbp),%rax
    5ac9:	48 89 ce             	mov    %rcx,%rsi
    5acc:	48 89 c7             	mov    %rax,%rdi
    5acf:	e8 57 0e 00 00       	call   692b <_ZNSt16allocator_traitsISaIPKcEE9constructIS1_JS1_EEEvRS2_PT_DpOT0_>
				     std::forward<_Args>(__args)...);
	    ++this->_M_impl._M_finish;
    5ad4:	48 8b 45 e8          	mov    -0x18(%rbp),%rax
    5ad8:	48 8b 40 08          	mov    0x8(%rax),%rax
    5adc:	48 8d 50 08          	lea    0x8(%rax),%rdx
    5ae0:	48 8b 45 e8          	mov    -0x18(%rbp),%rax
    5ae4:	48 89 50 08          	mov    %rdx,0x8(%rax)
    5ae8:	eb 30                	jmp    5b1a <_ZNSt6vectorIPKcSaIS1_EE12emplace_backIJS1_EEERS1_DpOT_+0x92>
	    _GLIBCXX_ASAN_ANNOTATE_GREW(1);
	  }
	else
	  _M_realloc_insert(end(), std::forward<_Args>(__args)...);
    5aea:	48 8b 45 e0          	mov    -0x20(%rbp),%rax
    5aee:	48 89 c7             	mov    %rax,%rdi
    5af1:	e8 27 0e 00 00       	call   691d <_ZSt7forwardIPKcEOT_RNSt16remove_referenceIS2_E4typeE>
    5af6:	48 89 c3             	mov    %rax,%rbx
    5af9:	48 8b 45 e8          	mov    -0x18(%rbp),%rax
    5afd:	48 89 c7             	mov    %rax,%rdi
    5b00:	e8 5f 0e 00 00       	call   6964 <_ZNSt6vectorIPKcSaIS1_EE3endEv>
    5b05:	48 89 c1             	mov    %rax,%rcx
    5b08:	48 8b 45 e8          	mov    -0x18(%rbp),%rax
    5b0c:	48 89 da             	mov    %rbx,%rdx
    5b0f:	48 89 ce             	mov    %rcx,%rsi
    5b12:	48 89 c7             	mov    %rax,%rdi
    5b15:	e8 74 0e 00 00       	call   698e <_ZNSt6vectorIPKcSaIS1_EE17_M_realloc_insertIJS1_EEEvN9__gnu_cxx17__normal_iteratorIPS1_S3_EEDpOT_>
#if __cplusplus > 201402L
	return back();
    5b1a:	48 8b 45 e8          	mov    -0x18(%rbp),%rax
    5b1e:	48 89 c7             	mov    %rax,%rdi
    5b21:	e8 fa 0f 00 00       	call   6b20 <_ZNSt6vectorIPKcSaIS1_EE4backEv>
#endif
      }
    5b26:	48 8b 5d f8          	mov    -0x8(%rbp),%rbx
    5b2a:	c9                   	leave
    5b2b:	c3                   	ret

0000000000005b2c <_ZNSaIPKcEC1ERKS1_>:
      allocator(const allocator& __a) _GLIBCXX_NOTHROW
    5b2c:	55                   	push   %rbp
    5b2d:	48 89 e5             	mov    %rsp,%rbp
    5b30:	48 83 ec 10          	sub    $0x10,%rsp
    5b34:	48 89 7d f8          	mov    %rdi,-0x8(%rbp)
    5b38:	48 89 75 f0          	mov    %rsi,-0x10(%rbp)
      : __allocator_base<_Tp>(__a) { }
    5b3c:	48 8b 55 f0          	mov    -0x10(%rbp),%rdx
    5b40:	48 8b 45 f8          	mov    -0x8(%rbp),%rax
    5b44:	48 89 d6             	mov    %rdx,%rsi
    5b47:	48 89 c7             	mov    %rax,%rdi
    5b4a:	e8 11 10 00 00       	call   6b60 <_ZNSt15__new_allocatorIPKcEC1ERKS2_>
    5b4f:	90                   	nop
    5b50:	c9                   	leave
    5b51:	c3                   	ret

0000000000005b52 <_ZNSt12_Vector_baseIPKcSaIS1_EE13_M_deallocateEPS1_m>:
      _M_deallocate(pointer __p, size_t __n)
    5b52:	55                   	push   %rbp
    5b53:	48 89 e5             	mov    %rsp,%rbp
    5b56:	48 83 ec 20          	sub    $0x20,%rsp
    5b5a:	48 89 7d f8          	mov    %rdi,-0x8(%rbp)
    5b5e:	48 89 75 f0          	mov    %rsi,-0x10(%rbp)
    5b62:	48 89 55 e8          	mov    %rdx,-0x18(%rbp)
	if (__p)
    5b66:	48 83 7d f0 00       	cmpq   $0x0,-0x10(%rbp)
    5b6b:	74 17                	je     5b84 <_ZNSt12_Vector_baseIPKcSaIS1_EE13_M_deallocateEPS1_m+0x32>
	  _Tr::deallocate(_M_impl, __p, __n);
    5b6d:	48 8b 45 f8          	mov    -0x8(%rbp),%rax
    5b71:	48 8b 55 e8          	mov    -0x18(%rbp),%rdx
    5b75:	48 8b 4d f0          	mov    -0x10(%rbp),%rcx
    5b79:	48 89 ce             	mov    %rcx,%rsi
    5b7c:	48 89 c7             	mov    %rax,%rdi
    5b7f:	e8 eb 0f 00 00       	call   6b6f <_ZNSt16allocator_traitsISaIPKcEE10deallocateERS2_PS1_m>
      }
    5b84:	90                   	nop
    5b85:	c9                   	leave
    5b86:	c3                   	ret
    5b87:	90                   	nop

0000000000005b88 <_ZNSt15__new_allocatorI17VkLayerPropertiesEC1Ev>:
      __new_allocator() _GLIBCXX_USE_NOEXCEPT { }
    5b88:	55                   	push   %rbp
    5b89:	48 89 e5             	mov    %rsp,%rbp
    5b8c:	48 89 7d f8          	mov    %rdi,-0x8(%rbp)
    5b90:	90                   	nop
    5b91:	5d                   	pop    %rbp
    5b92:	c3                   	ret
    5b93:	90                   	nop

0000000000005b94 <_ZNSt15__new_allocatorI17VkLayerPropertiesED1Ev>:
      ~__new_allocator() _GLIBCXX_USE_NOEXCEPT { }
    5b94:	55                   	push   %rbp
    5b95:	48 89 e5             	mov    %rsp,%rbp
    5b98:	48 89 7d f8          	mov    %rdi,-0x8(%rbp)
    5b9c:	90                   	nop
    5b9d:	5d                   	pop    %rbp
    5b9e:	c3                   	ret

0000000000005b9f <_ZNSt6vectorI17VkLayerPropertiesSaIS0_EE17_S_check_init_lenEmRKS1_>:
      _S_check_init_len(size_type __n, const allocator_type& __a)
    5b9f:	55                   	push   %rbp
    5ba0:	48 89 e5             	mov    %rsp,%rbp
    5ba3:	53                   	push   %rbx
    5ba4:	48 83 ec 28          	sub    $0x28,%rsp
    5ba8:	48 89 7d d8          	mov    %rdi,-0x28(%rbp)
    5bac:	48 89 75 d0          	mov    %rsi,-0x30(%rbp)
	if (__n > _S_max_size(_Tp_alloc_type(__a)))
    5bb0:	48 8b 55 d0          	mov    -0x30(%rbp),%rdx
    5bb4:	48 8d 45 ef          	lea    -0x11(%rbp),%rax
    5bb8:	48 89 d6             	mov    %rdx,%rsi
    5bbb:	48 89 c7             	mov    %rax,%rdi
    5bbe:	e8 25 01 00 00       	call   5ce8 <_ZNSaI17VkLayerPropertiesEC1ERKS0_>
    5bc3:	48 8d 45 ef          	lea    -0x11(%rbp),%rax
    5bc7:	48 89 c7             	mov    %rax,%rdi
    5bca:	e8 ce 0f 00 00       	call   6b9d <_ZNSt6vectorI17VkLayerPropertiesSaIS0_EE11_S_max_sizeERKS1_>
    5bcf:	48 3b 45 d8          	cmp    -0x28(%rbp),%rax
    5bd3:	0f 92 c3             	setb   %bl
    5bd6:	48 8d 45 ef          	lea    -0x11(%rbp),%rax
    5bda:	48 89 c7             	mov    %rax,%rdi
    5bdd:	e8 c4 f1 ff ff       	call   4da6 <_ZNSaI17VkLayerPropertiesED1Ev>
    5be2:	84 db                	test   %bl,%bl
    5be4:	74 0f                	je     5bf5 <_ZNSt6vectorI17VkLayerPropertiesSaIS0_EE17_S_check_init_lenEmRKS1_+0x56>
	  __throw_length_error(
    5be6:	48 8d 05 63 ad 00 00 	lea    0xad63(%rip),%rax        # 10950 <_ZL47VK_FORMAT_FEATURE_2_BOX_FILTER_SAMPLED_BIT_QCOM+0x148>
    5bed:	48 89 c7             	mov    %rax,%rdi
    5bf0:	e8 0b d5 ff ff       	call   3100 <_ZSt20__throw_length_errorPKc@plt>
	return __n;
    5bf5:	48 8b 45 d8          	mov    -0x28(%rbp),%rax
      }
    5bf9:	48 8b 5d f8          	mov    -0x8(%rbp),%rbx
    5bfd:	c9                   	leave
    5bfe:	c3                   	ret
    5bff:	90                   	nop

0000000000005c00 <_ZNSt12_Vector_baseI17VkLayerPropertiesSaIS0_EEC1EmRKS1_>:
      _Vector_base(size_t __n, const allocator_type& __a)
    5c00:	55                   	push   %rbp
    5c01:	48 89 e5             	mov    %rsp,%rbp
    5c04:	53                   	push   %rbx
    5c05:	48 83 ec 28          	sub    $0x28,%rsp
    5c09:	48 89 7d e8          	mov    %rdi,-0x18(%rbp)
    5c0d:	48 89 75 e0          	mov    %rsi,-0x20(%rbp)
    5c11:	48 89 55 d8          	mov    %rdx,-0x28(%rbp)
      : _M_impl(__a)
    5c15:	48 8b 45 e8          	mov    -0x18(%rbp),%rax
    5c19:	48 8b 55 d8          	mov    -0x28(%rbp),%rdx
    5c1d:	48 89 d6             	mov    %rdx,%rsi
    5c20:	48 89 c7             	mov    %rax,%rdi
    5c23:	e8 b8 0f 00 00       	call   6be0 <_ZNSt12_Vector_baseI17VkLayerPropertiesSaIS0_EE12_Vector_implC1ERKS1_>
      { _M_create_storage(__n); }
    5c28:	48 8b 55 e0          	mov    -0x20(%rbp),%rdx
    5c2c:	48 8b 45 e8          	mov    -0x18(%rbp),%rax
    5c30:	48 89 d6             	mov    %rdx,%rsi
    5c33:	48 89 c7             	mov    %rax,%rdi
    5c36:	e8 d7 0f 00 00       	call   6c12 <_ZNSt12_Vector_baseI17VkLayerPropertiesSaIS0_EE17_M_create_storageEm>
    5c3b:	eb 1a                	jmp    5c57 <_ZNSt12_Vector_baseI17VkLayerPropertiesSaIS0_EEC1EmRKS1_+0x57>
    5c3d:	48 89 c3             	mov    %rax,%rbx
    5c40:	48 8b 45 e8          	mov    -0x18(%rbp),%rax
    5c44:	48 89 c7             	mov    %rax,%rdi
    5c47:	e8 96 ed ff ff       	call   49e2 <_ZNSt12_Vector_baseI17VkLayerPropertiesSaIS0_EE12_Vector_implD1Ev>
    5c4c:	48 89 d8             	mov    %rbx,%rax
    5c4f:	48 89 c7             	mov    %rax,%rdi
    5c52:	e8 19 d8 ff ff       	call   3470 <_Unwind_Resume@plt>
    5c57:	48 8b 5d f8          	mov    -0x8(%rbp),%rbx
    5c5b:	c9                   	leave
    5c5c:	c3                   	ret
    5c5d:	90                   	nop

0000000000005c5e <_ZNSt6vectorI17VkLayerPropertiesSaIS0_EE21_M_default_initializeEm>:
      _M_default_initialize(size_type __n)
    5c5e:	55                   	push   %rbp
    5c5f:	48 89 e5             	mov    %rsp,%rbp
    5c62:	48 83 ec 10          	sub    $0x10,%rsp
    5c66:	48 89 7d f8          	mov    %rdi,-0x8(%rbp)
    5c6a:	48 89 75 f0          	mov    %rsi,-0x10(%rbp)
					   _M_get_Tp_allocator());
    5c6e:	48 8b 45 f8          	mov    -0x8(%rbp),%rax
    5c72:	48 89 c7             	mov    %rax,%rdi
    5c75:	e8 24 00 00 00       	call   5c9e <_ZNSt12_Vector_baseI17VkLayerPropertiesSaIS0_EE19_M_get_Tp_allocatorEv>
    5c7a:	48 89 c2             	mov    %rax,%rdx
	  std::__uninitialized_default_n_a(this->_M_impl._M_start, __n,
    5c7d:	48 8b 45 f8          	mov    -0x8(%rbp),%rax
    5c81:	48 8b 00             	mov    (%rax),%rax
    5c84:	48 8b 4d f0          	mov    -0x10(%rbp),%rcx
    5c88:	48 89 ce             	mov    %rcx,%rsi
    5c8b:	48 89 c7             	mov    %rax,%rdi
    5c8e:	e8 e0 0f 00 00       	call   6c73 <_ZSt27__uninitialized_default_n_aIP17VkLayerPropertiesmS0_ET_S2_T0_RSaIT1_E>
	this->_M_impl._M_finish =
    5c93:	48 8b 55 f8          	mov    -0x8(%rbp),%rdx
    5c97:	48 89 42 08          	mov    %rax,0x8(%rdx)
      }
    5c9b:	90                   	nop
    5c9c:	c9                   	leave
    5c9d:	c3                   	ret

0000000000005c9e <_ZNSt12_Vector_baseI17VkLayerPropertiesSaIS0_EE19_M_get_Tp_allocatorEv>:
      _M_get_Tp_allocator() _GLIBCXX_NOEXCEPT
    5c9e:	55                   	push   %rbp
    5c9f:	48 89 e5             	mov    %rsp,%rbp
    5ca2:	48 89 7d f8          	mov    %rdi,-0x8(%rbp)
      { return this->_M_impl; }
    5ca6:	48 8b 45 f8          	mov    -0x8(%rbp),%rax
    5caa:	5d                   	pop    %rbp
    5cab:	c3                   	ret

0000000000005cac <_ZSt8_DestroyIP17VkLayerPropertiesS0_EvT_S2_RSaIT0_E>:
    _Destroy(_ForwardIterator __first, _ForwardIterator __last,
    5cac:	55                   	push   %rbp
    5cad:	48 89 e5             	mov    %rsp,%rbp
    5cb0:	48 83 ec 20          	sub    $0x20,%rsp
    5cb4:	48 89 7d f8          	mov    %rdi,-0x8(%rbp)
    5cb8:	48 89 75 f0          	mov    %rsi,-0x10(%rbp)
    5cbc:	48 89 55 e8          	mov    %rdx,-0x18(%rbp)
      _Destroy(__first, __last);
    5cc0:	48 8b 55 f0          	mov    -0x10(%rbp),%rdx
    5cc4:	48 8b 45 f8          	mov    -0x8(%rbp),%rax
    5cc8:	48 89 d6             	mov    %rdx,%rsi
    5ccb:	48 89 c7             	mov    %rax,%rdi
    5cce:	e8 c9 0f 00 00       	call   6c9c <_ZSt8_DestroyIP17VkLayerPropertiesEvT_S2_>
    }
    5cd3:	90                   	nop
    5cd4:	c9                   	leave
    5cd5:	c3                   	ret

0000000000005cd6 <_ZNKSt6vectorI17VkLayerPropertiesSaIS0_EE11_M_data_ptrIS0_EEPT_S5_>:
	_M_data_ptr(_Up* __ptr) const _GLIBCXX_NOEXCEPT
    5cd6:	55                   	push   %rbp
    5cd7:	48 89 e5             	mov    %rsp,%rbp
    5cda:	48 89 7d f8          	mov    %rdi,-0x8(%rbp)
    5cde:	48 89 75 f0          	mov    %rsi,-0x10(%rbp)
	{ return __ptr; }
    5ce2:	48 8b 45 f0          	mov    -0x10(%rbp),%rax
    5ce6:	5d                   	pop    %rbp
    5ce7:	c3                   	ret

0000000000005ce8 <_ZNSaI17VkLayerPropertiesEC1ERKS0_>:
      allocator(const allocator& __a) _GLIBCXX_NOTHROW
    5ce8:	55                   	push   %rbp
    5ce9:	48 89 e5             	mov    %rsp,%rbp
    5cec:	48 83 ec 10          	sub    $0x10,%rsp
    5cf0:	48 89 7d f8          	mov    %rdi,-0x8(%rbp)
    5cf4:	48 89 75 f0          	mov    %rsi,-0x10(%rbp)
      : __allocator_base<_Tp>(__a) { }
    5cf8:	48 8b 55 f0          	mov    -0x10(%rbp),%rdx
    5cfc:	48 8b 45 f8          	mov    -0x8(%rbp),%rax
    5d00:	48 89 d6             	mov    %rdx,%rsi
    5d03:	48 89 c7             	mov    %rax,%rdi
    5d06:	e8 b7 0f 00 00       	call   6cc2 <_ZNSt15__new_allocatorI17VkLayerPropertiesEC1ERKS1_>
    5d0b:	90                   	nop
    5d0c:	c9                   	leave
    5d0d:	c3                   	ret

0000000000005d0e <_ZNSt12_Vector_baseI17VkLayerPropertiesSaIS0_EE13_M_deallocateEPS0_m>:
      _M_deallocate(pointer __p, size_t __n)
    5d0e:	55                   	push   %rbp
    5d0f:	48 89 e5             	mov    %rsp,%rbp
    5d12:	48 83 ec 20          	sub    $0x20,%rsp
    5d16:	48 89 7d f8          	mov    %rdi,-0x8(%rbp)
    5d1a:	48 89 75 f0          	mov    %rsi,-0x10(%rbp)
    5d1e:	48 89 55 e8          	mov    %rdx,-0x18(%rbp)
	if (__p)
    5d22:	48 83 7d f0 00       	cmpq   $0x0,-0x10(%rbp)
    5d27:	74 17                	je     5d40 <_ZNSt12_Vector_baseI17VkLayerPropertiesSaIS0_EE13_M_deallocateEPS0_m+0x32>
	  _Tr::deallocate(_M_impl, __p, __n);
    5d29:	48 8b 45 f8          	mov    -0x8(%rbp),%rax
    5d2d:	48 8b 55 e8          	mov    -0x18(%rbp),%rdx
    5d31:	48 8b 4d f0          	mov    -0x10(%rbp),%rcx
    5d35:	48 89 ce             	mov    %rcx,%rsi
    5d38:	48 89 c7             	mov    %rax,%rdi
    5d3b:	e8 91 0f 00 00       	call   6cd1 <_ZNSt16allocator_traitsISaI17VkLayerPropertiesEE10deallocateERS1_PS0_m>
      }
    5d40:	90                   	nop
    5d41:	c9                   	leave
    5d42:	c3                   	ret
    5d43:	90                   	nop

0000000000005d44 <_ZNSt15__new_allocatorIP18VkPhysicalDevice_TEC1Ev>:
      __new_allocator() _GLIBCXX_USE_NOEXCEPT { }
    5d44:	55                   	push   %rbp
    5d45:	48 89 e5             	mov    %rsp,%rbp
    5d48:	48 89 7d f8          	mov    %rdi,-0x8(%rbp)
    5d4c:	90                   	nop
    5d4d:	5d                   	pop    %rbp
    5d4e:	c3                   	ret
    5d4f:	90                   	nop

0000000000005d50 <_ZNSt15__new_allocatorIP18VkPhysicalDevice_TED1Ev>:
      ~__new_allocator() _GLIBCXX_USE_NOEXCEPT { }
    5d50:	55                   	push   %rbp
    5d51:	48 89 e5             	mov    %rsp,%rbp
    5d54:	48 89 7d f8          	mov    %rdi,-0x8(%rbp)
    5d58:	90                   	nop
    5d59:	5d                   	pop    %rbp
    5d5a:	c3                   	ret

0000000000005d5b <_ZNSt6vectorIP18VkPhysicalDevice_TSaIS1_EE17_S_check_init_lenEmRKS2_>:
      _S_check_init_len(size_type __n, const allocator_type& __a)
    5d5b:	55                   	push   %rbp
    5d5c:	48 89 e5             	mov    %rsp,%rbp
    5d5f:	53                   	push   %rbx
    5d60:	48 83 ec 28          	sub    $0x28,%rsp
    5d64:	48 89 7d d8          	mov    %rdi,-0x28(%rbp)
    5d68:	48 89 75 d0          	mov    %rsi,-0x30(%rbp)
	if (__n > _S_max_size(_Tp_alloc_type(__a)))
    5d6c:	48 8b 55 d0          	mov    -0x30(%rbp),%rdx
    5d70:	48 8d 45 ef          	lea    -0x11(%rbp),%rax
    5d74:	48 89 d6             	mov    %rdx,%rsi
    5d77:	48 89 c7             	mov    %rax,%rdi
    5d7a:	e8 25 01 00 00       	call   5ea4 <_ZNSaIP18VkPhysicalDevice_TEC1ERKS1_>
    5d7f:	48 8d 45 ef          	lea    -0x11(%rbp),%rax
    5d83:	48 89 c7             	mov    %rax,%rdi
    5d86:	e8 74 0f 00 00       	call   6cff <_ZNSt6vectorIP18VkPhysicalDevice_TSaIS1_EE11_S_max_sizeERKS2_>
    5d8b:	48 3b 45 d8          	cmp    -0x28(%rbp),%rax
    5d8f:	0f 92 c3             	setb   %bl
    5d92:	48 8d 45 ef          	lea    -0x11(%rbp),%rax
    5d96:	48 89 c7             	mov    %rax,%rdi
    5d99:	e8 76 f1 ff ff       	call   4f14 <_ZNSaIP18VkPhysicalDevice_TED1Ev>
    5d9e:	84 db                	test   %bl,%bl
    5da0:	74 0f                	je     5db1 <_ZNSt6vectorIP18VkPhysicalDevice_TSaIS1_EE17_S_check_init_lenEmRKS2_+0x56>
	  __throw_length_error(
    5da2:	48 8d 05 a7 ab 00 00 	lea    0xaba7(%rip),%rax        # 10950 <_ZL47VK_FORMAT_FEATURE_2_BOX_FILTER_SAMPLED_BIT_QCOM+0x148>
    5da9:	48 89 c7             	mov    %rax,%rdi
    5dac:	e8 4f d3 ff ff       	call   3100 <_ZSt20__throw_length_errorPKc@plt>
	return __n;
    5db1:	48 8b 45 d8          	mov    -0x28(%rbp),%rax
      }
    5db5:	48 8b 5d f8          	mov    -0x8(%rbp),%rbx
    5db9:	c9                   	leave
    5dba:	c3                   	ret
    5dbb:	90                   	nop

0000000000005dbc <_ZNSt12_Vector_baseIP18VkPhysicalDevice_TSaIS1_EEC1EmRKS2_>:
      _Vector_base(size_t __n, const allocator_type& __a)
    5dbc:	55                   	push   %rbp
    5dbd:	48 89 e5             	mov    %rsp,%rbp
    5dc0:	53                   	push   %rbx
    5dc1:	48 83 ec 28          	sub    $0x28,%rsp
    5dc5:	48 89 7d e8          	mov    %rdi,-0x18(%rbp)
    5dc9:	48 89 75 e0          	mov    %rsi,-0x20(%rbp)
    5dcd:	48 89 55 d8          	mov    %rdx,-0x28(%rbp)
      : _M_impl(__a)
    5dd1:	48 8b 45 e8          	mov    -0x18(%rbp),%rax
    5dd5:	48 8b 55 d8          	mov    -0x28(%rbp),%rdx
    5dd9:	48 89 d6             	mov    %rdx,%rsi
    5ddc:	48 89 c7             	mov    %rax,%rdi
    5ddf:	e8 5e 0f 00 00       	call   6d42 <_ZNSt12_Vector_baseIP18VkPhysicalDevice_TSaIS1_EE12_Vector_implC1ERKS2_>
      { _M_create_storage(__n); }
    5de4:	48 8b 55 e0          	mov    -0x20(%rbp),%rdx
    5de8:	48 8b 45 e8          	mov    -0x18(%rbp),%rax
    5dec:	48 89 d6             	mov    %rdx,%rsi
    5def:	48 89 c7             	mov    %rax,%rdi
    5df2:	e8 7d 0f 00 00       	call   6d74 <_ZNSt12_Vector_baseIP18VkPhysicalDevice_TSaIS1_EE17_M_create_storageEm>
    5df7:	eb 1a                	jmp    5e13 <_ZNSt12_Vector_baseIP18VkPhysicalDevice_TSaIS1_EEC1EmRKS2_+0x57>
    5df9:	48 89 c3             	mov    %rax,%rbx
    5dfc:	48 8b 45 e8          	mov    -0x18(%rbp),%rax
    5e00:	48 89 c7             	mov    %rax,%rdi
    5e03:	e8 f6 eb ff ff       	call   49fe <_ZNSt12_Vector_baseIP18VkPhysicalDevice_TSaIS1_EE12_Vector_implD1Ev>
    5e08:	48 89 d8             	mov    %rbx,%rax
    5e0b:	48 89 c7             	mov    %rax,%rdi
    5e0e:	e8 5d d6 ff ff       	call   3470 <_Unwind_Resume@plt>
    5e13:	48 8b 5d f8          	mov    -0x8(%rbp),%rbx
    5e17:	c9                   	leave
    5e18:	c3                   	ret
    5e19:	90                   	nop

0000000000005e1a <_ZNSt6vectorIP18VkPhysicalDevice_TSaIS1_EE21_M_default_initializeEm>:
      _M_default_initialize(size_type __n)
    5e1a:	55                   	push   %rbp
    5e1b:	48 89 e5             	mov    %rsp,%rbp
    5e1e:	48 83 ec 10          	sub    $0x10,%rsp
    5e22:	48 89 7d f8          	mov    %rdi,-0x8(%rbp)
    5e26:	48 89 75 f0          	mov    %rsi,-0x10(%rbp)
					   _M_get_Tp_allocator());
    5e2a:	48 8b 45 f8          	mov    -0x8(%rbp),%rax
    5e2e:	48 89 c7             	mov    %rax,%rdi
    5e31:	e8 24 00 00 00       	call   5e5a <_ZNSt12_Vector_baseIP18VkPhysicalDevice_TSaIS1_EE19_M_get_Tp_allocatorEv>
    5e36:	48 89 c2             	mov    %rax,%rdx
	  std::__uninitialized_default_n_a(this->_M_impl._M_start, __n,
    5e39:	48 8b 45 f8          	mov    -0x8(%rbp),%rax
    5e3d:	48 8b 00             	mov    (%rax),%rax
    5e40:	48 8b 4d f0          	mov    -0x10(%rbp),%rcx
    5e44:	48 89 ce             	mov    %rcx,%rsi
    5e47:	48 89 c7             	mov    %rax,%rdi
    5e4a:	e8 7b 0f 00 00       	call   6dca <_ZSt27__uninitialized_default_n_aIPP18VkPhysicalDevice_TmS1_ET_S3_T0_RSaIT1_E>
	this->_M_impl._M_finish =
    5e4f:	48 8b 55 f8          	mov    -0x8(%rbp),%rdx
    5e53:	48 89 42 08          	mov    %rax,0x8(%rdx)
      }
    5e57:	90                   	nop
    5e58:	c9                   	leave
    5e59:	c3                   	ret

0000000000005e5a <_ZNSt12_Vector_baseIP18VkPhysicalDevice_TSaIS1_EE19_M_get_Tp_allocatorEv>:
      _M_get_Tp_allocator() _GLIBCXX_NOEXCEPT
    5e5a:	55                   	push   %rbp
    5e5b:	48 89 e5             	mov    %rsp,%rbp
    5e5e:	48 89 7d f8          	mov    %rdi,-0x8(%rbp)
      { return this->_M_impl; }
    5e62:	48 8b 45 f8          	mov    -0x8(%rbp),%rax
    5e66:	5d                   	pop    %rbp
    5e67:	c3                   	ret

0000000000005e68 <_ZSt8_DestroyIPP18VkPhysicalDevice_TS1_EvT_S3_RSaIT0_E>:
    _Destroy(_ForwardIterator __first, _ForwardIterator __last,
    5e68:	55                   	push   %rbp
    5e69:	48 89 e5             	mov    %rsp,%rbp
    5e6c:	48 83 ec 20          	sub    $0x20,%rsp
    5e70:	48 89 7d f8          	mov    %rdi,-0x8(%rbp)
    5e74:	48 89 75 f0          	mov    %rsi,-0x10(%rbp)
    5e78:	48 89 55 e8          	mov    %rdx,-0x18(%rbp)
      _Destroy(__first, __last);
    5e7c:	48 8b 55 f0          	mov    -0x10(%rbp),%rdx
    5e80:	48 8b 45 f8          	mov    -0x8(%rbp),%rax
    5e84:	48 89 d6             	mov    %rdx,%rsi
    5e87:	48 89 c7             	mov    %rax,%rdi
    5e8a:	e8 64 0f 00 00       	call   6df3 <_ZSt8_DestroyIPP18VkPhysicalDevice_TEvT_S3_>
    }
    5e8f:	90                   	nop
    5e90:	c9                   	leave
    5e91:	c3                   	ret

0000000000005e92 <_ZNKSt6vectorIP18VkPhysicalDevice_TSaIS1_EE11_M_data_ptrIS1_EEPT_S6_>:
	_M_data_ptr(_Up* __ptr) const _GLIBCXX_NOEXCEPT
    5e92:	55                   	push   %rbp
    5e93:	48 89 e5             	mov    %rsp,%rbp
    5e96:	48 89 7d f8          	mov    %rdi,-0x8(%rbp)
    5e9a:	48 89 75 f0          	mov    %rsi,-0x10(%rbp)
	{ return __ptr; }
    5e9e:	48 8b 45 f0          	mov    -0x10(%rbp),%rax
    5ea2:	5d                   	pop    %rbp
    5ea3:	c3                   	ret

0000000000005ea4 <_ZNSaIP18VkPhysicalDevice_TEC1ERKS1_>:
      allocator(const allocator& __a) _GLIBCXX_NOTHROW
    5ea4:	55                   	push   %rbp
    5ea5:	48 89 e5             	mov    %rsp,%rbp
    5ea8:	48 83 ec 10          	sub    $0x10,%rsp
    5eac:	48 89 7d f8          	mov    %rdi,-0x8(%rbp)
    5eb0:	48 89 75 f0          	mov    %rsi,-0x10(%rbp)
      : __allocator_base<_Tp>(__a) { }
    5eb4:	48 8b 55 f0          	mov    -0x10(%rbp),%rdx
    5eb8:	48 8b 45 f8          	mov    -0x8(%rbp),%rax
    5ebc:	48 89 d6             	mov    %rdx,%rsi
    5ebf:	48 89 c7             	mov    %rax,%rdi
    5ec2:	e8 53 0f 00 00       	call   6e1a <_ZNSt15__new_allocatorIP18VkPhysicalDevice_TEC1ERKS2_>
    5ec7:	90                   	nop
    5ec8:	c9                   	leave
    5ec9:	c3                   	ret

0000000000005eca <_ZNSt12_Vector_baseIP18VkPhysicalDevice_TSaIS1_EE13_M_deallocateEPS1_m>:
      _M_deallocate(pointer __p, size_t __n)
    5eca:	55                   	push   %rbp
    5ecb:	48 89 e5             	mov    %rsp,%rbp
    5ece:	48 83 ec 20          	sub    $0x20,%rsp
    5ed2:	48 89 7d f8          	mov    %rdi,-0x8(%rbp)
    5ed6:	48 89 75 f0          	mov    %rsi,-0x10(%rbp)
    5eda:	48 89 55 e8          	mov    %rdx,-0x18(%rbp)
	if (__p)
    5ede:	48 83 7d f0 00       	cmpq   $0x0,-0x10(%rbp)
    5ee3:	74 17                	je     5efc <_ZNSt12_Vector_baseIP18VkPhysicalDevice_TSaIS1_EE13_M_deallocateEPS1_m+0x32>
	  _Tr::deallocate(_M_impl, __p, __n);
    5ee5:	48 8b 45 f8          	mov    -0x8(%rbp),%rax
    5ee9:	48 8b 55 e8          	mov    -0x18(%rbp),%rdx
    5eed:	48 8b 4d f0          	mov    -0x10(%rbp),%rcx
    5ef1:	48 89 ce             	mov    %rcx,%rsi
    5ef4:	48 89 c7             	mov    %rax,%rdi
    5ef7:	e8 2d 0f 00 00       	call   6e29 <_ZNSt16allocator_traitsISaIP18VkPhysicalDevice_TEE10deallocateERS2_PS1_m>
      }
    5efc:	90                   	nop
    5efd:	c9                   	leave
    5efe:	c3                   	ret
    5eff:	90                   	nop

0000000000005f00 <_ZNSt15__new_allocatorI23VkQueueFamilyPropertiesEC1Ev>:
      __new_allocator() _GLIBCXX_USE_NOEXCEPT { }
    5f00:	55                   	push   %rbp
    5f01:	48 89 e5             	mov    %rsp,%rbp
    5f04:	48 89 7d f8          	mov    %rdi,-0x8(%rbp)
    5f08:	90                   	nop
    5f09:	5d                   	pop    %rbp
    5f0a:	c3                   	ret
    5f0b:	90                   	nop

0000000000005f0c <_ZNSt15__new_allocatorI23VkQueueFamilyPropertiesED1Ev>:
      ~__new_allocator() _GLIBCXX_USE_NOEXCEPT { }
    5f0c:	55                   	push   %rbp
    5f0d:	48 89 e5             	mov    %rsp,%rbp
    5f10:	48 89 7d f8          	mov    %rdi,-0x8(%rbp)
    5f14:	90                   	nop
    5f15:	5d                   	pop    %rbp
    5f16:	c3                   	ret

0000000000005f17 <_ZNSt6vectorI23VkQueueFamilyPropertiesSaIS0_EE17_S_check_init_lenEmRKS1_>:
      _S_check_init_len(size_type __n, const allocator_type& __a)
    5f17:	55                   	push   %rbp
    5f18:	48 89 e5             	mov    %rsp,%rbp
    5f1b:	53                   	push   %rbx
    5f1c:	48 83 ec 28          	sub    $0x28,%rsp
    5f20:	48 89 7d d8          	mov    %rdi,-0x28(%rbp)
    5f24:	48 89 75 d0          	mov    %rsi,-0x30(%rbp)
	if (__n > _S_max_size(_Tp_alloc_type(__a)))
    5f28:	48 8b 55 d0          	mov    -0x30(%rbp),%rdx
    5f2c:	48 8d 45 ef          	lea    -0x11(%rbp),%rax
    5f30:	48 89 d6             	mov    %rdx,%rsi
    5f33:	48 89 c7             	mov    %rax,%rdi
    5f36:	e8 25 01 00 00       	call   6060 <_ZNSaI23VkQueueFamilyPropertiesEC1ERKS0_>
    5f3b:	48 8d 45 ef          	lea    -0x11(%rbp),%rax
    5f3f:	48 89 c7             	mov    %rax,%rdi
    5f42:	e8 10 0f 00 00       	call   6e57 <_ZNSt6vectorI23VkQueueFamilyPropertiesSaIS0_EE11_S_max_sizeERKS1_>
    5f47:	48 3b 45 d8          	cmp    -0x28(%rbp),%rax
    5f4b:	0f 92 c3             	setb   %bl
    5f4e:	48 8d 45 ef          	lea    -0x11(%rbp),%rax
    5f52:	48 89 c7             	mov    %rax,%rdi
